#SYMBOLS
Index	Identifier	Type	Flag	Data	Size	RefCount
0	__FOMutex	9	0	0	4	6
1	__signed_stack_001measure	6	1	4	4	6
2	__RandomMutex	9	0	8	4	14
3	__RandomTmp	5	1	12	4	56
4	__signed_stack_002measure	6	1	16	4	2
5	__FCMutex	9	0	20	4	2
6	__float_stack_001main	10	1	24	4	6
7	__unsigned_stack_002main	5	1	28	4	8
8	__frsNewSize	5	1	32	4	1
9	__float_stack_003main	10	1	36	4	16
10	__float_stack_002main	10	1	40	4	8
11	__signed_stack_001orient	6	1	44	4	16
12	__float_stack_002normalize	10	1	48	4	2
13	__signed_stack_002orient	6	1	52	4	10
14	__signed_stack_002PlaySound	6	1	56	4	14
15	__signed_stack_001PlaySound	6	1	60	4	44
16	__signed_stack_002normalize	6	1	64	4	6
17	__signed_stack_001move_steps	6	1	68	4	2
18	__signed_stack_001move_robot	6	1	72	4	6
19	__signed_stack_001move_to	6	1	76	4	16
20	__signed_stack_001normalize	6	1	80	4	5
21	__signed_stack_002move_to	6	1	84	4	8
22	__signed_stack_001drive	6	1	88	4	40
23	__signed_stack_003colour	6	1	92	4	2
24	__signed_stack_002drive	6	1	96	4	28
25	__float_stack_003drive	10	1	100	4	18
26	__float_stack_002drive	10	1	104	4	16
27	__signed_stack_002colour	6	1	108	4	6
28	__sqrtValue	5	1	112	4	5
29	__sqrtResult	5	1	116	4	16
30	__float_stack_002align	10	1	120	4	8
31	__signed_stack_001colour	6	1	124	4	17
32	__signed_stack_001change_direction	6	1	128	4	4
33	__signed_stack_001main	6	1	132	4	188
34	__signed_stack_001from_north_oriented	6	1	136	4	4
35	__signed_stack_002main	6	1	140	4	70
36	__unsigned_stack_001main	5	1	144	4	4
37	__signed_stack_003main	6	1	148	4	38
38	__signed_stack_001fopen	6	1	152	4	2
39	__FReadMutex	9	0	156	4	6
40	__float_stack_004drive	10	1	160	4	16
41	__signed_stack_001find_max_p	6	1	164	4	10
42	__float_stack_001find_max_p	10	1	168	4	2
43	__signed_stack_002find_max_p	6	1	172	4	6
44	__signed_stack_003PlaySound	6	1	176	4	14
45	__float_stack_002sort	10	1	180	4	4
46	__CLSRMutex3	9	0	184	4	4
47	__CLSWMutex3	9	0	188	4	8
48	__CLSCSMutex3	9	0	192	4	10
49	__signed_stack_001to_x	6	1	196	4	2
50	__TextOutMutex	9	0	200	4	12
51	__RLSBmutex0	9	0	204	4	8
52	__signed_stack_002SensorNXTSumoEyes	6	1	208	4	6
53	__signed_stack_001sort	6	1	212	4	20
54	__signed_stack_003sort	6	1	216	4	8
55	__signed_stack_002sort	6	1	220	4	16
56	__CLSRMutex1	9	0	224	4	4
57	__signed_stack_001update_intersection_probability	6	1	228	4	12
58	__signed_stack_002update_intersection_probability	6	1	232	4	14
59	__CLSCSMutex1	9	0	236	4	10
60	__CLSWMutex1	9	0	240	4	8
61	__CLSCSMutex2	9	0	244	4	10
62	__CLSRMutex2	9	0	248	4	4
63	__signed_stack_001to_y	6	1	252	4	2
64	__signed_stack_001total	6	1	256	4	4
65	__signed_stack_002total	6	1	260	4	4
66	__CLSWMutex2	9	0	264	4	8
67	__signed_stack_003pmove	6	1	268	4	2
68	__signed_stack_002pmove	6	1	272	4	20
69	__RLSBmutex2	9	0	276	4	8
70	__signed_stack_002pmove_all	6	1	280	4	4
71	__signed_stack_001pmove_all	6	1	284	4	2
72	__signed_stack_001pmove	6	1	288	4	16
73	__signed_stack_001PlayTones	6	1	292	4	4
74	__RLSBmutex3	9	0	296	4	8
75	__signed_stack_003PlayTones	6	1	300	4	2
76	__unsigned_stack_002PlayTones	5	1	304	4	2
77	__unsigned_stack_001PlayTones	5	1	308	4	2
78	__float_stack_001rotate	10	1	312	4	8
79	__signed_stack_003rotate	6	1	316	4	4
80	__signed_stack_001scan_surroundings	6	1	320	4	16
81	__signed_stack_001SensorNXTSumoEyes	6	1	324	4	12
82	__signed_stack_001sense	6	1	328	4	22
83	__signed_stack_002rotate	6	1	332	4	12
84	__signed_stack_001protate_all	6	1	336	4	4
85	__signed_stack_001protate	6	1	340	4	6
86	__signed_stack_002protate_all	6	1	344	4	6
87	__RLSBmutex1	9	0	348	4	8
88	__signed_stack_001rotate	6	1	352	4	44
89	__DF0align	10	1	356	4	72
90	__D0align	6	1	360	4	161
91	__D0change_direction	6	1	364	4	28
92	__D0drive	6	1	368	4	116
93	__D0colour	6	1	372	4	70
94	__D0_pmove	6	1	376	4	13
95	__RDSD_Value	6	1	380	4	15
96	__RDSD_bytesRead	6	1	384	4	2
97	__SPTArgsMutex	9	0	388	4	32
98	__WDSCmutex	9	0	392	4	16
99	__DNRVmutex	9	0	396	4	4
100	__D0main	6	1	400	4	598
101	__D0from_north_oriented	6	1	404	4	10
102	__DU0main	5	1	408	4	26
103	__D0measure	6	1	412	4	45
104	__DF0main	10	1	416	4	80
105	__DU0fopen	5	1	420	4	4
106	__DF0drive	10	1	424	4	68
107	__DU0drive	5	1	428	4	16
108	__D0find_max_p	6	1	432	4	32
109	__D0fopen	6	1	436	4	15
110	__DF0find_max_p	10	1	440	4	8
111	__GL_yy	6	1	444	4	2
112	__GL_xx	6	1	448	4	2
113	__GL_zz	6	1	452	4	7
114	__GL_zoom	6	1	456	4	2
115	__GL_camDepth	6	1	460	4	4
116	__GL_f	6	1	464	4	3
117	__GL_b	6	1	468	4	46
118	__GL_a	6	1	472	4	46
119	__GL_c	6	1	476	4	9
120	__GL_e	6	1	480	4	2
121	__GL_d	6	1	484	4	8
122	__GL_sizeX	6	1	488	4	2
123	__constVal32768	6	0	492	4	27
124	__GL_sizeY	6	1	496	4	2
125	__RDSD_PreviousValue	6	1	500	4	2
126	__GL_sizeZ	6	1	504	4	2
127	__GL_z1	6	1	508	4	25
128	__GL_y0	6	1	512	4	18
129	__GL_x0	6	1	516	4	20
130	__GL_z0	6	1	520	4	20
131	__GL_y1	6	1	524	4	14
132	__GL_x1	6	1	528	4	22
133	__DU0measure	5	1	532	4	2
134	__DF0update_probability	10	1	536	4	6
135	__DF0update_intersection_probability	10	1	540	4	2
136	__D0fclose_inline_main	6	1	544	4	2
137	__signed_stack_001align	6	1	548	4	34
138	__D0fgets_inline_main	6	1	552	4	3
139	__D0update_intersection_probability	6	1	556	4	49
140	__D0to_x	6	1	560	4	6
141	__DF0sort	10	1	564	4	10
142	__D0to_y	6	1	568	4	6
143	__DF0total	10	1	572	4	6
144	__D0total	6	1	576	4	17
145	__sqrtN	5	1	580	4	16
146	__sinValue	6	1	584	4	18
147	__sqrtM	5	1	588	4	8
148	__sqrtP	5	1	592	4	5
149	__sqrtR	5	1	596	4	12
150	__sinResult	6	1	600	4	10
151	__signed_stack_003align	6	1	604	4	8
152	__signed_stack_002align	6	1	608	4	16
153	__asinResult	6	1	612	4	5
154	__float_stack_001align	10	1	616	4	12
155	__asinValue	6	1	620	4	7
156	__D0orient	6	1	624	4	47
157	__DF0normalize	10	1	628	4	10
158	__D0PlaySound	6	1	632	4	138
159	__DU0PlayTones	5	1	636	4	4
160	__D0PlayTones	6	1	640	4	14
161	__D0normalize	6	1	644	4	19
162	__DF0move_robot	10	1	648	4	2
163	__D0move_robot	6	1	652	4	33
164	__D0move_steps	6	1	656	4	12
165	____HTPowerFunctionCalcBits_shift_tmp	6	1	660	4	4
166	__D0move_to	6	1	664	4	92
167	__D0sense	6	1	668	4	94
168	__D0scan_surroundings	6	1	672	4	72
169	__D0SensorNXTSumoEyes	6	1	676	4	46
170	__DU0sort	5	1	680	4	2
171	__D0sort	6	1	684	4	74
172	__DF0rotate	10	1	688	4	76
173	__D0pmove_all	6	1	692	4	17
174	__D0pmove	6	1	696	4	64
175	__D0protate	6	1	700	4	16
176	__D0rotate	6	1	704	4	122
177	__D0protate_all	6	1	708	4	21
178	__CLSRMutex0	9	0	712	4	4
179	__rotate_theAngle0	5	1	716	4	2
180	__rotate_theAngle5	5	1	720	4	2
181	__rotate_angle6	6	1	724	4	4
182	__rotate_angle1	6	1	728	4	6
183	__update_probability_7qG2_probability_7qG2_000	10	1	732	4	3
184	__rotate_angle5	6	1	736	4	8
185	__update_intersection_probability_7qG2_probability_7qG2_000	10	1	740	4	2
186	__Wait_7qG2_ms_7qG2_000_inline_rotate	5	1	744	4	2
187	__main_7qG2_robp_7qG2_000	10	1	748	4	2
188	__drive_7qG2_distance_7qG2_000	6	1	752	4	18
189	__rotate_theAngle6	5	1	756	4	2
190	__constValf0P3799	10	0	760	4	8
191	__constValf1P5271	10	0	764	4	4
192	__constValf0P85935	10	0	768	4	2
193	__rotate_7qG2_degrees_7qG2_000	6	1	772	4	39
194	__rotate_theAngle4	5	1	776	4	2
195	__rotate_angle4	6	1	780	4	4
196	__align_7qG2_theta_7qG2_001	10	1	784	4	2
197	__align_7qG2_angle_7qG2_003	10	1	788	4	4
198	__align_7qG2_angle_7qG2_001	10	1	792	4	2
199	__rotate_angle3	6	1	796	4	4
200	__rotate_theAngle2	5	1	800	4	2
201	__rotate_theAngle3	5	1	804	4	2
202	__align_7qG2_theta_7qG2_003	10	1	808	4	4
203	__normalize_7qG2_total_s_7qG2_000	10	1	812	4	2
204	__rotate_angle2	6	1	816	4	6
205	__rotate_theAngle1	5	1	820	4	2
206	__total_7qG2_sum_7qG2_000	10	1	824	4	4
207	__constValf52P3	10	0	828	4	4
208	__align_7qG2_angle_7qG2_002	10	1	832	4	2
209	__align_7qG2_theta_7qG2_002	10	1	836	4	2
210	__main_7qG2_newp_7qG2_000	10	1	840	4	3
211	__rotateMutex2	9	0	844	4	12
212	__fopen_7qG2_fsize_7qG2_000	5	1	848	4	4
213	__CLSWMutex0	9	0	852	4	8
214	__rotate_angle0	6	1	856	4	4
215	__rotateMutex1	9	0	860	4	12
216	__Wait_7qG2_ms_7qG2_000_inline_main	5	1	864	4	4
217	ptotal	10	0	868	4	5
218	__ResetSensorMutex	9	0	872	4	2
219	__CLSCSMutex0	9	0	876	4	10
220	__constValf0P9	10	0	880	4	2
221	__constVal37632	6	0	884	4	1
222	__constValf0P1	10	0	888	4	1
223	__constVal65536	6	0	892	4	7
224	__fopen_default_size	5	0	896	4	1
225	__find_max_p_7qG2_i_7qG2_000	4	1	900	2	10
226	__rotate_RotCount1	4	1	902	2	4
227	__GL_saveAngleX	4	1	904	2	2
228	__sort_7qG2_position_7qG2_000	4	1	906	2	18
229	__protate_all_7qG2_degrees_7qG2_000	4	1	908	2	1
230	__GL_saveAngleY	4	1	910	2	2
231	__pmove_all_7qG2_i_7qG2_000	4	1	912	2	5
232	__total_7qG2_i_7qG2_000	4	1	914	2	5
233	__normalize_7qG2_i_7qG2_000	4	1	916	2	6
234	__GL_cosX	4	1	918	2	3
235	__GL_sinX	4	1	920	2	3
236	__protate_all_7qG2_i_7qG2_000	4	1	922	2	6
237	__move_to_7qG2_dy_7qG2_000	4	1	924	2	6
238	__move_to_7qG2_dx_7qG2_000	4	1	926	2	6
239	__protate_7qG2_degrees_7qG2_000	4	1	928	2	5
240	__GL_j	3	1	930	2	37
241	__HTPFJ	4	1	932	2	10
242	__move_to_7qG2_h_7qG2_000	4	1	934	2	10
243	__move_to_7qG2_y2_7qG2_000	4	1	936	2	2
244	__HTPFI	4	1	938	2	11
245	__move_to_7qG2_i_7qG2_000	4	1	940	2	8
246	__GL_angleX	4	1	942	2	9
247	__rotate_OldRotCount2	4	1	944	2	2
248	__GL_angleZ	4	1	946	2	1
249	__GL_angleY	4	1	948	2	9
250	__GL_l	3	1	950	2	11
251	__pmove_7qG2_i_7qG2_000	4	1	952	2	11
252	__GL_i	3	1	954	2	33
253	__rotate_RotCount2	4	1	956	2	4
254	__GL_k	3	1	958	2	16
255	__GL_sinY	4	1	960	2	3
256	__main_7qG2_k_7qG2_000	4	1	962	2	4
257	__constVal256	4	0	964	2	14
258	__main_7qG2_i_7qG2_000	4	1	966	2	49
259	__fgets_7qG2_num_7qG2_000_inline_main	4	1	968	2	6
260	__rotate_OldRotCount0	4	1	970	2	2
261	__rotate_RotCount0	4	1	972	2	4
262	__constVal250	4	0	974	2	1
263	__Pos_i	4	1	976	2	5
264	__main_7qG2_j_7qG2_000	4	1	978	2	6
265	__GL_glRangeValue	3	1	980	2	6
266	__GL_glRangeMaxValue	3	1	982	2	6
267	__main_7qG2_target_7qG2_000	4	1	984	2	5
268	__GL_value	4	1	986	2	9
269	__constVal200	4	0	988	2	2
270	__MSRCSTmpWord	3	1	990	2	6
271	__main_7qG2_dest_7qG2_000	4	1	992	2	7
272	__constVal128	4	0	994	2	1
273	__update_intersection_probability_7qG2_heading_7qG2_000	4	1	996	2	2
274	__constVal255	4	0	998	2	7
275	__orient_7qG2_heading_7qG2_000	4	1	1000	2	2
276	__update_intersection_probability_7qG2_i_7qG2_000	4	1	1002	2	9
277	__GL_cosY	4	1	1004	2	3
278	__rotate_OldRotCount1	4	1	1006	2	2
279	__update_intersection_probability_7qG2_y_7qG2_000	4	1	1008	2	2
280	__update_intersection_probability_7qG2_x_7qG2_000	4	1	1010	2	2
281	__orient_7qG2_i_7qG2_000	4	1	1012	2	6
282	__Pos_Result	4	1	1014	2	4
283	__ArrHelper__colour_73_0	4	1	1016	2	6
284	__Pos_l1	4	1	1018	2	5
285	__Pos_lDelta	4	1	1020	2	6
286	__ArrHelper__main_73_0	4	1	1022	2	16
287	__to_x_7qG2_inter_7qG2_000	4	1	1024	2	2
288	__ArrHelper__orient_73_0	4	1	1026	2	10
289	__to_y_7qG2_inter_7qG2_000	4	1	1028	2	2
290	__move_to_7qG2_x2_7qG2_000	4	1	1030	2	2
291	__from_north_oriented_7qG2_dir_7qG2_000	4	1	1032	2	2
292	__measure_7qG2_length_7qG2_000	4	1	1034	2	5
293	__from_north_oriented_7qG2_heading_7qG2_000	4	1	1036	2	2
294	__sense_7qG2_heading_7qG2_000	4	1	1038	2	1
295	__sense_7qG2_dir_7qG2_000	4	1	1040	2	1
296	__measure_7qG2_initial_7qG2_000	4	1	1042	2	3
297	__rotate_OldRotCount6	4	1	1044	2	2
298	__rotate_RotCount5	4	1	1046	2	4
299	__measure_7qG2_current_7qG2_000	4	1	1048	2	3
300	__rotate_OldRotCount5	4	1	1050	2	2
301	__rotate_RotCount4	4	1	1052	2	4
302	__frsResult	3	1	1054	2	6
303	__rotate_OldRotCount4	4	1	1056	2	2
304	__RLSReturn	3	1	1058	2	5
305	__move_steps_7qG2_step_7qG2_000	4	1	1060	2	8
306	__sense_7qG2_reading_7qG2_000	4	1	1062	2	5
307	__sense_7qG2_actual_dir_7qG2_000	4	1	1064	2	4
308	__change_direction_7qG2_orig_7qG2_000	4	1	1066	2	5
309	__change_direction_7qG2_change_7qG2_000	4	1	1068	2	2
310	__change_direction_7qG2_new_7qG2_000	4	1	1070	2	5
311	__rotate_RotCount6	4	1	1072	2	4
312	__constVal1023	4	0	1074	2	1
313	__SensorNXTSumoEyes_7qG2_value_7qG2_000	4	1	1076	2	11
314	__fopen_7qG2_result_7qG2_000	4	1	1078	2	5
315	__colour_7qG2_n_7qG2_000	4	1	1080	2	2
316	__colour_7qG2_col_7qG2_000	4	1	1082	2	3
317	__PlaySound_7qG2_aCode_7qG2_000	4	1	1084	2	6
318	__constVal150	4	0	1086	2	1
319	__PlaySound_7qG2_i_7qG2_001	4	1	1088	2	15
320	__PlayTones_7qG2_i_7qG2_001	4	1	1090	2	5
321	__constVal500	4	0	1092	2	1
322	__constVal7458	4	0	1094	2	1
323	__constVal3729	4	0	1096	2	1
324	__colour_7qG2_i_7qG2_001	4	1	1098	2	11
325	__colour_7qG2_max_7qG2_000	4	1	1100	2	3
326	__colour_7qG2_max_i_7qG2_000	4	1	1102	2	3
327	__constVal233	4	0	1104	2	2
328	__colour_7qG2_p_7qG2_000	4	1	1106	2	2
329	__constVal466	4	0	1108	2	1
330	__constVal1865	4	0	1110	2	1
331	__constVal932	4	0	1112	2	1
332	__constVal360	4	0	1114	2	6
333	__move_robot_7qG2_dist_7qG2_001	4	1	1116	2	2
334	__RLSByteCount	3	1	1118	2	4
335	__RLSMaxBytes	3	1	1120	2	4
336	__constVal270	4	0	1122	2	1
337	__rotate_RotCount3	4	1	1124	2	4
338	__align_7qG2_dir_7qG2_000	4	1	1126	2	4
339	__align_7qG2_dist_7qG2_000	4	1	1128	2	11
340	__move_robot_7qG2_old_7qG2_000	4	1	1130	2	3
341	__rotate_OldRotCount3	4	1	1132	2	2
342	__constVal180	4	0	1134	2	3
343	__move_to_7qG2_y1_7qG2_000	4	1	1136	2	2
344	__move_robot_7qG2_col_7qG2_001	4	1	1138	2	3
345	__move_to_7qG2_x1_7qG2_000	4	1	1140	2	2
346	__constVal45	2	0	1142	1	2
347	____GL_glInit_return	1	1	1143	1	2
348	__move_robot_return	1	1	1144	1	6
349	__zfrotate	1	1	1145	1	42
350	__constVal25	2	0	1146	1	1
351	__GL_glLinesClipped	1	1	1147	1	1
352	__GL_glErrorState	1	1	1148	1	14
353	____GL_glRangeCheck_return	1	1	1149	1	7
354	____GL_glCallObject_return	1	1	1150	1	2
355	____GL_glResetObjects_return	1	1	1151	1	2
356	__drive_7qG2_left_7qG2_000	2	1	1152	1	17
357	____GL_glRotateObject_return	1	1	1153	1	3
358	____GL_glAddLines_return	1	1	1154	1	3
359	____GL_glObjectAction_return	1	1	1155	1	2
360	____GL_glEndObject_return	1	1	1156	1	4
361	____GL_glEnd_return	1	1	1157	1	13
362	____GL_glRotateVertexList_return	1	1	1158	1	2
363	____GL_glSet_return	1	1	1159	1	2
364	____GL_glAddVertex_return	1	1	1160	1	42
365	__constVal9	2	0	1161	1	1
366	__drive_7qG2_right_7qG2_000	2	1	1162	1	17
367	__fopen_return	1	1	1163	1	4
368	__zftotal	1	1	1164	1	3
369	__fopen_7qG2_handle_7qG2_000	1	1	1165	1	5
370	__colour_return	1	1	1166	1	18
371	__constVal60	2	0	1167	1	1
372	__SensorNXTSumoEyes_return	1	1	1168	1	6
373	__zfupdate_intersection_probability	1	1	1169	1	15
374	__PlaySound_return	1	1	1170	1	2
375	__move_to_return	1	1	1171	1	4
376	__SensorNXTSumoEyes_7qG2_port_7qG2_000	1	1	1172	1	1
377	__PlayTones_return	1	1	1173	1	2
378	__main_7qG2_charat_7qG2_000	1	1	1174	1	13
379	__SetSensorColorFull_7qG2_port_7qG2_000_inline_colour	1	1	1175	1	4
380	__main_7qG2_fd_7qG2_000	1	1	1176	1	5
381	__zfsense	1	1	1177	1	9
382	__GL_action	1	1	1178	1	4
383	__zfSensorNXTSumoEyes	1	1	1179	1	21
384	__zfsort	1	1	1180	1	16
385	___pmove_return	1	1	1181	1	5
386	__fclose_7qG2_handle_7qG2_000_inline_main	1	1	1182	1	2
387	__protate_return	1	1	1183	1	5
388	__fgets_7qG2_handle_7qG2_000_inline_main	1	1	1184	1	6
389	__zfPlaySound	1	1	1185	1	27
390	__zffind_max_p	1	1	1186	1	6
391	__scan_surroundings_return	1	1	1187	1	4
392	__zffopen	1	1	1188	1	3
393	__update_probability_return	1	1	1189	1	4
394	__change_direction_return	1	1	1190	1	6
395	__total_return	1	1	1191	1	4
396	__sense_return	1	1	1192	1	3
397	__orient_return	1	1	1193	1	3
398	__zfPlayTones	1	1	1194	1	3
399	__zfdrive	1	1	1195	1	40
400	__update_intersection_probability_return	1	1	1196	1	3
401	__zfcolour	1	1	1197	1	9
402	__constValNeg3	2	0	1198	1	1
403	__zfmove_robot	1	1	1199	1	11
404	__zfnormalize	1	1	1200	1	3
405	__zfmove_to	1	1	1201	1	24
406	__find_max_p_return	1	1	1202	1	3
407	__move_steps_return	1	1	1203	1	9
408	__zfmeasure	1	1	1204	1	5
409	__zfmain	1	1	1205	1	35
410	__sort_7qG2_unsorted_7qG2_000	1	1	1206	1	3
411	__zforient	1	1	1207	1	3
412	__normalize_return	1	1	1208	1	3
413	__sort_return	1	1	1209	1	3
414	__constValNeg1	2	0	1210	1	1
415	__zfalign	1	1	1211	1	9
416	____GL_glBox_return	1	1	1212	1	2
417	____initialize_global_data_return	1	1	1213	1	3
418	__rotate_7qG2_mode_7qG2_000	2	1	1214	1	33
419	__measure_7qG2_mode_7qG2_000	2	1	1215	1	1
420	__rotate_return	1	1	1216	1	29
421	____GL_glPyramid_return	1	1	1217	1	2
422	__constVal96	2	0	1218	1	8
423	__GL_tmpId	1	1	1219	1	2
424	____GL_glRenderObjects_return	1	1	1220	1	3
425	____GL_glDrawObject_return	1	1	1221	1	3
426	__drive_return	1	1	1222	1	12
427	__drive_7qG2_brake_7qG2_000	1	1	1223	1	18
428	__GL_mode	1	1	1224	1	11
429	__to_x_return	1	1	1225	1	4
430	__align_return	1	1	1226	1	3
431	__zfpmove_all	1	1	1227	1	3
432	__pmove_all_return	1	1	1228	1	3
433	__from_north_oriented_return	1	1	1229	1	4
434	__zfpmove	1	1	1230	1	17
435	__protate_all_return	1	1	1231	1	3
436	__pmove_return	1	1	1232	1	3
437	__measure_return	1	1	1233	1	4
438	__measure_7qG2_backtrack_7qG2_000	1	1	1234	1	2
439	____PosSubroutine_return	1	1	1235	1	3
440	__to_y_return	1	1	1236	1	4
441	__zfprotate_all	1	1	1237	1	3
442	____RotateMotor1_return	1	1	1238	1	4
443	__constVal50	2	0	1239	1	10
444	____RotateMotor1_sign_tmp	2	1	1240	1	4
445	____RotateMotor2_sign_tmp	2	1	1241	1	4
446	____RotateMotor2_return	1	1	1242	1	4
447	____RotateMotor0_sign_tmp	2	1	1243	1	4
448	____RotateMotor0_return	1	1	1244	1	2
449	__constVal32	2	0	1245	1	34
450	__constVal0	2	1	1246	1	126
451	__constVal1	2	0	1247	1	168
452	____RotateMotor6_return	1	1	1248	1	3
453	____RotateMotor5_sign_tmp	2	1	1249	1	4
454	____RotateMotor6_sign_tmp	2	1	1250	1	4
455	__constVal3	2	0	1251	1	20
456	____RotateMotorVar_return	1	1	1252	1	2
457	____RotateMotor3_sign_tmp	2	1	1253	1	4
458	____RotateMotor3_return	1	1	1254	1	2
459	____RotateMotor4_return	1	1	1255	1	2
460	____RotateMotor5_return	1	1	1256	1	6
461	____RotateMotor4_sign_tmp	2	1	1257	1	4
462	__rotate_theTurnPct6	2	1	1258	1	4
463	__rotate_power6	1	1	1259	1	3
464	__rotate_theTurnPct5	2	1	1260	1	4
465	__rotate_firstPort6	1	1	1261	1	5
466	__rotate_stop6	1	1	1262	1	1
467	__rotate_sync6	1	1	1263	1	1
468	__rotate_theRVI5	1	1	1264	1	5
469	__rotate_theRVP5	1	1	1265	1	5
470	__rotate_theRVD5	1	1	1266	1	5
471	__rotate_thePower5	2	1	1267	1	4
472	__rotate_rs5	1	1	1268	1	2
473	__rotate_theRVI6	1	1	1269	1	1
474	__rotate_theRVP6	1	1	1270	1	1
475	__rotate_theRVD6	1	1	1271	1	1
476	__rotate_thePower6	2	1	1272	1	4
477	__rotate_rs6	1	1	1273	1	10
478	__rotate_theUF6	1	1	1274	1	6
479	__rotate_turnpct6	2	1	1275	1	2
480	__rotate_theOM6	1	1	1276	1	7
481	__rotate_theRS6	1	1	1277	1	3
482	__rotate_theRM6	1	1	1278	1	4
483	__constVal6	2	0	1279	1	5
484	__RLSReadPort	1	1	1280	1	7
485	__RLSBIterationsVar	1	1	1281	1	4
486	____fileResizeSub_return	1	1	1282	1	2
487	__RLSReturnAddress	1	1	1283	1	4
488	__FReadTmpByte	1	1	1284	1	3
489	__RLSBIterations3	1	1	1285	1	4
490	__RLSBytesCount3	1	1	1286	1	6
491	____ReadLSBytesVar_return	1	1	1287	1	7
492	__RLSBytesCountVar	1	1	1288	1	13
493	__RLSBResultVar	2	1	1289	1	11
494	__constVal90	2	0	1290	1	5
495	____sinSub_return	1	1	1291	1	2
496	____asinSub_return	1	1	1292	1	2
497	__constValNeg100	2	0	1293	1	1
498	__constVal100	2	0	1294	1	9
499	__constVal10	2	0	1295	1	3
500	____readStringLine_return	1	1	1296	1	1
501	__constVal13	2	0	1297	1	2
502	__sinValueNeg	1	1	1298	1	3
503	__sqrtPaircount	2	1	1299	1	9
504	__RLSBResult3	2	1	1300	1	7
505	__RLSBResult0	2	1	1301	1	7
506	____ReadLSBytes0_return	1	1	1302	1	2
507	__RLSBytesCount0	1	1	1303	1	6
508	__constVal15	2	0	1304	1	9
509	__RLSBIterations0	1	1	1305	1	4
510	__constVal5	2	0	1306	1	13
511	__constVal4	2	0	1307	1	24
512	__ResetSensorPort	1	1	1308	1	3
513	____ResetSensorSubroutine_return	1	1	1309	1	3
514	__ResetSensorTmp	1	1	1310	1	2
515	__RLSBytesCount2	1	1	1311	1	6
516	__RLSBResult2	2	1	1312	1	7
517	__RLSBIterations2	1	1	1313	1	4
518	____ReadLSBytes3_return	1	1	1314	1	2
519	__constVal2	2	0	1315	1	42
520	__RLSBResult1	2	1	1316	1	7
521	____ReadLSBytes1_return	1	1	1317	1	2
522	__RLSBytesCount1	1	1	1318	1	6
523	____ReadLSBytes2_return	1	1	1319	1	2
524	__RLSBIterations1	1	1	1320	1	4
525	__rotate_theRS5	1	1	1321	1	3
526	__rotate_rs1	1	1	1322	1	2
527	__rotate_theRVD1	1	1	1323	1	3
528	__rotate_thePower1	2	1	1324	1	4
529	__rotate_power2	1	1	1325	1	5
530	__rotate_theTurnPct1	2	1	1326	1	4
531	__rotate_theRM1	1	1	1327	1	4
532	__rotate_theOM1	1	1	1328	1	7
533	__rotate_theRS1	1	1	1329	1	3
534	__rotate_theRVI1	1	1	1330	1	3
535	__rotate_theRVP1	1	1	1331	1	3
536	__rotate_theRM2	1	1	1332	1	4
537	__rotate_theOM2	1	1	1333	1	7
538	__rotate_theRS2	1	1	1334	1	3
539	__rotate_theRVI2	1	1	1335	1	3
540	__rotate_theRVP2	1	1	1336	1	3
541	__rotate_sync2	1	1	1337	1	3
542	__rotate_firstPort2	1	1	1338	1	5
543	__rotate_stop2	1	1	1339	1	3
544	__rotate_theUF2	1	1	1340	1	6
545	__rotate_turnpct2	2	1	1341	1	4
546	__rotate_theUF1	1	1	1342	1	6
547	__rotate_theOM0	1	1	1343	1	7
548	__rotate_theUF0	1	1	1344	1	6
549	__rotate_theRM0	1	1	1345	1	4
550	__rotate_theRVP0	1	1	1346	1	1
551	__rotate_theRS0	1	1	1347	1	3
552	__rotate_firstPort0	1	1	1348	1	5
553	__rotate_power0	1	1	1349	1	3
554	__rotate_sync0	1	1	1350	1	1
555	__rotate_turnpct0	2	1	1351	1	2
556	__rotate_stop0	1	1	1352	1	1
557	__rotate_firstPort1	1	1	1353	1	5
558	__rotate_power1	1	1	1354	1	5
559	__rotate_sync1	1	1	1355	1	3
560	__rotate_turnpct1	2	1	1356	1	4
561	__rotate_stop1	1	1	1357	1	3
562	__rotate_theRVD0	1	1	1358	1	1
563	__rotate_theRVI0	1	1	1359	1	1
564	__rotate_rs0	1	1	1360	1	2
565	__rotate_theTurnPct0	2	1	1361	1	4
566	__rotate_thePower0	2	1	1362	1	4
567	__rotate_theRVD2	1	1	1363	1	3
568	__rotate_theRVP4	1	1	1364	1	1
569	__rotate_theRS4	1	1	1365	1	3
570	__rotate_theRVI4	1	1	1366	1	1
571	__rotate_rs4	1	1	1367	1	2
572	__rotate_theRVD4	1	1	1368	1	1
573	__rotate_turnpct4	2	1	1369	1	2
574	__rotate_stop4	1	1	1370	1	1
575	__rotate_theUF4	1	1	1371	1	6
576	__rotate_theRM4	1	1	1372	1	4
577	__rotate_theOM4	1	1	1373	1	7
578	__rotate_turnpct5	2	1	1374	1	6
579	__rotate_stop5	1	1	1375	1	5
580	__rotate_theUF5	1	1	1376	1	6
581	__rotate_theRM5	1	1	1377	1	4
582	__rotate_theOM5	1	1	1378	1	7
583	__rotate_theTurnPct4	2	1	1379	1	4
584	__rotate_thePower4	2	1	1380	1	4
585	__rotate_power5	1	1	1381	1	7
586	__rotate_sync5	1	1	1382	1	5
587	__rotate_firstPort5	1	1	1383	1	5
588	__rotate_sync4	1	1	1384	1	1
589	__rotate_stop3	1	1	1385	1	1
590	__rotate_sync3	1	1	1386	1	1
591	__rotate_turnpct3	2	1	1387	1	2
592	__rotate_theOM3	1	1	1388	1	7
593	__rotate_theUF3	1	1	1389	1	6
594	__rotate_thePower2	2	1	1390	1	4
595	__rotate_rs2	1	1	1391	1	2
596	__rotate_theTurnPct2	2	1	1392	1	4
597	__rotate_firstPort3	1	1	1393	1	5
598	__rotate_power3	1	1	1394	1	3
599	__rotate_thePower3	2	1	1395	1	4
600	__rotate_rs3	1	1	1396	1	2
601	__rotate_theTurnPct3	2	1	1397	1	4
602	__rotate_firstPort4	1	1	1398	1	5
603	__rotate_power4	1	1	1399	1	3
604	__rotate_theRS3	1	1	1400	1	3
605	__rotate_theRM3	1	1	1401	1	4
606	__rotate_theRVP3	1	1	1402	1	1
607	__rotate_theRVD3	1	1	1403	1	1
608	__rotate_theRVI3	1	1	1404	1	1
609	____sqrtSub_return	1	1	1405	1	2
610	__RFIDCont_Result	1	1	1406	1	5
611	__RFIDCont_Port	1	1	1407	1	4
612	__WDSC_SensorAddress	1	1	1408	1	9
613	__WDSC_Port	1	1	1409	1	10
614	__constVal75	2	0	1410	1	1
615	__constVal12	2	0	1411	1	1
616	__RFIDCount	1	1	1412	1	3
617	__constVal81	2	0	1413	1	1
618	__WDSC_SensorRegister	1	1	1414	1	9
619	__RDSD_NumBytesToRead	1	1	1415	1	7
620	__RDSD_SensorRegister	1	1	1416	1	2
621	__RDSD_Byte	1	1	1417	1	8
622	__RDSD_LSStatus	2	1	1418	1	8
623	__WDSC_LSStatus	2	1	1419	1	10
624	__WDSC_ByteCount	1	1	1420	1	4
625	__RDSD_SensorAddress	1	1	1421	1	2
626	__RDSD_Port	1	1	1422	1	5
627	__RCSResult	1	1	1423	1	1
628	____HTPowerFunctionCalcBits_shift_cnt	2	1	1424	1	4
629	__constVal11	2	0	1425	1	1
630	____HTRCXCommandSub_return	1	1	1426	1	2
631	__constVal7	2	0	1427	1	4
632	____PFRawOutputSub_return	1	1	1428	1	2
633	____RCTrainSub_return	1	1	1429	1	2
634	__constVal88	2	0	1430	1	2
635	____HTPowerFunctionCalcBits_return	1	1	1431	1	2
636	__RCSToggle	1	1	1432	1	3
637	__RCSTotalBytes	1	1	1433	1	2
638	__RCSMsgBufSize	1	1	1434	1	7
639	__RCSTmpByte2	1	1	1435	1	12
640	__RCSTmpByte	1	1	1436	1	48
641	__RCSCmdBytes	2	1	1437	1	6
642	__RCSI	1	1	1438	1	7
643	__RCSCSum	1	1	1439	1	6
644	__RCSCmd	1	1	1440	1	2
645	____RFIDReadContinuousSub_return	1	1	1441	1	2
646	__GL_glSettingValue	1	1	1442	1	4
647	__GL_glSettingType	1	1	1443	1	4
648	__GL_vertexIndex	1	1	1444	1	3
649	__GL_vertexCount	1	1	1445	1	13
650	__constVal66	2	0	1446	1	2
651	__constVal14	2	0	1447	1	3
652	__constVal64	2	0	1448	1	2
653	__constVal70	2	0	1449	1	3
654	__GL_vertexOffset	1	1	1450	1	15
655	__GL_objectActionCount	1	1	1451	1	6
656	__GL_plDataCount	1	1	1452	1	7
657	__GL_objectIndex	1	1	1453	1	9
658	__GL_objectCount	1	1	1454	1	9
659	__GL_lineIndex	1	1	1455	1	4
660	__GL_lineCount	1	1	1456	1	9
661	__GL_pvDataCount	1	1	1457	1	25
662	__GL_polygonCount	1	1	1458	1	7
663	__constVal85	2	0	1459	1	1
664	__constVal16	2	0	1460	1	3
665	____MSPowerFunctionCalcBytes_return	1	1	1461	1	2
666	__MSRCSToggle	1	1	1462	1	3
667	____MSRCXCommandSub_return	1	1	1463	1	2
668	____MSWriteBytesSub_return	1	1	1464	1	10
669	____MSReadLEValueSub_return	1	1	1465	1	3
670	__MSPFByte2	1	1	1466	1	6
671	__MSPFByte1	1	1	1467	1	6
672	__MSRCSI	1	1	1468	1	7
673	__MSRCSTmpSByte	2	1	1469	1	4
674	__MSRCSTmpByte	1	1	1470	1	23
675	__MSRCSResult	1	1	1471	1	8
676	__MSRCSTmpByte2	1	1	1472	1	8
677	__MSRCSCmd	1	1	1473	1	2
678	__MSRCSCmdBytes	2	1	1474	1	4
679	__MSRCSMsgBufSize	1	1	1475	1	10
680	__MSRCSCSum	1	1	1476	1	7
681	____PFUpdateToggle_return	1	1	1477	1	8
682	__constVal8	2	0	1478	1	8
683	____PFApplyToggle_return	1	1	1479	1	8
684	__PFIdx	1	1	1480	1	20
685	__PFChToggle	1	1	1481	1	10
686	____RCApplyToggle_return	1	1	1482	1	3
687	____PFSinglePinSub_return	1	1	1483	1	2
688	____PFSingleOutputSub_return	1	1	1484	1	2
689	____PFComboDirectSub_return	1	1	1485	1	2
690	____RCUpdateToggle_return	1	1	1486	1	3
691	____PFCalcChecksum_return	1	1	1487	1	4
692	__PFNx	1	1	1488	1	14
693	__PFPowerFuncMode	1	1	1489	1	2
694	__HTPFDx	1	1	1490	1	6
695	__constVal20	2	0	1491	1	2
696	__HTPFValue	1	1	1492	1	8
697	__PFTmp	1	1	1493	1	21
698	__PF_p4	1	1	1494	1	2
699	__PF_p5	1	1	1495	1	1
700	__PF_p3	1	1	1496	1	11
701	__PF_p1	1	1	1497	1	23
702	__PF_p2	1	1	1498	1	13
703	____PFTrainSub_return	1	1	1499	1	2
704	____PFComboPWMSub_return	1	1	1500	1	2
705	__CLSCSArgs2	8	0	3	4	4
706	__CLSCSArgs2.Result	2	1	1504	1	4
707	__CLSCSArgs2.Port	1	1	1505	1	4
708	__CLSCSArgs2.BytesReady	1	1	1506	1	4
709	__CLSRArgs0	8	0	4	12	10
710	__CLSRArgs0.Result	2	1	1508	1	10
711	__CLSRArgs0.Port	1	1	1509	1	10
712	__CLSRArgs0.Buffer	7	0	1510	4	10
713	__CLSRArgs0.Buffer.Buffer_type	1	0	0	1	0
714	__CLSRArgs0.BufferLen	1	1	1512	1	10
715	__RDSD_lsrArgs	8	0	4	12	8
716	__RDSD_lsrArgs.Result	2	1	1516	1	8
717	__RDSD_lsrArgs.Port	1	1	1517	1	8
718	__RDSD_lsrArgs.Buffer	7	0	1518	4	8
719	__RDSD_lsrArgs.Buffer.Buffer_type	1	0	0	1	0
720	__RDSD_lsrArgs.BufferLen	1	1	1520	1	8
721	__CLSCSArgs0	8	0	3	4	17
722	__CLSCSArgs0.Result	2	1	1524	1	17
723	__CLSCSArgs0.Port	1	1	1525	1	17
724	__CLSCSArgs0.BytesReady	1	1	1526	1	17
725	__CLSWArgs0	8	0	4	12	20
726	__CLSWArgs0.Result	2	1	1528	1	20
727	__CLSWArgs0.Port	1	1	1529	1	20
728	__CLSWArgs0.Buffer	7	0	1530	4	20
729	__CLSWArgs0.Buffer.Buffer_type	1	0	0	1	0
730	__CLSWArgs0.ReturnLen	1	1	1532	1	20
731	__GL_vertex2	8	0	3	20	7
732	__GL_vertex2.orig	8	0	3	8	7
733	__GL_vertex2.orig.x	4	1	1536	2	7
734	__GL_vertex2.orig.y	4	1	1538	2	7
735	__GL_vertex2.orig.z	4	1	1540	2	7
736	__GL_vertex2.rot	8	0	3	8	7
737	__GL_vertex2.rot.x	4	1	1544	2	7
738	__GL_vertex2.rot.y	4	1	1546	2	7
739	__GL_vertex2.rot.z	4	1	1548	2	7
740	__GL_vertex2.screen	8	0	2	4	7
741	__GL_vertex2.screen.x	4	1	1552	2	7
742	__GL_vertex2.screen.y	4	1	1554	2	7
743	__GL_vertex1	8	0	3	20	11
744	__GL_vertex1.orig	8	0	3	8	11
745	__GL_vertex1.orig.x	4	1	1556	2	11
746	__GL_vertex1.orig.y	4	1	1558	2	11
747	__GL_vertex1.orig.z	4	1	1560	2	11
748	__GL_vertex1.rot	8	0	3	8	11
749	__GL_vertex1.rot.x	4	1	1564	2	11
750	__GL_vertex1.rot.y	4	1	1566	2	11
751	__GL_vertex1.rot.z	4	1	1568	2	11
752	__GL_vertex1.screen	8	0	2	4	11
753	__GL_vertex1.screen.x	4	1	1572	2	11
754	__GL_vertex1.screen.y	4	1	1574	2	11
755	__FCArgs	8	0	2	4	3
756	__FCArgs.Result	3	1	1576	2	3
757	__FCArgs.FileHandle	1	1	1578	1	3
758	__RandomArgs	8	0	1	4	14
759	__RandomArgs.Result	4	1	1580	2	14
760	__FOArgs	8	0	4	12	15
761	__FOArgs.Result	3	1	1584	2	15
762	__FOArgs.FileHandle	1	1	1586	1	15
763	__FOArgs.Filename	7	0	1588	4	15
764	__FOArgs.Filename.Filename_type	1	0	0	1	0
765	__FOArgs.Length	5	1	1592	4	15
766	__GL_line	8	0	2	4	15
767	__GL_line.firstVertex	1	1	1596	1	15
768	__GL_line.lastVertex	1	1	1597	1	15
769	__ArrHelper__protate_allparticle_219_0	8	0	4	12	2
770	__ArrHelper__protate_allparticle_219_0.x	4	1	1600	2	2
771	__ArrHelper__protate_allparticle_219_0.y	4	1	1602	2	2
772	__ArrHelper__protate_allparticle_219_0.theta	4	1	1604	2	2
773	__ArrHelper__protate_allparticle_219_0.prob	10	1	1608	4	2
774	__ArrHelper__pmoveparticle_219_0	8	0	4	12	14
775	__ArrHelper__pmoveparticle_219_0.x	4	1	1612	2	14
776	__ArrHelper__pmoveparticle_219_0.y	4	1	1614	2	14
777	__ArrHelper__pmoveparticle_219_0.theta	4	1	1616	2	14
778	__ArrHelper__pmoveparticle_219_0.prob	10	1	1620	4	14
779	__ArrHelper__totalparticle_219_0	8	0	4	12	2
780	__ArrHelper__totalparticle_219_0.x	4	1	1624	2	2
781	__ArrHelper__totalparticle_219_0.y	4	1	1626	2	2
782	__ArrHelper__totalparticle_219_0.theta	4	1	1628	2	2
783	__ArrHelper__totalparticle_219_0.prob	10	1	1632	4	2
784	__ArrHelper__normalizeparticle_219_1	8	0	4	12	2
785	__ArrHelper__normalizeparticle_219_1.x	4	1	1636	2	2
786	__ArrHelper__normalizeparticle_219_1.y	4	1	1638	2	2
787	__ArrHelper__normalizeparticle_219_1.theta	4	1	1640	2	2
788	__ArrHelper__normalizeparticle_219_1.prob	10	1	1644	4	2
789	__ArrHelper__normalizeparticle_219_0	8	0	4	12	3
790	__ArrHelper__normalizeparticle_219_0.x	4	1	1648	2	3
791	__ArrHelper__normalizeparticle_219_0.y	4	1	1650	2	3
792	__ArrHelper__normalizeparticle_219_0.theta	4	1	1652	2	3
793	__ArrHelper__normalizeparticle_219_0.prob	10	1	1656	4	3
794	__ArrHelper__PlayTonesTone_219_0	8	0	2	4	2
795	__ArrHelper__PlayTonesTone_219_0.Frequency	3	1	1660	2	2
796	__ArrHelper__PlayTonesTone_219_0.Duration	3	1	1662	2	2
797	__RDSD_lswArgs	8	0	4	12	4
798	__RDSD_lswArgs.Result	2	1	1664	1	4
799	__RDSD_lswArgs.Port	1	1	1665	1	4
800	__RDSD_lswArgs.Buffer	7	0	1666	4	4
801	__RDSD_lswArgs.Buffer.Buffer_type	1	0	0	1	0
802	__RDSD_lswArgs.ReturnLen	1	1	1668	1	4
803	__CLSWArgs2	8	0	4	12	5
804	__CLSWArgs2.Result	2	1	1672	1	5
805	__CLSWArgs2.Port	1	1	1673	1	5
806	__CLSWArgs2.Buffer	7	0	1674	4	5
807	__CLSWArgs2.Buffer.Buffer_type	1	0	0	1	0
808	__CLSWArgs2.ReturnLen	1	1	1676	1	5
809	__SPTArgs	8	0	5	8	96
810	__SPTArgs.Result	2	1	1680	1	96
811	__SPTArgs.Frequency	3	1	1682	2	96
812	__SPTArgs.Duration	3	1	1684	2	96
813	__SPTArgs.Loop	1	1	1686	1	96
814	__SPTArgs.Volume	1	1	1687	1	96
815	__scan_surroundings_7qG2_rsense_7qG2_000	8	0	4	8	5
816	__scan_surroundings_7qG2_rsense_7qG2_000.NE	4	1	1688	2	5
817	__scan_surroundings_7qG2_rsense_7qG2_000.SE	4	1	1690	2	5
818	__scan_surroundings_7qG2_rsense_7qG2_000.SW	4	1	1692	2	5
819	__scan_surroundings_7qG2_rsense_7qG2_000.NW	4	1	1694	2	5
820	__result_scan_surroundings	8	0	4	8	2
821	__result_scan_surroundings.NE	4	1	1696	2	2
822	__result_scan_surroundings.SE	4	1	1698	2	2
823	__result_scan_surroundings.SW	4	1	1700	2	2
824	__result_scan_surroundings.NW	4	1	1702	2	2
825	__CLSCSArgs1	8	0	3	4	4
826	__CLSCSArgs1.Result	2	1	1704	1	4
827	__CLSCSArgs1.Port	1	1	1705	1	4
828	__CLSCSArgs1.BytesReady	1	1	1706	1	4
829	__GL_glDrawData	8	0	4	16	9
830	__GL_glDrawData.Result	2	1	1708	1	9
831	__GL_glDrawData.Location	8	0	2	4	9
832	__GL_glDrawData.Location.X	4	1	1712	2	9
833	__GL_glDrawData.Location.Y	4	1	1714	2	9
834	__GL_glDrawData.Text	7	0	1716	4	9
835	__GL_glDrawData.Text.Text_type	1	0	0	1	0
836	__GL_glDrawData.Options	5	1	1720	4	9
837	__GL_glSettings	8	0	4	4	12
838	__GL_glSettings.cullMode	1	1	1724	1	12
839	__GL_glSettings.circleSize	1	1	1725	1	12
840	__GL_glSettings.camDepth	1	1	1726	1	12
841	__GL_glSettings.zoom	1	1	1727	1	12
842	__protate_7qG2_p_7qG2_000	8	0	4	12	5
843	__protate_7qG2_p_7qG2_000.x	4	1	1728	2	5
844	__protate_7qG2_p_7qG2_000.y	4	1	1730	2	5
845	__protate_7qG2_p_7qG2_000.theta	4	1	1732	2	5
846	__protate_7qG2_p_7qG2_000.prob	10	1	1736	4	5
847	__FReadArgs	8	0	4	12	8
848	__FReadArgs.Result	3	1	1740	2	8
849	__FReadArgs.FileHandle	1	1	1742	1	8
850	__FReadArgs.Buffer	7	0	1744	4	8
851	__FReadArgs.Buffer.Buffer_type	1	0	0	1	0
852	__FReadArgs.Length	5	1	1748	4	8
853	__CLSWArgs1	8	0	4	12	5
854	__CLSWArgs1.Result	2	1	1752	1	5
855	__CLSWArgs1.Port	1	1	1753	1	5
856	__CLSWArgs1.Buffer	7	0	1754	4	5
857	__CLSWArgs1.Buffer.Buffer_type	1	0	0	1	0
858	__CLSWArgs1.ReturnLen	1	1	1756	1	5
859	__GL_glDrawPoint	8	0	3	12	3
860	__GL_glDrawPoint.Result	2	1	1760	1	3
861	__GL_glDrawPoint.Location	8	0	2	4	3
862	__GL_glDrawPoint.Location.X	4	1	1764	2	3
863	__GL_glDrawPoint.Location.Y	4	1	1766	2	3
864	__GL_glDrawPoint.Options	5	1	1768	4	3
865	__GL_glDrawLine	8	0	4	16	7
866	__GL_glDrawLine.Result	2	1	1772	1	7
867	__GL_glDrawLine.StartLoc	8	0	2	4	7
868	__GL_glDrawLine.StartLoc.X	4	1	1776	2	7
869	__GL_glDrawLine.StartLoc.Y	4	1	1778	2	7
870	__GL_glDrawLine.EndLoc	8	0	2	4	7
871	__GL_glDrawLine.EndLoc.X	4	1	1780	2	7
872	__GL_glDrawLine.EndLoc.Y	4	1	1782	2	7
873	__GL_glDrawLine.Options	5	1	1784	4	7
874	__GL_glDrawCircle	8	0	4	16	4
875	__GL_glDrawCircle.Result	2	1	1788	1	4
876	__GL_glDrawCircle.Center	8	0	2	4	4
877	__GL_glDrawCircle.Center.X	4	1	1792	2	4
878	__GL_glDrawCircle.Center.Y	4	1	1794	2	4
879	__GL_glDrawCircle.Size	1	1	1796	1	4
880	__GL_glDrawCircle.Options	5	1	1800	4	4
881	__CLSRArgs1	8	0	4	12	5
882	__CLSRArgs1.Result	2	1	1804	1	5
883	__CLSRArgs1.Port	1	1	1805	1	5
884	__CLSRArgs1.Buffer	7	0	1806	4	5
885	__CLSRArgs1.Buffer.Buffer_type	1	0	0	1	0
886	__CLSRArgs1.BufferLen	1	1	1808	1	5
887	__result_sort	8	0	4	12	1
888	__result_sort.x	4	1	1812	2	1
889	__result_sort.y	4	1	1814	2	1
890	__result_sort.theta	4	1	1816	2	1
891	__result_sort.prob	10	1	1820	4	1
892	__frsFReadArgs	8	0	4	12	7
893	__frsFReadArgs.Result	3	1	1824	2	7
894	__frsFReadArgs.FileHandle	1	1	1826	1	7
895	__frsFReadArgs.Buffer	7	0	1828	4	7
896	__frsFReadArgs.Buffer.Buffer_type	1	0	0	1	0
897	__frsFReadArgs.Length	5	1	1832	4	7
898	__frsFWriteArgs	8	0	4	12	5
899	__frsFWriteArgs.Result	3	1	1836	2	5
900	__frsFWriteArgs.FileHandle	1	1	1838	1	5
901	__frsFWriteArgs.Buffer	7	0	1840	4	5
902	__frsFWriteArgs.Buffer.Buffer_type	1	0	0	1	0
903	__frsFWriteArgs.Length	5	1	1844	4	5
904	__GL_vertex0	8	0	3	20	196
905	__GL_vertex0.orig	8	0	3	8	196
906	__GL_vertex0.orig.x	4	1	1848	2	196
907	__GL_vertex0.orig.y	4	1	1850	2	196
908	__GL_vertex0.orig.z	4	1	1852	2	196
909	__GL_vertex0.rot	8	0	3	8	196
910	__GL_vertex0.rot.x	4	1	1856	2	196
911	__GL_vertex0.rot.y	4	1	1858	2	196
912	__GL_vertex0.rot.z	4	1	1860	2	196
913	__GL_vertex0.screen	8	0	2	4	196
914	__GL_vertex0.screen.x	4	1	1864	2	196
915	__GL_vertex0.screen.y	4	1	1866	2	196
916	__frsFOReadArgs	8	0	4	12	7
917	__frsFOReadArgs.Result	3	1	1868	2	7
918	__frsFOReadArgs.FileHandle	1	1	1870	1	7
919	__frsFOReadArgs.Filename	7	0	1872	4	7
920	__frsFOReadArgs.Filename.Filename_type	1	0	0	1	0
921	__frsFOReadArgs.Length	5	1	1876	4	7
922	__frsFOWriteArgs	8	0	4	12	6
923	__frsFOWriteArgs.Result	3	1	1880	2	6
924	__frsFOWriteArgs.FileHandle	1	1	1882	1	6
925	__frsFOWriteArgs.Filename	7	0	1884	4	6
926	__frsFOWriteArgs.Filename.Filename_type	1	0	0	1	0
927	__frsFOWriteArgs.Length	5	1	1888	4	6
928	__frsFRArgs	8	0	3	12	9
929	__frsFRArgs.Result	3	1	1892	2	9
930	__frsFRArgs.OldFilename	7	0	1894	4	9
931	__frsFRArgs.OldFilename.OldFilename_type	1	0	0	1	0
932	__frsFRArgs.NewFilename	7	0	1896	4	9
933	__frsFRArgs.NewFilename.NewFilename_type	1	0	0	1	0
934	__sort_7qG2_current_7qG2_000	8	0	4	12	4
935	__sort_7qG2_current_7qG2_000.x	4	1	1900	2	4
936	__sort_7qG2_current_7qG2_000.y	4	1	1902	2	4
937	__sort_7qG2_current_7qG2_000.theta	4	1	1904	2	4
938	__sort_7qG2_current_7qG2_000.prob	10	1	1908	4	4
939	___pmove_7qG2_p_7qG2_000	8	0	4	12	12
940	___pmove_7qG2_p_7qG2_000.x	4	1	1912	2	12
941	___pmove_7qG2_p_7qG2_000.y	4	1	1914	2	12
942	___pmove_7qG2_p_7qG2_000.theta	4	1	1916	2	12
943	___pmove_7qG2_p_7qG2_000.prob	10	1	1920	4	12
944	__update_probability_7qG2_p_7qG2_000	8	0	4	12	4
945	__update_probability_7qG2_p_7qG2_000.x	4	1	1924	2	4
946	__update_probability_7qG2_p_7qG2_000.y	4	1	1926	2	4
947	__update_probability_7qG2_p_7qG2_000.theta	4	1	1928	2	4
948	__update_probability_7qG2_p_7qG2_000.prob	10	1	1932	4	4
949	__frsFCArgs	8	0	2	4	6
950	__frsFCArgs.Result	3	1	1936	2	6
951	__frsFCArgs.FileHandle	1	1	1938	1	6
952	__frsFDArgs	8	0	2	8	2
953	__frsFDArgs.Result	3	1	1940	2	2
954	__frsFDArgs.Filename	7	0	1942	4	2
955	__frsFDArgs.Filename.Filename_type	1	0	0	1	0
956	__ArrHelper__find_max_pparticle_219_0	8	0	4	12	10
957	__ArrHelper__find_max_pparticle_219_0.x	4	1	1944	2	10
958	__ArrHelper__find_max_pparticle_219_0.y	4	1	1946	2	10
959	__ArrHelper__find_max_pparticle_219_0.theta	4	1	1948	2	10
960	__ArrHelper__find_max_pparticle_219_0.prob	10	1	1952	4	10
961	____main_7qG2_map_7qG2_000_0	8	0	4	8	1
962	____main_7qG2_map_7qG2_000_0.NE	4	1	1956	2	1
963	____main_7qG2_map_7qG2_000_0.SE	4	1	1958	2	1
964	____main_7qG2_map_7qG2_000_0.SW	4	1	1960	2	1
965	____main_7qG2_map_7qG2_000_0.NW	4	1	1962	2	1
966	__CLSRArgs3	8	0	4	12	5
967	__CLSRArgs3.Result	2	1	1964	1	5
968	__CLSRArgs3.Port	1	1	1965	1	5
969	__CLSRArgs3.Buffer	7	0	1966	4	5
970	__CLSRArgs3.Buffer.Buffer_type	1	0	0	1	0
971	__CLSRArgs3.BufferLen	1	1	1968	1	5
972	p_max	8	0	4	12	12
973	p_max.x	4	1	1972	2	12
974	p_max.y	4	1	1974	2	12
975	p_max.theta	4	1	1976	2	12
976	p_max.prob	10	1	1980	4	12
977	__GL_polygon	8	0	5	8	60
978	__GL_polygon.beginMode	1	1	1984	1	60
979	__GL_polygon.firstVertex	1	1	1985	1	60
980	__GL_polygon.lastVertex	1	1	1986	1	60
981	__GL_polygon.firstLine	1	1	1987	1	60
982	__GL_polygon.lastLine	1	1	1988	1	60
983	__result_update_probability	8	0	4	12	2
984	__result_update_probability.x	4	1	1992	2	2
985	__result_update_probability.y	4	1	1994	2	2
986	__result_update_probability.theta	4	1	1996	2	2
987	__result_update_probability.prob	10	1	2000	4	2
988	__result_protate_all	8	0	4	12	1
989	__result_protate_all.x	4	1	2004	2	1
990	__result_protate_all.y	4	1	2006	2	1
991	__result_protate_all.theta	4	1	2008	2	1
992	__result_protate_all.prob	10	1	2012	4	1
993	__main_7qG2_p_inter_7qG2_000	8	0	4	8	5
994	__main_7qG2_p_inter_7qG2_000.NE	4	1	2016	2	5
995	__main_7qG2_p_inter_7qG2_000.SE	4	1	2018	2	5
996	__main_7qG2_p_inter_7qG2_000.SW	4	1	2020	2	5
997	__main_7qG2_p_inter_7qG2_000.NW	4	1	2022	2	5
998	__CLSRArgs2	8	0	4	12	5
999	__CLSRArgs2.Result	2	1	2024	1	5
1000	__CLSRArgs2.Port	1	1	2025	1	5
1001	__CLSRArgs2.Buffer	7	0	2026	4	5
1002	__CLSRArgs2.Buffer.Buffer_type	1	0	0	1	0
1003	__CLSRArgs2.BufferLen	1	1	2028	1	5
1004	__GL_object	8	0	11	16	45
1005	__GL_object.firstVertex	1	1	2032	1	45
1006	__GL_object.lastVertex	1	1	2033	1	45
1007	__GL_object.firstPolygon	1	1	2034	1	45
1008	__GL_object.lastPolygon	1	1	2035	1	45
1009	__GL_object.firstLine	1	1	2036	1	45
1010	__GL_object.lastLine	1	1	2037	1	45
1011	__GL_object.render	1	1	2038	1	45
1012	__GL_object.circleSize	1	1	2039	1	45
1013	__GL_object.cullMode	1	1	2040	1	45
1014	__GL_object.actionCount	1	1	2041	1	45
1015	__GL_object.actionList	7	0	2042	4	45
1016	__GL_object.actionList.actionList_type	1	0	0	1	0
1017	__GL_objectAction	8	0	4	8	34
1018	__GL_objectAction.type	1	1	2044	1	34
1019	__GL_objectAction.value	4	1	2046	2	34
1020	__GL_objectAction.lsin	4	1	2048	2	34
1021	__GL_objectAction.lcos	4	1	2050	2	34
1022	__main_7qG2_building_7qG2_000	8	0	4	8	5
1023	__main_7qG2_building_7qG2_000.NE	4	1	2052	2	5
1024	__main_7qG2_building_7qG2_000.SE	4	1	2054	2	5
1025	__main_7qG2_building_7qG2_000.SW	4	1	2056	2	5
1026	__main_7qG2_building_7qG2_000.NW	4	1	2058	2	5
1027	__result_protate	8	0	4	12	3
1028	__result_protate.x	4	1	2060	2	3
1029	__result_protate.y	4	1	2062	2	3
1030	__result_protate.theta	4	1	2064	2	3
1031	__result_protate.prob	10	1	2068	4	3
1032	__TextOutArgs	8	0	4	16	36
1033	__TextOutArgs.Result	2	1	2072	1	36
1034	__TextOutArgs.Location	8	0	2	4	36
1035	__TextOutArgs.Location.X	4	1	2076	2	36
1036	__TextOutArgs.Location.Y	4	1	2078	2	36
1037	__TextOutArgs.Text	7	0	2080	4	36
1038	__TextOutArgs.Text.Text_type	1	0	0	1	0
1039	__TextOutArgs.Options	5	1	2084	4	36
1040	__gRCXCmd	8	0	5	12	40
1041	__gRCXCmd.Port	1	1	2088	1	40
1042	__gRCXCmd.Address	1	1	2089	1	40
1043	__gRCXCmd.ResponseBytes	1	1	2090	1	40
1044	__gRCXCmd.Command	7	0	2092	4	40
1045	__gRCXCmd.Command.Command_type	1	0	0	1	0
1046	__gRCXCmd.Response	7	0	2094	4	40
1047	__gRCXCmd.Response.Response_type	1	0	0	1	0
1048	__ArrHelper__mainintersection_219_0	8	0	4	8	14
1049	__ArrHelper__mainintersection_219_0.NE	4	1	2096	2	14
1050	__ArrHelper__mainintersection_219_0.SE	4	1	2098	2	14
1051	__ArrHelper__mainintersection_219_0.SW	4	1	2100	2	14
1052	__ArrHelper__mainintersection_219_0.NW	4	1	2102	2	14
1053	__WDSC_lswArgs	8	0	4	12	4
1054	__WDSC_lswArgs.Result	2	1	2104	1	4
1055	__WDSC_lswArgs.Port	1	1	2105	1	4
1056	__WDSC_lswArgs.Buffer	7	0	2106	4	4
1057	__WDSC_lswArgs.Buffer.Buffer_type	1	0	0	1	0
1058	__WDSC_lswArgs.ReturnLen	1	1	2108	1	4
1059	__CLSWArgs3	8	0	4	12	5
1060	__CLSWArgs3.Result	2	1	2112	1	5
1061	__CLSWArgs3.Port	1	1	2113	1	5
1062	__CLSWArgs3.Buffer	7	0	2114	4	5
1063	__CLSWArgs3.Buffer.Buffer_type	1	0	0	1	0
1064	__CLSWArgs3.ReturnLen	1	1	2116	1	5
1065	__ArrHelper__update_intersection_probabilityparticle_219_0	8	0	4	12	8
1066	__ArrHelper__update_intersection_probabilityparticle_219_0.x	4	1	2120	2	8
1067	__ArrHelper__update_intersection_probabilityparticle_219_0.y	4	1	2122	2	8
1068	__ArrHelper__update_intersection_probabilityparticle_219_0.theta	4	1	2124	2	8
1069	__ArrHelper__update_intersection_probabilityparticle_219_0.prob	10	1	2128	4	8
1070	__ArrHelper__sortparticle_219_0	8	0	4	12	16
1071	__ArrHelper__sortparticle_219_0.x	4	1	2132	2	16
1072	__ArrHelper__sortparticle_219_0.y	4	1	2134	2	16
1073	__ArrHelper__sortparticle_219_0.theta	4	1	2136	2	16
1074	__ArrHelper__sortparticle_219_0.prob	10	1	2140	4	16
1075	__ArrHelper__mainparticle_219_0	8	0	4	12	68
1076	__ArrHelper__mainparticle_219_0.x	4	1	2144	2	68
1077	__ArrHelper__mainparticle_219_0.y	4	1	2146	2	68
1078	__ArrHelper__mainparticle_219_0.theta	4	1	2148	2	68
1079	__ArrHelper__mainparticle_219_0.prob	10	1	2152	4	68
1080	__CLSCSArgs3	8	0	3	4	4
1081	__CLSCSArgs3.Result	2	1	2156	1	4
1082	__CLSCSArgs3.Port	1	1	2157	1	4
1083	__CLSCSArgs3.BytesReady	1	1	2158	1	4
1084	__list_0	8	0	4	12	1
1085	__list_0.x	4	1	2160	2	1
1086	__list_0.y	4	1	2162	2	1
1087	__list_0.theta	4	1	2164	2	1
1088	__list_0.prob	10	1	2168	4	1
1089	__result__pmove	8	0	4	12	3
1090	__result__pmove.x	4	1	2172	2	3
1091	__result__pmove.y	4	1	2174	2	3
1092	__result__pmove.theta	4	1	2176	2	3
1093	__result__pmove.prob	10	1	2180	4	3
1094	__PlayTones_7qG2_tmp_7qG2_002	8	0	2	4	4
1095	__PlayTones_7qG2_tmp_7qG2_002.Frequency	3	1	2184	2	4
1096	__PlayTones_7qG2_tmp_7qG2_002.Duration	3	1	2186	2	4
1097	__OUT_BC	7	0	2188	4	5
1098	__OUT_BC.__OUT_BC_type	1	0	0	1	0
1099	__OUT_ABC	7	0	2190	4	1
1100	__OUT_ABC.__OUT_ABC_type	1	0	0	1	0
1101	__constStr0009	7	0	2192	4	1
1102	__constStr0009.__constStr0009_type	1	1	0	1	0
1103	__fgets_7qG2_str_7qG2_000_inline_main	7	0	2194	4	12
1104	__fgets_7qG2_str_7qG2_000_inline_main.__fgets_7qG2_str_7qG2_000_inline_main_type	1	0	0	1	0
1105	__GL_objectData	7	0	2196	4	14
1106	__GL_objectData.__GL_objectData_type	8	0	11	16	0
1107	__GL_objectData.__GL_objectData_type.firstVertex	1	0	0	1	0
1108	__GL_objectData.__GL_objectData_type.lastVertex	1	0	1	1	0
1109	__GL_objectData.__GL_objectData_type.firstPolygon	1	0	2	1	0
1110	__GL_objectData.__GL_objectData_type.lastPolygon	1	0	3	1	0
1111	__GL_objectData.__GL_objectData_type.firstLine	1	0	4	1	0
1112	__GL_objectData.__GL_objectData_type.lastLine	1	0	5	1	0
1113	__GL_objectData.__GL_objectData_type.render	1	0	6	1	0
1114	__GL_objectData.__GL_objectData_type.circleSize	1	0	7	1	0
1115	__GL_objectData.__GL_objectData_type.cullMode	1	0	8	1	0
1116	__GL_objectData.__GL_objectData_type.actionCount	1	0	9	1	0
1117	__GL_objectData.__GL_objectData_type.actionList	7	0	10	4	0
1118	__GL_objectData.__GL_objectData_type.actionList.actionList_type	1	0	0	1	0
1119	__rotate_ports2	7	0	2198	4	7
1120	__rotate_ports2.__rotate_ports2_type	1	0	0	1	0
1121	__OUT_AB	7	0	2200	4	1
1122	__OUT_AB.__OUT_AB_type	1	0	0	1	0
1123	__sort_7qG2_p_7qG2_000	7	0	2202	4	17
1124	__sort_7qG2_p_7qG2_000.__sort_7qG2_p_7qG2_000_type	8	0	4	12	0
1125	__sort_7qG2_p_7qG2_000.__sort_7qG2_p_7qG2_000_type.x	4	0	0	2	0
1126	__sort_7qG2_p_7qG2_000.__sort_7qG2_p_7qG2_000_type.y	4	0	2	2	0
1127	__sort_7qG2_p_7qG2_000.__sort_7qG2_p_7qG2_000_type.theta	4	0	4	2	0
1128	__sort_7qG2_p_7qG2_000.__sort_7qG2_p_7qG2_000_type.prob	10	0	8	4	0
1129	__rotate_ports0	7	0	2204	4	5
1130	__rotate_ports0.__rotate_ports0_type	1	0	0	1	0
1131	__PFBytes	7	0	2206	4	5
1132	__PFBytes.__PFBytes_type	1	0	0	1	0
1133	__OUT_AC	7	0	2208	4	1
1134	__OUT_AC.__OUT_AC_type	1	0	0	1	0
1135	__GL_buffer	7	0	2210	4	1
1136	__GL_buffer.__GL_buffer_type	1	0	0	1	0
1137	__sin_table	7	0	2212	4	4
1138	__sin_table.__sin_table_type	4	0	0	2	0
1139	__main_7qG2_map_7qG2_000	7	0	2214	4	14
1140	__main_7qG2_map_7qG2_000.__main_7qG2_map_7qG2_000_type	8	0	4	8	0
1141	__main_7qG2_map_7qG2_000.__main_7qG2_map_7qG2_000_type.NE	4	0	0	2	0
1142	__main_7qG2_map_7qG2_000.__main_7qG2_map_7qG2_000_type.SE	4	0	2	2	0
1143	__main_7qG2_map_7qG2_000.__main_7qG2_map_7qG2_000_type.SW	4	0	4	2	0
1144	__main_7qG2_map_7qG2_000.__main_7qG2_map_7qG2_000_type.NW	4	0	6	2	0
1145	__HTPFBits	7	0	2216	4	8
1146	__HTPFBits.__HTPFBits_type	1	0	0	1	0
1147	__GL_lineData	7	0	2218	4	6
1148	__GL_lineData.__GL_lineData_type	8	0	2	4	0
1149	__GL_lineData.__GL_lineData_type.firstVertex	1	0	0	1	0
1150	__GL_lineData.__GL_lineData_type.lastVertex	1	0	1	1	0
1151	__main_7qG2_psense_7qG2_000	7	0	2220	4	1
1152	__main_7qG2_psense_7qG2_000.__main_7qG2_psense_7qG2_000_type	4	0	0	2	0
1153	__main_7qG2_guess_7qG2_000	7	0	2222	4	1
1154	__main_7qG2_guess_7qG2_000.__main_7qG2_guess_7qG2_000_type	4	0	0	2	0
1155	__GL_polygonData	7	0	2224	4	4
1156	__GL_polygonData.__GL_polygonData_type	8	0	5	8	0
1157	__GL_polygonData.__GL_polygonData_type.beginMode	1	0	0	1	0
1158	__GL_polygonData.__GL_polygonData_type.firstVertex	1	0	1	1	0
1159	__GL_polygonData.__GL_polygonData_type.lastVertex	1	0	2	1	0
1160	__GL_polygonData.__GL_polygonData_type.firstLine	1	0	3	1	0
1161	__GL_polygonData.__GL_polygonData_type.lastLine	1	0	4	1	0
1162	__GL_lineDone	7	0	2226	4	7
1163	__GL_lineDone.__GL_lineDone_type	1	0	0	1	0
1164	__HTPFI2CBuf	7	0	2228	4	1
1165	__HTPFI2CBuf.__HTPFI2CBuf_type	1	0	0	1	0
1166	__orient_7qG2_new_intersection_7qG2_000	7	0	2230	4	7
1167	__orient_7qG2_new_intersection_7qG2_000.__orient_7qG2_new_intersection_7qG2_000_type	4	0	0	2	0
1168	__rotate_ports1	7	0	2232	4	7
1169	__rotate_ports1.__rotate_ports1_type	1	0	0	1	0
1170	__main_7qG2_line_7qG2_000	7	0	2234	4	11
1171	__main_7qG2_line_7qG2_000.__main_7qG2_line_7qG2_000_type	1	0	0	1	0
1172	__strbuffgets_inline_main	7	0	2236	4	6
1173	__strbuffgets_inline_main.__strbuffgets_inline_main_type	1	0	0	1	0
1174	__GL_vertexData	7	0	2238	4	19
1175	__GL_vertexData.__GL_vertexData_type	8	0	3	20	0
1176	__GL_vertexData.__GL_vertexData_type.orig	8	0	3	8	0
1177	__GL_vertexData.__GL_vertexData_type.orig.x	4	0	0	2	0
1178	__GL_vertexData.__GL_vertexData_type.orig.y	4	0	2	2	0
1179	__GL_vertexData.__GL_vertexData_type.orig.z	4	0	4	2	0
1180	__GL_vertexData.__GL_vertexData_type.rot	8	0	3	8	0
1181	__GL_vertexData.__GL_vertexData_type.rot.x	4	0	8	2	0
1182	__GL_vertexData.__GL_vertexData_type.rot.y	4	0	10	2	0
1183	__GL_vertexData.__GL_vertexData_type.rot.z	4	0	12	2	0
1184	__GL_vertexData.__GL_vertexData_type.screen	8	0	2	4	0
1185	__GL_vertexData.__GL_vertexData_type.screen.x	4	0	16	2	0
1186	__GL_vertexData.__GL_vertexData_type.screen.y	4	0	18	2	0
1187	__HTPFStartIRLink	7	0	2240	4	1
1188	__HTPFStartIRLink.__HTPFStartIRLink_type	1	0	0	1	0
1189	__GL_objectActionData	7	0	2242	4	4
1190	__GL_objectActionData.__GL_objectActionData_type	8	0	4	8	0
1191	__GL_objectActionData.__GL_objectActionData_type.type	1	0	0	1	0
1192	__GL_objectActionData.__GL_objectActionData_type.value	4	0	2	2	0
1193	__GL_objectActionData.__GL_objectActionData_type.lsin	4	0	4	2	0
1194	__GL_objectActionData.__GL_objectActionData_type.lcos	4	0	6	2	0
1195	__HTPFCommitIRLink	7	0	2244	4	3
1196	__HTPFCommitIRLink.__HTPFCommitIRLink_type	1	0	0	1	0
1197	__GL_pvData	7	0	2246	4	10
1198	__GL_pvData.__GL_pvData_type	1	0	0	1	0
1199	__sqrtPairs	7	0	2248	4	14
1200	__sqrtPairs.__sqrtPairs_type	1	0	0	1	0
1201	__GL_plData	7	0	2250	4	5
1202	__GL_plData.__GL_plData_type	1	0	0	1	0
1203	__asin_table	7	0	2252	4	2
1204	__asin_table.__asin_table_type	6	0	0	4	0
1205	__GL_glRangeErrorMsg	7	0	2254	4	6
1206	__GL_glRangeErrorMsg.__GL_glRangeErrorMsg_type	1	0	0	1	0
1207	__RLSReadBuf1	7	0	2256	4	6
1208	__RLSReadBuf1.__RLSReadBuf1_type	1	0	0	1	0
1209	__RCSHeaderMsg	7	0	2258	4	3
1210	__RCSHeaderMsg.__RCSHeaderMsg_type	1	0	0	1	0
1211	__RLSLastGoodRead2	7	0	2260	4	2
1212	__RLSLastGoodRead2.__RLSLastGoodRead2_type	1	0	0	1	0
1213	__RLSLastGoodRead0	7	0	2262	4	2
1214	__RLSLastGoodRead0.__RLSLastGoodRead0_type	1	0	0	1	0
1215	__GraphicOutEmptyVars	7	0	2264	4	1
1216	__GraphicOutEmptyVars.__GraphicOutEmptyVars_type	6	0	0	4	0
1217	__strbuffopen	7	0	2266	4	4
1218	__strbuffopen.__strbuffopen_type	1	0	0	1	0
1219	__RLSBbufRFIDInit	7	0	2268	4	1
1220	__RLSBbufRFIDInit.__RLSBbufRFIDInit_type	1	0	0	1	0
1221	__RFIDCont_Output	7	0	2270	4	1
1222	__RFIDCont_Output.__RFIDCont_Output_type	1	0	0	1	0
1223	__WDSC_WriteBytes	7	0	2272	4	9
1224	__WDSC_WriteBytes.__WDSC_WriteBytes_type	1	0	0	1	0
1225	__PFToggles	7	0	2274	4	3
1226	__PFToggles.__PFToggles_type	1	0	0	1	0
1227	__RLSBbufRFIDData	7	0	2276	4	1
1228	__RLSBbufRFIDData.__RLSBbufRFIDData_type	1	0	0	1	0
1229	__RCToggles	7	0	2278	4	3
1230	__RCToggles.__RCToggles_type	1	0	0	1	0
1231	__RLSReadBuf2	7	0	2280	4	6
1232	__RLSReadBuf2.__RLSReadBuf2_type	1	0	0	1	0
1233	__RLSLastGoodRead1	7	0	2282	4	2
1234	__RLSLastGoodRead1.__RLSLastGoodRead1_type	1	0	0	1	0
1235	__constStr0008	7	0	2284	4	1
1236	__constStr0008.__constStr0008_type	1	1	0	1	0
1237	__RLSReadBuf0	7	0	2286	4	6
1238	__RLSReadBuf0.__RLSReadBuf0_type	1	0	0	1	0
1239	colours	7	0	2288	4	26
1240	colours.colours_type	4	0	0	2	0
1241	__RCSInCmd	7	0	2290	4	26
1242	__RCSInCmd.__RCSInCmd_type	1	0	0	1	0
1243	__constStr0006	7	0	2292	4	2
1244	__constStr0006.__constStr0006_type	1	1	0	1	0
1245	__constStr0007	7	0	2294	4	1
1246	__constStr0007.__constStr0007_type	1	1	0	1	0
1247	list	7	0	2296	4	88
1248	list.list_type	8	0	4	12	0
1249	list.list_type.x	4	0	0	2	0
1250	list.list_type.y	4	0	2	2	0
1251	list.list_type.theta	4	0	4	2	0
1252	list.list_type.prob	10	0	8	4	0
1253	__strbufmain	7	0	2298	4	14
1254	__strbufmain.__strbufmain_type	1	0	0	1	0
1255	__colour_7qG2_scans_7qG2_000	7	0	2300	4	6
1256	__colour_7qG2_scans_7qG2_000.__colour_7qG2_scans_7qG2_000_type	4	0	0	2	0
1257	__colour_7qG2_pitch_7qG2_000	7	0	2302	4	2
1258	__colour_7qG2_pitch_7qG2_000.__colour_7qG2_pitch_7qG2_000_type	4	0	0	2	0
1259	__fopen_7qG2_mode_7qG2_000	7	0	2304	4	2
1260	__fopen_7qG2_mode_7qG2_000.__fopen_7qG2_mode_7qG2_000_type	1	0	0	1	0
1261	__fopen_7qG2_filename_7qG2_000	7	0	2306	4	4
1262	__fopen_7qG2_filename_7qG2_000.__fopen_7qG2_filename_7qG2_000_type	1	0	0	1	0
1263	__strretvalmain	7	0	2308	4	3
1264	__strretvalmain.__strretvalmain_type	1	0	0	1	0
1265	__constStr0003	7	0	2310	4	1
1266	__constStr0003.__constStr0003_type	1	1	0	1	0
1267	__constStr0002	7	0	2312	4	1
1268	__constStr0002.__constStr0002_type	1	1	0	1	0
1269	__rotate_ports3	7	0	2314	4	5
1270	__rotate_ports3.__rotate_ports3_type	1	0	0	1	0
1271	__MSRCSInCmd	7	0	2316	4	22
1272	__MSRCSInCmd.__MSRCSInCmd_type	1	0	0	1	0
1273	__MSRCSTmpBuf	7	0	2318	4	8
1274	__MSRCSTmpBuf.__MSRCSTmpBuf_type	1	0	0	1	0
1275	__constStr0004	7	0	2320	4	2
1276	__constStr0004.__constStr0004_type	1	1	0	1	0
1277	__constStr0000	7	0	2322	4	1
1278	__constStr0000.__constStr0000_type	1	1	0	1	0
1279	__RLSOutput	7	0	2324	4	6
1280	__RLSOutput.__RLSOutput_type	1	0	0	1	0
1281	__GL_SIN_TABLE	7	0	2326	4	6
1282	__GL_SIN_TABLE.__GL_SIN_TABLE_type	4	0	0	2	0
1283	__GL_glErrorMsg	7	0	2328	4	2
1284	__GL_glErrorMsg.__GL_glErrorMsg_type	1	0	0	1	0
1285	__constStr0001	7	0	2330	4	1
1286	__constStr0001.__constStr0001_type	1	1	0	1	0
1287	__protate_all_7qG2_p_7qG2_000	7	0	2332	4	4
1288	__protate_all_7qG2_p_7qG2_000.__protate_all_7qG2_p_7qG2_000_type	8	0	4	12	0
1289	__protate_all_7qG2_p_7qG2_000.__protate_all_7qG2_p_7qG2_000_type.x	4	0	0	2	0
1290	__protate_all_7qG2_p_7qG2_000.__protate_all_7qG2_p_7qG2_000_type.y	4	0	2	2	0
1291	__protate_all_7qG2_p_7qG2_000.__protate_all_7qG2_p_7qG2_000_type.theta	4	0	4	2	0
1292	__protate_all_7qG2_p_7qG2_000.__protate_all_7qG2_p_7qG2_000_type.prob	10	0	8	4	0
1293	__RLSBuffer	7	0	2334	4	2
1294	__RLSBuffer.__RLSBuffer_type	1	0	0	1	0
1295	__frsOldName	7	0	2336	4	4
1296	__frsOldName.__frsOldName_type	1	0	0	1	0
1297	__rotate_ports5	7	0	2338	4	9
1298	__rotate_ports5.__rotate_ports5_type	1	0	0	1	0
1299	__RLSLastGoodReadVar	7	0	2340	4	2
1300	__RLSLastGoodReadVar.__RLSLastGoodReadVar_type	1	0	0	1	0
1301	__Pos_s1	7	0	2342	4	2
1302	__Pos_s1.__Pos_s1_type	1	0	0	1	0
1303	__RLSLastGoodRead3	7	0	2344	4	2
1304	__RLSLastGoodRead3.__RLSLastGoodRead3_type	1	0	0	1	0
1305	__rotate_ports6	7	0	2346	4	11
1306	__rotate_ports6.__rotate_ports6_type	1	0	0	1	0
1307	__RLSReadBuf3	7	0	2348	4	6
1308	__RLSReadBuf3.__RLSReadBuf3_type	1	0	0	1	0
1309	__Pos_s2	7	0	2350	4	2
1310	__Pos_s2.__Pos_s2_type	1	0	0	1	0
1311	__rotate_ports4	7	0	2352	4	5
1312	__rotate_ports4.__rotate_ports4_type	1	0	0	1	0
1313	__PFNibbles	7	0	2354	4	55
1314	__PFNibbles.__PFNibbles_type	1	0	0	1	0
1315	__constStr0005	7	0	2356	4	1
1316	__constStr0005.__constStr0005_type	1	1	0	1	0
1317	__Pos_tmpstr	7	0	2358	4	2
1318	__Pos_tmpstr.__Pos_tmpstr_type	1	0	0	1	0
1319	__PlayTones_7qG2_tones_7qG2_000	7	0	2360	4	2
1320	__PlayTones_7qG2_tones_7qG2_000.__PlayTones_7qG2_tones_7qG2_000_type	8	0	2	4	0
1321	__PlayTones_7qG2_tones_7qG2_000.__PlayTones_7qG2_tones_7qG2_000_type.Frequency	3	0	0	2	0
1322	__PlayTones_7qG2_tones_7qG2_000.__PlayTones_7qG2_tones_7qG2_000_type.Duration	3	0	2	2	0
1323	__RLSReadBufVar	7	0	2362	4	15
1324	__RLSReadBufVar.__RLSReadBufVar_type	1	0	0	1	0
#SOURCES
Clump	Line	PC	Source
0	720	0	#line 720 "C:\Users\ken\Desktop\C85\pfilter prob.nxc"
0	721	0		subcall __initialize_global_data, ____initialize_global_data_return
0	720	3	#line 720 "C:\Users\ken\Desktop\C85\pfilter prob.nxc"
0	721	3		arrinit __GraphicOutEmptyVars, __constVal0, __constVal256
0	721	7	#line 721 "C:\Users\ken\Desktop\C85\pfilter prob.nxc"
0	722	7		mov __DF0main, __constVal0
0	721	10	#line 721 "C:\Users\ken\Desktop\C85\pfilter prob.nxc"
0	722	10		mov __main_7qG2_robp_7qG2_000, __DF0main
0	723	12	#line 723 "C:\Users\ken\Desktop\C85\pfilter prob.nxc"
0	723	12	#line 723 "C:\Users\ken\Desktop\C85\pfilter prob.nxc"
0	724	12		arrinit __main_7qG2_map_7qG2_000, ____main_7qG2_map_7qG2_000_0, __constVal15
0	726	16	#line 726 "C:\Users\ken\Desktop\C85\pfilter prob.nxc"
0	727	16		arrinit __main_7qG2_guess_7qG2_000, __constVal0, __constVal3
0	728	20	#line 728 "C:\Users\ken\Desktop\C85\pfilter prob.nxc"
0	729	20		arrinit __main_7qG2_psense_7qG2_000, __constVal0, __constVal4
0	737	24	#line 737 "C:\Users\ken\Desktop\C85\pfilter prob.nxc"
0	738	24		set __D0main, 1000
0	737	27	#line 737 "C:\Users\ken\Desktop\C85\pfilter prob.nxc"
0	738	27	#pragma macro 8
0	738	27		acquire __RandomMutex
0	738	28		syscall 24, __RandomArgs
0	738	31		mov __RandomTmp, __RandomArgs.Result
0	738	34		add __RandomTmp, __RandomTmp, __constVal32768
0	738	38		mul __RandomTmp, __RandomTmp, __D0main
0	738	42		div __RandomTmp, __RandomTmp, __constVal65536
0	738	46		mov __D0main, __RandomTmp
0	738	48		release __RandomMutex
0	10385	49	#line 10385 "C:\Users\ken\Desktop\C85\pfilter prob.nxc"
0	737	49	#line 737 "C:\Users\ken\Desktop\C85\pfilter prob.nxc"
0	738	49		mov __signed_stack_001main, __D0main
0	737	51	#line 737 "C:\Users\ken\Desktop\C85\pfilter prob.nxc"
0	738	51		set __D0main, 200
0	737	54	#line 737 "C:\Users\ken\Desktop\C85\pfilter prob.nxc"
0	738	54		add __D0main, __signed_stack_001main, __D0main
0	737	58	#line 737 "C:\Users\ken\Desktop\C85\pfilter prob.nxc"
0	738	58		mov __signed_stack_001main, __D0main
0	737	60	#line 737 "C:\Users\ken\Desktop\C85\pfilter prob.nxc"
0	738	60		set __D0main, 400
0	737	63	#line 737 "C:\Users\ken\Desktop\C85\pfilter prob.nxc"
0	738	63		mov __signed_stack_002main, __D0main
0	737	65	#line 737 "C:\Users\ken\Desktop\C85\pfilter prob.nxc"
0	738	65		set __D0main, 3
0	737	68	#line 737 "C:\Users\ken\Desktop\C85\pfilter prob.nxc"
0	738	68		mov __signed_stack_003main, __D0main
0	737	70	#line 737 "C:\Users\ken\Desktop\C85\pfilter prob.nxc"
0	738	70		set __D0main, 0
0	742	73	#line 742 "C:\Users\ken\Desktop\C85\pfilter prob.nxc"
0	743	73		acquire __SPTArgsMutex
0	742	74	#line 742 "C:\Users\ken\Desktop\C85\pfilter prob.nxc"
0	743	74		mov __SPTArgs.Frequency, __signed_stack_001main
0	742	77	#line 742 "C:\Users\ken\Desktop\C85\pfilter prob.nxc"
0	743	77		mov __SPTArgs.Duration, __signed_stack_002main
0	742	80	#line 742 "C:\Users\ken\Desktop\C85\pfilter prob.nxc"
0	743	80		mov __SPTArgs.Volume, __signed_stack_003main
0	742	83	#line 742 "C:\Users\ken\Desktop\C85\pfilter prob.nxc"
0	743	83		mov __SPTArgs.Loop, __D0main
0	742	86	#line 742 "C:\Users\ken\Desktop\C85\pfilter prob.nxc"
0	743	86		syscall 10, __SPTArgs
0	742	89	#line 742 "C:\Users\ken\Desktop\C85\pfilter prob.nxc"
0	743	89		mov __D0main, __SPTArgs.Result
0	742	92	#line 742 "C:\Users\ken\Desktop\C85\pfilter prob.nxc"
0	743	92		release __SPTArgsMutex
0	742	93	#line 742 "C:\Users\ken\Desktop\C85\pfilter prob.nxc"
0	742	93	#line 742 "C:\Users\ken\Desktop\C85\pfilter prob.nxc"
0	743	93		set __D0main, 0
0	742	96	#line 742 "C:\Users\ken\Desktop\C85\pfilter prob.nxc"
0	743	96		mov __main_7qG2_i_7qG2_000, __D0main
0	742	99	#line 742 "C:\Users\ken\Desktop\C85\pfilter prob.nxc"
0	743	99		mov __D0main, __main_7qG2_i_7qG2_000
0	742	102	#line 742 "C:\Users\ken\Desktop\C85\pfilter prob.nxc"
0	743	102		mov __signed_stack_001main, __D0main
0	742	104	#line 742 "C:\Users\ken\Desktop\C85\pfilter prob.nxc"
0	743	104		set __D0main, 3
0	742	107	#line 742 "C:\Users\ken\Desktop\C85\pfilter prob.nxc"
0	743	107		mov __signed_stack_002main, __D0main
0	742	109	#line 742 "C:\Users\ken\Desktop\C85\pfilter prob.nxc"
0	743	109		set __D0main, 5
0	742	112	#line 742 "C:\Users\ken\Desktop\C85\pfilter prob.nxc"
0	743	112		mul __D0main, __signed_stack_002main, __D0main
0	742	116	#line 742 "C:\Users\ken\Desktop\C85\pfilter prob.nxc"
0	743	116		mov __signed_stack_002main, __D0main
0	742	118	#line 742 "C:\Users\ken\Desktop\C85\pfilter prob.nxc"
0	743	118		set __D0main, 4
0	742	121	#line 742 "C:\Users\ken\Desktop\C85\pfilter prob.nxc"
0	743	121		mul __D0main, __signed_stack_002main, __D0main
0	742	125	#line 742 "C:\Users\ken\Desktop\C85\pfilter prob.nxc"
0	743	125		cmp 0, __zfmain, __signed_stack_001main, __D0main
0	742	129	#line 742 "C:\Users\ken\Desktop\C85\pfilter prob.nxc"
0	743	129		mov __D0main, __zfmain
0	742	132	#line 742 "C:\Users\ken\Desktop\C85\pfilter prob.nxc"
0	743	132		brtst 4, __NXC_Label_1478, __zfmain
0	742	135	#line 742 "C:\Users\ken\Desktop\C85\pfilter prob.nxc"
0	743	135		jmp __NXC_Label_1479
0	742	137	#line 742 "C:\Users\ken\Desktop\C85\pfilter prob.nxc"
0	743	137		mov __D0main, __main_7qG2_i_7qG2_000
0	742	140	#line 742 "C:\Users\ken\Desktop\C85\pfilter prob.nxc"
0	743	140		mov __signed_stack_001main, __D0main
0	742	142	#line 742 "C:\Users\ken\Desktop\C85\pfilter prob.nxc"
0	743	142		set __D0main, 4
0	742	145	#line 742 "C:\Users\ken\Desktop\C85\pfilter prob.nxc"
0	743	145		add __D0main, __signed_stack_001main, __D0main
0	742	149	#line 742 "C:\Users\ken\Desktop\C85\pfilter prob.nxc"
0	743	149		mov __main_7qG2_i_7qG2_000, __D0main
0	743	152	#line 743 "C:\Users\ken\Desktop\C85\pfilter prob.nxc"
0	744	152		jmp __NXC_Label_1477
0	743	154	#line 743 "C:\Users\ken\Desktop\C85\pfilter prob.nxc"
0	744	154		mov __D0main, __main_7qG2_i_7qG2_000
0	743	157	#line 743 "C:\Users\ken\Desktop\C85\pfilter prob.nxc"
0	744	157		mov __signed_stack_001main, __D0main
0	743	159	#line 743 "C:\Users\ken\Desktop\C85\pfilter prob.nxc"
0	744	159		index __ArrHelper__mainparticle_219_0, list, __signed_stack_001main
0	743	163	#line 743 "C:\Users\ken\Desktop\C85\pfilter prob.nxc"
0	744	163		mov __D0main, __main_7qG2_i_7qG2_000
0	743	166	#line 743 "C:\Users\ken\Desktop\C85\pfilter prob.nxc"
0	744	166		mov __signed_stack_002main, __D0main
0	743	168	#line 743 "C:\Users\ken\Desktop\C85\pfilter prob.nxc"
0	744	168		set __D0main, 4
0	743	171	#line 743 "C:\Users\ken\Desktop\C85\pfilter prob.nxc"
0	744	171		div __D0main, __signed_stack_002main, __D0main
0	743	175	#line 743 "C:\Users\ken\Desktop\C85\pfilter prob.nxc"
0	744	175		mov __signed_stack_002main, __D0main
0	744	177	#line 744 "C:\Users\ken\Desktop\C85\pfilter prob.nxc"
0	745	177		set __D0main, 3
0	744	180	#line 744 "C:\Users\ken\Desktop\C85\pfilter prob.nxc"
0	745	180		mod __D0main, __signed_stack_002main, __D0main
0	744	184	#line 744 "C:\Users\ken\Desktop\C85\pfilter prob.nxc"
0	745	184		mov __ArrHelper__mainparticle_219_0.x, __D0main
0	744	187	#line 744 "C:\Users\ken\Desktop\C85\pfilter prob.nxc"
0	745	187		replace list, list, __signed_stack_001main, __ArrHelper__mainparticle_219_0
0	744	192	#line 744 "C:\Users\ken\Desktop\C85\pfilter prob.nxc"
0	744	192	#line 744 "C:\Users\ken\Desktop\C85\pfilter prob.nxc"
0	745	192		mov __D0main, __main_7qG2_i_7qG2_000
0	744	195	#line 744 "C:\Users\ken\Desktop\C85\pfilter prob.nxc"
0	745	195		mov __signed_stack_001main, __D0main
0	744	197	#line 744 "C:\Users\ken\Desktop\C85\pfilter prob.nxc"
0	745	197		index __ArrHelper__mainparticle_219_0, list, __signed_stack_001main
0	744	201	#line 744 "C:\Users\ken\Desktop\C85\pfilter prob.nxc"
0	745	201		mov __D0main, __main_7qG2_i_7qG2_000
0	744	204	#line 744 "C:\Users\ken\Desktop\C85\pfilter prob.nxc"
0	745	204		mov __signed_stack_002main, __D0main
0	744	206	#line 744 "C:\Users\ken\Desktop\C85\pfilter prob.nxc"
0	745	206		set __D0main, 4
0	744	209	#line 744 "C:\Users\ken\Desktop\C85\pfilter prob.nxc"
0	745	209		mov __signed_stack_003main, __D0main
0	744	211	#line 744 "C:\Users\ken\Desktop\C85\pfilter prob.nxc"
0	745	211		set __D0main, 3
0	744	214	#line 744 "C:\Users\ken\Desktop\C85\pfilter prob.nxc"
0	745	214		mul __D0main, __signed_stack_003main, __D0main
0	745	218	#line 745 "C:\Users\ken\Desktop\C85\pfilter prob.nxc"
0	746	218		div __D0main, __signed_stack_002main, __D0main
0	745	222	#line 745 "C:\Users\ken\Desktop\C85\pfilter prob.nxc"
0	746	222		mov __ArrHelper__mainparticle_219_0.y, __D0main
0	745	225	#line 745 "C:\Users\ken\Desktop\C85\pfilter prob.nxc"
0	746	225		replace list, list, __signed_stack_001main, __ArrHelper__mainparticle_219_0
0	745	230	#line 745 "C:\Users\ken\Desktop\C85\pfilter prob.nxc"
0	745	230	#line 745 "C:\Users\ken\Desktop\C85\pfilter prob.nxc"
0	746	230		mov __D0main, __main_7qG2_i_7qG2_000
0	745	233	#line 745 "C:\Users\ken\Desktop\C85\pfilter prob.nxc"
0	746	233		mov __signed_stack_001main, __D0main
0	745	235	#line 745 "C:\Users\ken\Desktop\C85\pfilter prob.nxc"
0	746	235		index __ArrHelper__mainparticle_219_0, list, __signed_stack_001main
0	746	239	#line 746 "C:\Users\ken\Desktop\C85\pfilter prob.nxc"
0	747	239		set __D0main, 0
0	746	242	#line 746 "C:\Users\ken\Desktop\C85\pfilter prob.nxc"
0	747	242		mov __ArrHelper__mainparticle_219_0.theta, __D0main
0	746	245	#line 746 "C:\Users\ken\Desktop\C85\pfilter prob.nxc"
0	747	245		replace list, list, __signed_stack_001main, __ArrHelper__mainparticle_219_0
0	746	250	#line 746 "C:\Users\ken\Desktop\C85\pfilter prob.nxc"
0	746	250	#line 746 "C:\Users\ken\Desktop\C85\pfilter prob.nxc"
0	747	250		mov __D0main, __main_7qG2_i_7qG2_000
0	746	253	#line 746 "C:\Users\ken\Desktop\C85\pfilter prob.nxc"
0	747	253		mov __signed_stack_001main, __D0main
0	746	255	#line 746 "C:\Users\ken\Desktop\C85\pfilter prob.nxc"
0	747	255		index __ArrHelper__mainparticle_219_0, list, __signed_stack_001main
0	746	259	#line 746 "C:\Users\ken\Desktop\C85\pfilter prob.nxc"
0	747	259		mov __DF0main, __constVal1
0	746	262	#line 746 "C:\Users\ken\Desktop\C85\pfilter prob.nxc"
0	747	262		mov __float_stack_002main, __DF0main
0	746	264	#line 746 "C:\Users\ken\Desktop\C85\pfilter prob.nxc"
0	747	264		mov __DF0main, __constVal3
0	746	267	#line 746 "C:\Users\ken\Desktop\C85\pfilter prob.nxc"
0	747	267		mov __float_stack_003main, __DF0main
0	746	269	#line 746 "C:\Users\ken\Desktop\C85\pfilter prob.nxc"
0	747	269		mov __DF0main, __constVal5
0	746	272	#line 746 "C:\Users\ken\Desktop\C85\pfilter prob.nxc"
0	747	272		mul __DF0main, __float_stack_003main, __DF0main
0	746	276	#line 746 "C:\Users\ken\Desktop\C85\pfilter prob.nxc"
0	747	276		mov __float_stack_003main, __DF0main
0	746	278	#line 746 "C:\Users\ken\Desktop\C85\pfilter prob.nxc"
0	747	278		mov __DF0main, __constVal4
0	746	281	#line 746 "C:\Users\ken\Desktop\C85\pfilter prob.nxc"
0	747	281		mul __DF0main, __float_stack_003main, __DF0main
0	747	285	#line 747 "C:\Users\ken\Desktop\C85\pfilter prob.nxc"
0	748	285		div __DF0main, __float_stack_002main, __DF0main
0	747	289	#line 747 "C:\Users\ken\Desktop\C85\pfilter prob.nxc"
0	748	289		mov __ArrHelper__mainparticle_219_0.prob, __DF0main
0	747	292	#line 747 "C:\Users\ken\Desktop\C85\pfilter prob.nxc"
0	748	292		replace list, list, __signed_stack_001main, __ArrHelper__mainparticle_219_0
0	747	297	#line 747 "C:\Users\ken\Desktop\C85\pfilter prob.nxc"
0	747	297	#line 747 "C:\Users\ken\Desktop\C85\pfilter prob.nxc"
0	748	297		mov __D0main, __main_7qG2_i_7qG2_000
0	747	300	#line 747 "C:\Users\ken\Desktop\C85\pfilter prob.nxc"
0	748	300		mov __signed_stack_001main, __D0main
0	747	302	#line 747 "C:\Users\ken\Desktop\C85\pfilter prob.nxc"
0	748	302		set __D0main, 1
0	747	305	#line 747 "C:\Users\ken\Desktop\C85\pfilter prob.nxc"
0	748	305		add __D0main, __signed_stack_001main, __D0main
0	747	309	#line 747 "C:\Users\ken\Desktop\C85\pfilter prob.nxc"
0	748	309		mov __signed_stack_001main, __D0main
0	747	311	#line 747 "C:\Users\ken\Desktop\C85\pfilter prob.nxc"
0	748	311		index __ArrHelper__mainparticle_219_0, list, __signed_stack_001main
0	747	315	#line 747 "C:\Users\ken\Desktop\C85\pfilter prob.nxc"
0	748	315		mov __D0main, __main_7qG2_i_7qG2_000
0	747	318	#line 747 "C:\Users\ken\Desktop\C85\pfilter prob.nxc"
0	748	318		mov __signed_stack_002main, __D0main
0	747	320	#line 747 "C:\Users\ken\Desktop\C85\pfilter prob.nxc"
0	748	320		set __D0main, 4
0	747	323	#line 747 "C:\Users\ken\Desktop\C85\pfilter prob.nxc"
0	748	323		div __D0main, __signed_stack_002main, __D0main
0	747	327	#line 747 "C:\Users\ken\Desktop\C85\pfilter prob.nxc"
0	748	327		mov __signed_stack_002main, __D0main
0	748	329	#line 748 "C:\Users\ken\Desktop\C85\pfilter prob.nxc"
0	749	329		set __D0main, 3
0	748	332	#line 748 "C:\Users\ken\Desktop\C85\pfilter prob.nxc"
0	749	332		mod __D0main, __signed_stack_002main, __D0main
0	748	336	#line 748 "C:\Users\ken\Desktop\C85\pfilter prob.nxc"
0	749	336		mov __ArrHelper__mainparticle_219_0.x, __D0main
0	748	339	#line 748 "C:\Users\ken\Desktop\C85\pfilter prob.nxc"
0	749	339		replace list, list, __signed_stack_001main, __ArrHelper__mainparticle_219_0
0	748	344	#line 748 "C:\Users\ken\Desktop\C85\pfilter prob.nxc"
0	748	344	#line 748 "C:\Users\ken\Desktop\C85\pfilter prob.nxc"
0	749	344		mov __D0main, __main_7qG2_i_7qG2_000
0	748	347	#line 748 "C:\Users\ken\Desktop\C85\pfilter prob.nxc"
0	749	347		mov __signed_stack_001main, __D0main
0	748	349	#line 748 "C:\Users\ken\Desktop\C85\pfilter prob.nxc"
0	749	349		set __D0main, 1
0	748	352	#line 748 "C:\Users\ken\Desktop\C85\pfilter prob.nxc"
0	749	352		add __D0main, __signed_stack_001main, __D0main
0	748	356	#line 748 "C:\Users\ken\Desktop\C85\pfilter prob.nxc"
0	749	356		mov __signed_stack_001main, __D0main
0	748	358	#line 748 "C:\Users\ken\Desktop\C85\pfilter prob.nxc"
0	749	358		index __ArrHelper__mainparticle_219_0, list, __signed_stack_001main
0	748	362	#line 748 "C:\Users\ken\Desktop\C85\pfilter prob.nxc"
0	749	362		mov __D0main, __main_7qG2_i_7qG2_000
0	748	365	#line 748 "C:\Users\ken\Desktop\C85\pfilter prob.nxc"
0	749	365		mov __signed_stack_002main, __D0main
0	748	367	#line 748 "C:\Users\ken\Desktop\C85\pfilter prob.nxc"
0	749	367		set __D0main, 4
0	748	370	#line 748 "C:\Users\ken\Desktop\C85\pfilter prob.nxc"
0	749	370		mov __signed_stack_003main, __D0main
0	748	372	#line 748 "C:\Users\ken\Desktop\C85\pfilter prob.nxc"
0	749	372		set __D0main, 3
0	748	375	#line 748 "C:\Users\ken\Desktop\C85\pfilter prob.nxc"
0	749	375		mul __D0main, __signed_stack_003main, __D0main
0	749	379	#line 749 "C:\Users\ken\Desktop\C85\pfilter prob.nxc"
0	750	379		div __D0main, __signed_stack_002main, __D0main
0	749	383	#line 749 "C:\Users\ken\Desktop\C85\pfilter prob.nxc"
0	750	383		mov __ArrHelper__mainparticle_219_0.y, __D0main
0	749	386	#line 749 "C:\Users\ken\Desktop\C85\pfilter prob.nxc"
0	750	386		replace list, list, __signed_stack_001main, __ArrHelper__mainparticle_219_0
0	749	391	#line 749 "C:\Users\ken\Desktop\C85\pfilter prob.nxc"
0	749	391	#line 749 "C:\Users\ken\Desktop\C85\pfilter prob.nxc"
0	750	391		mov __D0main, __main_7qG2_i_7qG2_000
0	749	394	#line 749 "C:\Users\ken\Desktop\C85\pfilter prob.nxc"
0	750	394		mov __signed_stack_001main, __D0main
0	749	396	#line 749 "C:\Users\ken\Desktop\C85\pfilter prob.nxc"
0	750	396		set __D0main, 1
0	749	399	#line 749 "C:\Users\ken\Desktop\C85\pfilter prob.nxc"
0	750	399		add __D0main, __signed_stack_001main, __D0main
0	749	403	#line 749 "C:\Users\ken\Desktop\C85\pfilter prob.nxc"
0	750	403		mov __signed_stack_001main, __D0main
0	749	405	#line 749 "C:\Users\ken\Desktop\C85\pfilter prob.nxc"
0	750	405		index __ArrHelper__mainparticle_219_0, list, __signed_stack_001main
0	750	409	#line 750 "C:\Users\ken\Desktop\C85\pfilter prob.nxc"
0	751	409		set __D0main, 2
0	750	412	#line 750 "C:\Users\ken\Desktop\C85\pfilter prob.nxc"
0	751	412		mov __ArrHelper__mainparticle_219_0.theta, __D0main
0	750	415	#line 750 "C:\Users\ken\Desktop\C85\pfilter prob.nxc"
0	751	415		replace list, list, __signed_stack_001main, __ArrHelper__mainparticle_219_0
0	750	420	#line 750 "C:\Users\ken\Desktop\C85\pfilter prob.nxc"
0	750	420	#line 750 "C:\Users\ken\Desktop\C85\pfilter prob.nxc"
0	751	420		mov __D0main, __main_7qG2_i_7qG2_000
0	750	423	#line 750 "C:\Users\ken\Desktop\C85\pfilter prob.nxc"
0	751	423		mov __signed_stack_001main, __D0main
0	750	425	#line 750 "C:\Users\ken\Desktop\C85\pfilter prob.nxc"
0	751	425		set __D0main, 1
0	750	428	#line 750 "C:\Users\ken\Desktop\C85\pfilter prob.nxc"
0	751	428		add __D0main, __signed_stack_001main, __D0main
0	750	432	#line 750 "C:\Users\ken\Desktop\C85\pfilter prob.nxc"
0	751	432		mov __signed_stack_001main, __D0main
0	750	434	#line 750 "C:\Users\ken\Desktop\C85\pfilter prob.nxc"
0	751	434		index __ArrHelper__mainparticle_219_0, list, __signed_stack_001main
0	750	438	#line 750 "C:\Users\ken\Desktop\C85\pfilter prob.nxc"
0	751	438		mov __DF0main, __constVal1
0	750	441	#line 750 "C:\Users\ken\Desktop\C85\pfilter prob.nxc"
0	751	441		mov __float_stack_002main, __DF0main
0	750	443	#line 750 "C:\Users\ken\Desktop\C85\pfilter prob.nxc"
0	751	443		mov __DF0main, __constVal3
0	750	446	#line 750 "C:\Users\ken\Desktop\C85\pfilter prob.nxc"
0	751	446		mov __float_stack_003main, __DF0main
0	750	448	#line 750 "C:\Users\ken\Desktop\C85\pfilter prob.nxc"
0	751	448		mov __DF0main, __constVal5
0	750	451	#line 750 "C:\Users\ken\Desktop\C85\pfilter prob.nxc"
0	751	451		mul __DF0main, __float_stack_003main, __DF0main
0	750	455	#line 750 "C:\Users\ken\Desktop\C85\pfilter prob.nxc"
0	751	455		mov __float_stack_003main, __DF0main
0	750	457	#line 750 "C:\Users\ken\Desktop\C85\pfilter prob.nxc"
0	751	457		mov __DF0main, __constVal4
0	750	460	#line 750 "C:\Users\ken\Desktop\C85\pfilter prob.nxc"
0	751	460		mul __DF0main, __float_stack_003main, __DF0main
0	751	464	#line 751 "C:\Users\ken\Desktop\C85\pfilter prob.nxc"
0	752	464		div __DF0main, __float_stack_002main, __DF0main
0	751	468	#line 751 "C:\Users\ken\Desktop\C85\pfilter prob.nxc"
0	752	468		mov __ArrHelper__mainparticle_219_0.prob, __DF0main
0	751	471	#line 751 "C:\Users\ken\Desktop\C85\pfilter prob.nxc"
0	752	471		replace list, list, __signed_stack_001main, __ArrHelper__mainparticle_219_0
0	751	476	#line 751 "C:\Users\ken\Desktop\C85\pfilter prob.nxc"
0	751	476	#line 751 "C:\Users\ken\Desktop\C85\pfilter prob.nxc"
0	752	476		mov __D0main, __main_7qG2_i_7qG2_000
0	751	479	#line 751 "C:\Users\ken\Desktop\C85\pfilter prob.nxc"
0	752	479		mov __signed_stack_001main, __D0main
0	751	481	#line 751 "C:\Users\ken\Desktop\C85\pfilter prob.nxc"
0	752	481		set __D0main, 2
0	751	484	#line 751 "C:\Users\ken\Desktop\C85\pfilter prob.nxc"
0	752	484		add __D0main, __signed_stack_001main, __D0main
0	751	488	#line 751 "C:\Users\ken\Desktop\C85\pfilter prob.nxc"
0	752	488		mov __signed_stack_001main, __D0main
0	751	490	#line 751 "C:\Users\ken\Desktop\C85\pfilter prob.nxc"
0	752	490		index __ArrHelper__mainparticle_219_0, list, __signed_stack_001main
0	751	494	#line 751 "C:\Users\ken\Desktop\C85\pfilter prob.nxc"
0	752	494		mov __D0main, __main_7qG2_i_7qG2_000
0	751	497	#line 751 "C:\Users\ken\Desktop\C85\pfilter prob.nxc"
0	752	497		mov __signed_stack_002main, __D0main
0	751	499	#line 751 "C:\Users\ken\Desktop\C85\pfilter prob.nxc"
0	752	499		set __D0main, 4
0	751	502	#line 751 "C:\Users\ken\Desktop\C85\pfilter prob.nxc"
0	752	502		div __D0main, __signed_stack_002main, __D0main
0	751	506	#line 751 "C:\Users\ken\Desktop\C85\pfilter prob.nxc"
0	752	506		mov __signed_stack_002main, __D0main
0	752	508	#line 752 "C:\Users\ken\Desktop\C85\pfilter prob.nxc"
0	753	508		set __D0main, 3
0	752	511	#line 752 "C:\Users\ken\Desktop\C85\pfilter prob.nxc"
0	753	511		mod __D0main, __signed_stack_002main, __D0main
0	752	515	#line 752 "C:\Users\ken\Desktop\C85\pfilter prob.nxc"
0	753	515		mov __ArrHelper__mainparticle_219_0.x, __D0main
0	752	518	#line 752 "C:\Users\ken\Desktop\C85\pfilter prob.nxc"
0	753	518		replace list, list, __signed_stack_001main, __ArrHelper__mainparticle_219_0
0	752	523	#line 752 "C:\Users\ken\Desktop\C85\pfilter prob.nxc"
0	752	523	#line 752 "C:\Users\ken\Desktop\C85\pfilter prob.nxc"
0	753	523		mov __D0main, __main_7qG2_i_7qG2_000
0	752	526	#line 752 "C:\Users\ken\Desktop\C85\pfilter prob.nxc"
0	753	526		mov __signed_stack_001main, __D0main
0	752	528	#line 752 "C:\Users\ken\Desktop\C85\pfilter prob.nxc"
0	753	528		set __D0main, 2
0	752	531	#line 752 "C:\Users\ken\Desktop\C85\pfilter prob.nxc"
0	753	531		add __D0main, __signed_stack_001main, __D0main
0	752	535	#line 752 "C:\Users\ken\Desktop\C85\pfilter prob.nxc"
0	753	535		mov __signed_stack_001main, __D0main
0	752	537	#line 752 "C:\Users\ken\Desktop\C85\pfilter prob.nxc"
0	753	537		index __ArrHelper__mainparticle_219_0, list, __signed_stack_001main
0	752	541	#line 752 "C:\Users\ken\Desktop\C85\pfilter prob.nxc"
0	753	541		mov __D0main, __main_7qG2_i_7qG2_000
0	752	544	#line 752 "C:\Users\ken\Desktop\C85\pfilter prob.nxc"
0	753	544		mov __signed_stack_002main, __D0main
0	752	546	#line 752 "C:\Users\ken\Desktop\C85\pfilter prob.nxc"
0	753	546		set __D0main, 4
0	752	549	#line 752 "C:\Users\ken\Desktop\C85\pfilter prob.nxc"
0	753	549		mov __signed_stack_003main, __D0main
0	752	551	#line 752 "C:\Users\ken\Desktop\C85\pfilter prob.nxc"
0	753	551		set __D0main, 3
0	752	554	#line 752 "C:\Users\ken\Desktop\C85\pfilter prob.nxc"
0	753	554		mul __D0main, __signed_stack_003main, __D0main
0	753	558	#line 753 "C:\Users\ken\Desktop\C85\pfilter prob.nxc"
0	754	558		div __D0main, __signed_stack_002main, __D0main
0	753	562	#line 753 "C:\Users\ken\Desktop\C85\pfilter prob.nxc"
0	754	562		mov __ArrHelper__mainparticle_219_0.y, __D0main
0	753	565	#line 753 "C:\Users\ken\Desktop\C85\pfilter prob.nxc"
0	754	565		replace list, list, __signed_stack_001main, __ArrHelper__mainparticle_219_0
0	753	570	#line 753 "C:\Users\ken\Desktop\C85\pfilter prob.nxc"
0	753	570	#line 753 "C:\Users\ken\Desktop\C85\pfilter prob.nxc"
0	754	570		mov __D0main, __main_7qG2_i_7qG2_000
0	753	573	#line 753 "C:\Users\ken\Desktop\C85\pfilter prob.nxc"
0	754	573		mov __signed_stack_001main, __D0main
0	753	575	#line 753 "C:\Users\ken\Desktop\C85\pfilter prob.nxc"
0	754	575		set __D0main, 2
0	753	578	#line 753 "C:\Users\ken\Desktop\C85\pfilter prob.nxc"
0	754	578		add __D0main, __signed_stack_001main, __D0main
0	753	582	#line 753 "C:\Users\ken\Desktop\C85\pfilter prob.nxc"
0	754	582		mov __signed_stack_001main, __D0main
0	753	584	#line 753 "C:\Users\ken\Desktop\C85\pfilter prob.nxc"
0	754	584		index __ArrHelper__mainparticle_219_0, list, __signed_stack_001main
0	754	588	#line 754 "C:\Users\ken\Desktop\C85\pfilter prob.nxc"
0	755	588		set __D0main, 1
0	754	591	#line 754 "C:\Users\ken\Desktop\C85\pfilter prob.nxc"
0	755	591		mov __ArrHelper__mainparticle_219_0.theta, __D0main
0	754	594	#line 754 "C:\Users\ken\Desktop\C85\pfilter prob.nxc"
0	755	594		replace list, list, __signed_stack_001main, __ArrHelper__mainparticle_219_0
0	754	599	#line 754 "C:\Users\ken\Desktop\C85\pfilter prob.nxc"
0	754	599	#line 754 "C:\Users\ken\Desktop\C85\pfilter prob.nxc"
0	755	599		mov __D0main, __main_7qG2_i_7qG2_000
0	754	602	#line 754 "C:\Users\ken\Desktop\C85\pfilter prob.nxc"
0	755	602		mov __signed_stack_001main, __D0main
0	754	604	#line 754 "C:\Users\ken\Desktop\C85\pfilter prob.nxc"
0	755	604		set __D0main, 2
0	754	607	#line 754 "C:\Users\ken\Desktop\C85\pfilter prob.nxc"
0	755	607		add __D0main, __signed_stack_001main, __D0main
0	754	611	#line 754 "C:\Users\ken\Desktop\C85\pfilter prob.nxc"
0	755	611		mov __signed_stack_001main, __D0main
0	754	613	#line 754 "C:\Users\ken\Desktop\C85\pfilter prob.nxc"
0	755	613		index __ArrHelper__mainparticle_219_0, list, __signed_stack_001main
0	754	617	#line 754 "C:\Users\ken\Desktop\C85\pfilter prob.nxc"
0	755	617		mov __DF0main, __constVal1
0	754	620	#line 754 "C:\Users\ken\Desktop\C85\pfilter prob.nxc"
0	755	620		mov __float_stack_002main, __DF0main
0	754	622	#line 754 "C:\Users\ken\Desktop\C85\pfilter prob.nxc"
0	755	622		mov __DF0main, __constVal3
0	754	625	#line 754 "C:\Users\ken\Desktop\C85\pfilter prob.nxc"
0	755	625		mov __float_stack_003main, __DF0main
0	754	627	#line 754 "C:\Users\ken\Desktop\C85\pfilter prob.nxc"
0	755	627		mov __DF0main, __constVal5
0	754	630	#line 754 "C:\Users\ken\Desktop\C85\pfilter prob.nxc"
0	755	630		mul __DF0main, __float_stack_003main, __DF0main
0	754	634	#line 754 "C:\Users\ken\Desktop\C85\pfilter prob.nxc"
0	755	634		mov __float_stack_003main, __DF0main
0	754	636	#line 754 "C:\Users\ken\Desktop\C85\pfilter prob.nxc"
0	755	636		mov __DF0main, __constVal4
0	754	639	#line 754 "C:\Users\ken\Desktop\C85\pfilter prob.nxc"
0	755	639		mul __DF0main, __float_stack_003main, __DF0main
0	755	643	#line 755 "C:\Users\ken\Desktop\C85\pfilter prob.nxc"
0	756	643		div __DF0main, __float_stack_002main, __DF0main
0	755	647	#line 755 "C:\Users\ken\Desktop\C85\pfilter prob.nxc"
0	756	647		mov __ArrHelper__mainparticle_219_0.prob, __DF0main
0	755	650	#line 755 "C:\Users\ken\Desktop\C85\pfilter prob.nxc"
0	756	650		replace list, list, __signed_stack_001main, __ArrHelper__mainparticle_219_0
0	755	655	#line 755 "C:\Users\ken\Desktop\C85\pfilter prob.nxc"
0	755	655	#line 755 "C:\Users\ken\Desktop\C85\pfilter prob.nxc"
0	756	655		mov __D0main, __main_7qG2_i_7qG2_000
0	755	658	#line 755 "C:\Users\ken\Desktop\C85\pfilter prob.nxc"
0	756	658		mov __signed_stack_001main, __D0main
0	755	660	#line 755 "C:\Users\ken\Desktop\C85\pfilter prob.nxc"
0	756	660		set __D0main, 3
0	755	663	#line 755 "C:\Users\ken\Desktop\C85\pfilter prob.nxc"
0	756	663		add __D0main, __signed_stack_001main, __D0main
0	755	667	#line 755 "C:\Users\ken\Desktop\C85\pfilter prob.nxc"
0	756	667		mov __signed_stack_001main, __D0main
0	755	669	#line 755 "C:\Users\ken\Desktop\C85\pfilter prob.nxc"
0	756	669		index __ArrHelper__mainparticle_219_0, list, __signed_stack_001main
0	755	673	#line 755 "C:\Users\ken\Desktop\C85\pfilter prob.nxc"
0	756	673		mov __D0main, __main_7qG2_i_7qG2_000
0	755	676	#line 755 "C:\Users\ken\Desktop\C85\pfilter prob.nxc"
0	756	676		mov __signed_stack_002main, __D0main
0	755	678	#line 755 "C:\Users\ken\Desktop\C85\pfilter prob.nxc"
0	756	678		set __D0main, 4
0	755	681	#line 755 "C:\Users\ken\Desktop\C85\pfilter prob.nxc"
0	756	681		div __D0main, __signed_stack_002main, __D0main
0	755	685	#line 755 "C:\Users\ken\Desktop\C85\pfilter prob.nxc"
0	756	685		mov __signed_stack_002main, __D0main
0	756	687	#line 756 "C:\Users\ken\Desktop\C85\pfilter prob.nxc"
0	757	687		set __D0main, 3
0	756	690	#line 756 "C:\Users\ken\Desktop\C85\pfilter prob.nxc"
0	757	690		mod __D0main, __signed_stack_002main, __D0main
0	756	694	#line 756 "C:\Users\ken\Desktop\C85\pfilter prob.nxc"
0	757	694		mov __ArrHelper__mainparticle_219_0.x, __D0main
0	756	697	#line 756 "C:\Users\ken\Desktop\C85\pfilter prob.nxc"
0	757	697		replace list, list, __signed_stack_001main, __ArrHelper__mainparticle_219_0
0	756	702	#line 756 "C:\Users\ken\Desktop\C85\pfilter prob.nxc"
0	756	702	#line 756 "C:\Users\ken\Desktop\C85\pfilter prob.nxc"
0	757	702		mov __D0main, __main_7qG2_i_7qG2_000
0	756	705	#line 756 "C:\Users\ken\Desktop\C85\pfilter prob.nxc"
0	757	705		mov __signed_stack_001main, __D0main
0	756	707	#line 756 "C:\Users\ken\Desktop\C85\pfilter prob.nxc"
0	757	707		set __D0main, 3
0	756	710	#line 756 "C:\Users\ken\Desktop\C85\pfilter prob.nxc"
0	757	710		add __D0main, __signed_stack_001main, __D0main
0	756	714	#line 756 "C:\Users\ken\Desktop\C85\pfilter prob.nxc"
0	757	714		mov __signed_stack_001main, __D0main
0	756	716	#line 756 "C:\Users\ken\Desktop\C85\pfilter prob.nxc"
0	757	716		index __ArrHelper__mainparticle_219_0, list, __signed_stack_001main
0	756	720	#line 756 "C:\Users\ken\Desktop\C85\pfilter prob.nxc"
0	757	720		mov __D0main, __main_7qG2_i_7qG2_000
0	756	723	#line 756 "C:\Users\ken\Desktop\C85\pfilter prob.nxc"
0	757	723		mov __signed_stack_002main, __D0main
0	756	725	#line 756 "C:\Users\ken\Desktop\C85\pfilter prob.nxc"
0	757	725		set __D0main, 4
0	756	728	#line 756 "C:\Users\ken\Desktop\C85\pfilter prob.nxc"
0	757	728		mov __signed_stack_003main, __D0main
0	756	730	#line 756 "C:\Users\ken\Desktop\C85\pfilter prob.nxc"
0	757	730		set __D0main, 3
0	756	733	#line 756 "C:\Users\ken\Desktop\C85\pfilter prob.nxc"
0	757	733		mul __D0main, __signed_stack_003main, __D0main
0	757	737	#line 757 "C:\Users\ken\Desktop\C85\pfilter prob.nxc"
0	758	737		div __D0main, __signed_stack_002main, __D0main
0	757	741	#line 757 "C:\Users\ken\Desktop\C85\pfilter prob.nxc"
0	758	741		mov __ArrHelper__mainparticle_219_0.y, __D0main
0	757	744	#line 757 "C:\Users\ken\Desktop\C85\pfilter prob.nxc"
0	758	744		replace list, list, __signed_stack_001main, __ArrHelper__mainparticle_219_0
0	757	749	#line 757 "C:\Users\ken\Desktop\C85\pfilter prob.nxc"
0	757	749	#line 757 "C:\Users\ken\Desktop\C85\pfilter prob.nxc"
0	758	749		mov __D0main, __main_7qG2_i_7qG2_000
0	757	752	#line 757 "C:\Users\ken\Desktop\C85\pfilter prob.nxc"
0	758	752		mov __signed_stack_001main, __D0main
0	757	754	#line 757 "C:\Users\ken\Desktop\C85\pfilter prob.nxc"
0	758	754		set __D0main, 3
0	757	757	#line 757 "C:\Users\ken\Desktop\C85\pfilter prob.nxc"
0	758	757		add __D0main, __signed_stack_001main, __D0main
0	757	761	#line 757 "C:\Users\ken\Desktop\C85\pfilter prob.nxc"
0	758	761		mov __signed_stack_001main, __D0main
0	757	763	#line 757 "C:\Users\ken\Desktop\C85\pfilter prob.nxc"
0	758	763		index __ArrHelper__mainparticle_219_0, list, __signed_stack_001main
0	758	767	#line 758 "C:\Users\ken\Desktop\C85\pfilter prob.nxc"
0	759	767		set __D0main, 3
0	758	770	#line 758 "C:\Users\ken\Desktop\C85\pfilter prob.nxc"
0	759	770		mov __ArrHelper__mainparticle_219_0.theta, __D0main
0	758	773	#line 758 "C:\Users\ken\Desktop\C85\pfilter prob.nxc"
0	759	773		replace list, list, __signed_stack_001main, __ArrHelper__mainparticle_219_0
0	758	778	#line 758 "C:\Users\ken\Desktop\C85\pfilter prob.nxc"
0	758	778	#line 758 "C:\Users\ken\Desktop\C85\pfilter prob.nxc"
0	759	778		mov __D0main, __main_7qG2_i_7qG2_000
0	758	781	#line 758 "C:\Users\ken\Desktop\C85\pfilter prob.nxc"
0	759	781		mov __signed_stack_001main, __D0main
0	758	783	#line 758 "C:\Users\ken\Desktop\C85\pfilter prob.nxc"
0	759	783		set __D0main, 3
0	758	786	#line 758 "C:\Users\ken\Desktop\C85\pfilter prob.nxc"
0	759	786		add __D0main, __signed_stack_001main, __D0main
0	758	790	#line 758 "C:\Users\ken\Desktop\C85\pfilter prob.nxc"
0	759	790		mov __signed_stack_001main, __D0main
0	758	792	#line 758 "C:\Users\ken\Desktop\C85\pfilter prob.nxc"
0	759	792		index __ArrHelper__mainparticle_219_0, list, __signed_stack_001main
0	758	796	#line 758 "C:\Users\ken\Desktop\C85\pfilter prob.nxc"
0	759	796		mov __DF0main, __constVal1
0	758	799	#line 758 "C:\Users\ken\Desktop\C85\pfilter prob.nxc"
0	759	799		mov __float_stack_002main, __DF0main
0	758	801	#line 758 "C:\Users\ken\Desktop\C85\pfilter prob.nxc"
0	759	801		mov __DF0main, __constVal3
0	758	804	#line 758 "C:\Users\ken\Desktop\C85\pfilter prob.nxc"
0	759	804		mov __float_stack_003main, __DF0main
0	758	806	#line 758 "C:\Users\ken\Desktop\C85\pfilter prob.nxc"
0	759	806		mov __DF0main, __constVal5
0	758	809	#line 758 "C:\Users\ken\Desktop\C85\pfilter prob.nxc"
0	759	809		mul __DF0main, __float_stack_003main, __DF0main
0	758	813	#line 758 "C:\Users\ken\Desktop\C85\pfilter prob.nxc"
0	759	813		mov __float_stack_003main, __DF0main
0	758	815	#line 758 "C:\Users\ken\Desktop\C85\pfilter prob.nxc"
0	759	815		mov __DF0main, __constVal4
0	758	818	#line 758 "C:\Users\ken\Desktop\C85\pfilter prob.nxc"
0	759	818		mul __DF0main, __float_stack_003main, __DF0main
0	760	822	#line 760 "C:\Users\ken\Desktop\C85\pfilter prob.nxc"
0	761	822		div __DF0main, __float_stack_002main, __DF0main
0	760	826	#line 760 "C:\Users\ken\Desktop\C85\pfilter prob.nxc"
0	761	826		mov __ArrHelper__mainparticle_219_0.prob, __DF0main
0	760	829	#line 760 "C:\Users\ken\Desktop\C85\pfilter prob.nxc"
0	761	829		replace list, list, __signed_stack_001main, __ArrHelper__mainparticle_219_0
0	760	834	#line 760 "C:\Users\ken\Desktop\C85\pfilter prob.nxc"
0	762	834	#line 762 "C:\Users\ken\Desktop\C85\pfilter prob.nxc"
0	763	834		jmp __NXC_Label_1480
0	762	836	#line 762 "C:\Users\ken\Desktop\C85\pfilter prob.nxc"
0	762	836	#line 762 "C:\Users\ken\Desktop\C85\pfilter prob.nxc"
0	763	836		set __D0main, 1000
0	762	839	#line 762 "C:\Users\ken\Desktop\C85\pfilter prob.nxc"
0	763	839	#pragma macro 8
0	763	839		acquire __RandomMutex
0	763	840		syscall 24, __RandomArgs
0	763	843		mov __RandomTmp, __RandomArgs.Result
0	763	846		add __RandomTmp, __RandomTmp, __constVal32768
0	763	850		mul __RandomTmp, __RandomTmp, __D0main
0	763	854		div __RandomTmp, __RandomTmp, __constVal65536
0	763	858		mov __D0main, __RandomTmp
0	763	860		release __RandomMutex
0	11025	861	#line 11025 "C:\Users\ken\Desktop\C85\pfilter prob.nxc"
0	762	861	#line 762 "C:\Users\ken\Desktop\C85\pfilter prob.nxc"
0	763	861		mov __signed_stack_001main, __D0main
0	762	863	#line 762 "C:\Users\ken\Desktop\C85\pfilter prob.nxc"
0	763	863		set __D0main, 200
0	762	866	#line 762 "C:\Users\ken\Desktop\C85\pfilter prob.nxc"
0	763	866		add __D0main, __signed_stack_001main, __D0main
0	762	870	#line 762 "C:\Users\ken\Desktop\C85\pfilter prob.nxc"
0	763	870		mov __signed_stack_001main, __D0main
0	762	872	#line 762 "C:\Users\ken\Desktop\C85\pfilter prob.nxc"
0	763	872		set __D0main, 400
0	762	875	#line 762 "C:\Users\ken\Desktop\C85\pfilter prob.nxc"
0	763	875		mov __signed_stack_002main, __D0main
0	762	877	#line 762 "C:\Users\ken\Desktop\C85\pfilter prob.nxc"
0	763	877		set __D0main, 3
0	762	880	#line 762 "C:\Users\ken\Desktop\C85\pfilter prob.nxc"
0	763	880		mov __signed_stack_003main, __D0main
0	762	882	#line 762 "C:\Users\ken\Desktop\C85\pfilter prob.nxc"
0	763	882		set __D0main, 0
0	763	885	#line 763 "C:\Users\ken\Desktop\C85\pfilter prob.nxc"
0	764	885		acquire __SPTArgsMutex
0	763	886	#line 763 "C:\Users\ken\Desktop\C85\pfilter prob.nxc"
0	764	886		mov __SPTArgs.Frequency, __signed_stack_001main
0	763	889	#line 763 "C:\Users\ken\Desktop\C85\pfilter prob.nxc"
0	764	889		mov __SPTArgs.Duration, __signed_stack_002main
0	763	892	#line 763 "C:\Users\ken\Desktop\C85\pfilter prob.nxc"
0	764	892		mov __SPTArgs.Volume, __signed_stack_003main
0	763	895	#line 763 "C:\Users\ken\Desktop\C85\pfilter prob.nxc"
0	764	895		mov __SPTArgs.Loop, __D0main
0	763	898	#line 763 "C:\Users\ken\Desktop\C85\pfilter prob.nxc"
0	764	898		syscall 10, __SPTArgs
0	763	901	#line 763 "C:\Users\ken\Desktop\C85\pfilter prob.nxc"
0	764	901		mov __D0main, __SPTArgs.Result
0	763	904	#line 763 "C:\Users\ken\Desktop\C85\pfilter prob.nxc"
0	764	904		release __SPTArgsMutex
0	763	905	#line 763 "C:\Users\ken\Desktop\C85\pfilter prob.nxc"
0	763	905	#line 763 "C:\Users\ken\Desktop\C85\pfilter prob.nxc"
0	764	905		strcat __strbufmain, __constStr0009
0	763	909	#line 763 "C:\Users\ken\Desktop\C85\pfilter prob.nxc"
0	764	909		mov __fopen_7qG2_filename_7qG2_000, __strbufmain
0	763	911	#line 763 "C:\Users\ken\Desktop\C85\pfilter prob.nxc"
0	764	911		strcat __strbufmain, __constStr0006
0	763	915	#line 763 "C:\Users\ken\Desktop\C85\pfilter prob.nxc"
0	764	915		mov __fopen_7qG2_mode_7qG2_000, __strbufmain
0	765	917	#line 765 "C:\Users\ken\Desktop\C85\pfilter prob.nxc"
0	766	917		subcall fopen, __fopen_return
0	765	920	#line 765 "C:\Users\ken\Desktop\C85\pfilter prob.nxc"
0	766	920		mov __DU0main, __DU0fopen
0	765	922	#line 765 "C:\Users\ken\Desktop\C85\pfilter prob.nxc"
0	766	922		mov __main_7qG2_fd_7qG2_000, __DU0main
0	765	925	#line 765 "C:\Users\ken\Desktop\C85\pfilter prob.nxc"
0	765	925	#line 765 "C:\Users\ken\Desktop\C85\pfilter prob.nxc"
0	766	925		set __D0main, 0
0	765	928	#line 765 "C:\Users\ken\Desktop\C85\pfilter prob.nxc"
0	766	928		mov __main_7qG2_i_7qG2_000, __D0main
0	765	931	#line 765 "C:\Users\ken\Desktop\C85\pfilter prob.nxc"
0	766	931		mov __D0main, __main_7qG2_i_7qG2_000
0	765	934	#line 765 "C:\Users\ken\Desktop\C85\pfilter prob.nxc"
0	766	934		mov __signed_stack_001main, __D0main
0	765	936	#line 765 "C:\Users\ken\Desktop\C85\pfilter prob.nxc"
0	766	936		set __D0main, 3
0	765	939	#line 765 "C:\Users\ken\Desktop\C85\pfilter prob.nxc"
0	766	939		mov __signed_stack_002main, __D0main
0	765	941	#line 765 "C:\Users\ken\Desktop\C85\pfilter prob.nxc"
0	766	941		set __D0main, 5
0	765	944	#line 765 "C:\Users\ken\Desktop\C85\pfilter prob.nxc"
0	766	944		mul __D0main, __signed_stack_002main, __D0main
0	765	948	#line 765 "C:\Users\ken\Desktop\C85\pfilter prob.nxc"
0	766	948		cmp 0, __zfmain, __signed_stack_001main, __D0main
0	765	952	#line 765 "C:\Users\ken\Desktop\C85\pfilter prob.nxc"
0	766	952		mov __D0main, __zfmain
0	765	955	#line 765 "C:\Users\ken\Desktop\C85\pfilter prob.nxc"
0	766	955		brtst 4, __NXC_Label_1588, __zfmain
0	765	958	#line 765 "C:\Users\ken\Desktop\C85\pfilter prob.nxc"
0	766	958		jmp __NXC_Label_1589
0	765	960	#line 765 "C:\Users\ken\Desktop\C85\pfilter prob.nxc"
0	766	960		add __main_7qG2_i_7qG2_000, __main_7qG2_i_7qG2_000, __constVal1
0	766	964	#line 766 "C:\Users\ken\Desktop\C85\pfilter prob.nxc"
0	767	964		jmp __NXC_Label_1587
0	766	966	#line 766 "C:\Users\ken\Desktop\C85\pfilter prob.nxc"
0	767	966		mov __fgets_7qG2_str_7qG2_000_inline_main, __main_7qG2_line_7qG2_000
0	766	968	#line 766 "C:\Users\ken\Desktop\C85\pfilter prob.nxc"
0	767	968		set __D0main, 10
0	766	971	#line 766 "C:\Users\ken\Desktop\C85\pfilter prob.nxc"
0	767	971		mov __fgets_7qG2_num_7qG2_000_inline_main, __D0main
0	766	974	#line 766 "C:\Users\ken\Desktop\C85\pfilter prob.nxc"
0	767	974		mov __DU0main, __main_7qG2_fd_7qG2_000
0	766	977	#line 766 "C:\Users\ken\Desktop\C85\pfilter prob.nxc"
0	767	977		mov __fgets_7qG2_handle_7qG2_000_inline_main, __DU0main
0	17659	980	#line 17659 "NXCDefs.h"
0	17660	980	#pragma macro 7
0	17660	980		acquire __FReadMutex
0	17660	981		mov __FReadArgs.FileHandle, __fgets_7qG2_handle_7qG2_000_inline_main
0	17660	984		mov __RLSMaxBytes, __fgets_7qG2_num_7qG2_000_inline_main
0	17660	986		subcall __readStringLine, __RLSReturnAddress
0	17660	989		mov __D0fgets_inline_main, __RLSReturn
0	17660	992		mov __fgets_7qG2_str_7qG2_000_inline_main, __RLSOutput
0	17660	995		release __FReadMutex
0	11148	996	#line 11148 "NXCDefs.h"
0	17659	996	#line 17659 "NXCDefs.h"
0	17659	996	#line 17659 "NXCDefs.h"
0	17661	996	#line 17661 "NXCDefs.h"
0	17662	996		strcat __strbuffgets_inline_main, __fgets_7qG2_str_7qG2_000_inline_main
0	17661	1000	#line 17661 "NXCDefs.h"
0	17662	1000		jmp __NXC_Label_main_inline_fgets_001_end_lbl
0	17661	1002	#line 17661 "NXCDefs.h"
0	769	1002	#line 769 "C:\Users\ken\Desktop\C85\pfilter prob.nxc"
0	770	1002		mov __main_7qG2_line_7qG2_000, __fgets_7qG2_str_7qG2_000_inline_main
0	769	1004	#line 769 "C:\Users\ken\Desktop\C85\pfilter prob.nxc"
0	770	1004		mov __strretvalmain, __strbuffgets_inline_main
0	769	1006	#line 769 "C:\Users\ken\Desktop\C85\pfilter prob.nxc"
0	769	1006	#line 769 "C:\Users\ken\Desktop\C85\pfilter prob.nxc"
0	770	1006		set __D0main, 0
0	769	1009	#line 769 "C:\Users\ken\Desktop\C85\pfilter prob.nxc"
0	770	1009		mov __main_7qG2_j_7qG2_000, __D0main
0	769	1012	#line 769 "C:\Users\ken\Desktop\C85\pfilter prob.nxc"
0	770	1012		mov __D0main, __main_7qG2_j_7qG2_000
0	769	1015	#line 769 "C:\Users\ken\Desktop\C85\pfilter prob.nxc"
0	770	1015		mov __signed_stack_001main, __D0main
0	769	1017	#line 769 "C:\Users\ken\Desktop\C85\pfilter prob.nxc"
0	770	1017		set __D0main, 7
0	769	1020	#line 769 "C:\Users\ken\Desktop\C85\pfilter prob.nxc"
0	770	1020		cmp 0, __zfmain, __signed_stack_001main, __D0main
0	769	1024	#line 769 "C:\Users\ken\Desktop\C85\pfilter prob.nxc"
0	770	1024		mov __D0main, __zfmain
0	769	1027	#line 769 "C:\Users\ken\Desktop\C85\pfilter prob.nxc"
0	770	1027		brtst 4, __NXC_Label_1600, __zfmain
0	769	1030	#line 769 "C:\Users\ken\Desktop\C85\pfilter prob.nxc"
0	770	1030		jmp __NXC_Label_1601
0	769	1032	#line 769 "C:\Users\ken\Desktop\C85\pfilter prob.nxc"
0	770	1032		mov __D0main, __main_7qG2_j_7qG2_000
0	769	1035	#line 769 "C:\Users\ken\Desktop\C85\pfilter prob.nxc"
0	770	1035		mov __signed_stack_001main, __D0main
0	769	1037	#line 769 "C:\Users\ken\Desktop\C85\pfilter prob.nxc"
0	770	1037		set __D0main, 2
0	769	1040	#line 769 "C:\Users\ken\Desktop\C85\pfilter prob.nxc"
0	770	1040		add __D0main, __signed_stack_001main, __D0main
0	769	1044	#line 769 "C:\Users\ken\Desktop\C85\pfilter prob.nxc"
0	770	1044		mov __main_7qG2_j_7qG2_000, __D0main
0	770	1047	#line 770 "C:\Users\ken\Desktop\C85\pfilter prob.nxc"
0	771	1047		jmp __NXC_Label_1599
0	770	1049	#line 770 "C:\Users\ken\Desktop\C85\pfilter prob.nxc"
0	771	1049		strcat __strbufmain, __main_7qG2_line_7qG2_000
0	770	1053	#line 770 "C:\Users\ken\Desktop\C85\pfilter prob.nxc"
0	771	1053		mov __D0main, __main_7qG2_j_7qG2_000
0	771	1056	#line 771 "C:\Users\ken\Desktop\C85\pfilter prob.nxc"
0	772	1056		index __D0main, __strbufmain, __D0main
0	771	1060	#line 771 "C:\Users\ken\Desktop\C85\pfilter prob.nxc"
0	772	1060		mov __main_7qG2_charat_7qG2_000, __D0main
0	771	1063	#line 771 "C:\Users\ken\Desktop\C85\pfilter prob.nxc"
0	771	1063	#line 771 "C:\Users\ken\Desktop\C85\pfilter prob.nxc"
0	772	1063		mov __D0main, __main_7qG2_j_7qG2_000
0	775	1066		brcmp 4, __NXC_Label_1616, __constVal0, __D0main
0	776	1070		brcmp 4, __NXC_Label_1621, __constVal2, __D0main
0	777	1074		brcmp 4, __NXC_Label_1626, __constVal4, __D0main
0	778	1078		brcmp 4, __NXC_Label_1631, __constVal6, __D0main
0	779	1082		jmp __NXC_Label_1615
0	773	1084	#line 773 "C:\Users\ken\Desktop\C85\pfilter prob.nxc"
0	773	1084	#line 773 "C:\Users\ken\Desktop\C85\pfilter prob.nxc"
0	774	1084		mov __D0main, __main_7qG2_i_7qG2_000
0	773	1087	#line 773 "C:\Users\ken\Desktop\C85\pfilter prob.nxc"
0	774	1087		mov __signed_stack_001main, __D0main
0	773	1089	#line 773 "C:\Users\ken\Desktop\C85\pfilter prob.nxc"
0	774	1089		index __ArrHelper__mainintersection_219_0, __main_7qG2_map_7qG2_000, __signed_stack_001main
0	773	1093	#line 773 "C:\Users\ken\Desktop\C85\pfilter prob.nxc"
0	774	1093		mov __DU0main, __main_7qG2_charat_7qG2_000
0	773	1096	#line 773 "C:\Users\ken\Desktop\C85\pfilter prob.nxc"
0	774	1096		mov __unsigned_stack_002main, __DU0main
0	774	1098	#line 774 "C:\Users\ken\Desktop\C85\pfilter prob.nxc"
0	775	1098		set __D0main, 48
0	774	1101	#line 774 "C:\Users\ken\Desktop\C85\pfilter prob.nxc"
0	775	1101		sub __D0main, __unsigned_stack_002main, __D0main
0	774	1105	#line 774 "C:\Users\ken\Desktop\C85\pfilter prob.nxc"
0	775	1105		mov __ArrHelper__mainintersection_219_0.NE, __D0main
0	774	1108	#line 774 "C:\Users\ken\Desktop\C85\pfilter prob.nxc"
0	775	1108		replace __main_7qG2_map_7qG2_000, __main_7qG2_map_7qG2_000, __signed_stack_001main, __ArrHelper__mainintersection_219_0
0	774	1113	#line 774 "C:\Users\ken\Desktop\C85\pfilter prob.nxc"
0	775	1113	#line 775 "C:\Users\ken\Desktop\C85\pfilter prob.nxc"
0	776	1113		jmp __NXC_Label_1615
0	775	1115	#line 775 "C:\Users\ken\Desktop\C85\pfilter prob.nxc"
0	776	1115	#line 776 "C:\Users\ken\Desktop\C85\pfilter prob.nxc"
0	776	1115	#line 776 "C:\Users\ken\Desktop\C85\pfilter prob.nxc"
0	777	1115		mov __D0main, __main_7qG2_i_7qG2_000
0	776	1118	#line 776 "C:\Users\ken\Desktop\C85\pfilter prob.nxc"
0	777	1118		mov __signed_stack_001main, __D0main
0	776	1120	#line 776 "C:\Users\ken\Desktop\C85\pfilter prob.nxc"
0	777	1120		index __ArrHelper__mainintersection_219_0, __main_7qG2_map_7qG2_000, __signed_stack_001main
0	776	1124	#line 776 "C:\Users\ken\Desktop\C85\pfilter prob.nxc"
0	777	1124		mov __DU0main, __main_7qG2_charat_7qG2_000
0	776	1127	#line 776 "C:\Users\ken\Desktop\C85\pfilter prob.nxc"
0	777	1127		mov __unsigned_stack_002main, __DU0main
0	777	1129	#line 777 "C:\Users\ken\Desktop\C85\pfilter prob.nxc"
0	778	1129		set __D0main, 48
0	777	1132	#line 777 "C:\Users\ken\Desktop\C85\pfilter prob.nxc"
0	778	1132		sub __D0main, __unsigned_stack_002main, __D0main
0	777	1136	#line 777 "C:\Users\ken\Desktop\C85\pfilter prob.nxc"
0	778	1136		mov __ArrHelper__mainintersection_219_0.SE, __D0main
0	777	1139	#line 777 "C:\Users\ken\Desktop\C85\pfilter prob.nxc"
0	778	1139		replace __main_7qG2_map_7qG2_000, __main_7qG2_map_7qG2_000, __signed_stack_001main, __ArrHelper__mainintersection_219_0
0	777	1144	#line 777 "C:\Users\ken\Desktop\C85\pfilter prob.nxc"
0	778	1144	#line 778 "C:\Users\ken\Desktop\C85\pfilter prob.nxc"
0	779	1144		jmp __NXC_Label_1615
0	778	1146	#line 778 "C:\Users\ken\Desktop\C85\pfilter prob.nxc"
0	779	1146	#line 779 "C:\Users\ken\Desktop\C85\pfilter prob.nxc"
0	779	1146	#line 779 "C:\Users\ken\Desktop\C85\pfilter prob.nxc"
0	780	1146		mov __D0main, __main_7qG2_i_7qG2_000
0	779	1149	#line 779 "C:\Users\ken\Desktop\C85\pfilter prob.nxc"
0	780	1149		mov __signed_stack_001main, __D0main
0	779	1151	#line 779 "C:\Users\ken\Desktop\C85\pfilter prob.nxc"
0	780	1151		index __ArrHelper__mainintersection_219_0, __main_7qG2_map_7qG2_000, __signed_stack_001main
0	779	1155	#line 779 "C:\Users\ken\Desktop\C85\pfilter prob.nxc"
0	780	1155		mov __DU0main, __main_7qG2_charat_7qG2_000
0	779	1158	#line 779 "C:\Users\ken\Desktop\C85\pfilter prob.nxc"
0	780	1158		mov __unsigned_stack_002main, __DU0main
0	780	1160	#line 780 "C:\Users\ken\Desktop\C85\pfilter prob.nxc"
0	781	1160		set __D0main, 48
0	780	1163	#line 780 "C:\Users\ken\Desktop\C85\pfilter prob.nxc"
0	781	1163		sub __D0main, __unsigned_stack_002main, __D0main
0	780	1167	#line 780 "C:\Users\ken\Desktop\C85\pfilter prob.nxc"
0	781	1167		mov __ArrHelper__mainintersection_219_0.SW, __D0main
0	780	1170	#line 780 "C:\Users\ken\Desktop\C85\pfilter prob.nxc"
0	781	1170		replace __main_7qG2_map_7qG2_000, __main_7qG2_map_7qG2_000, __signed_stack_001main, __ArrHelper__mainintersection_219_0
0	780	1175	#line 780 "C:\Users\ken\Desktop\C85\pfilter prob.nxc"
0	781	1175	#line 781 "C:\Users\ken\Desktop\C85\pfilter prob.nxc"
0	782	1175		jmp __NXC_Label_1615
0	781	1177	#line 781 "C:\Users\ken\Desktop\C85\pfilter prob.nxc"
0	782	1177	#line 782 "C:\Users\ken\Desktop\C85\pfilter prob.nxc"
0	782	1177	#line 782 "C:\Users\ken\Desktop\C85\pfilter prob.nxc"
0	783	1177		mov __D0main, __main_7qG2_i_7qG2_000
0	782	1180	#line 782 "C:\Users\ken\Desktop\C85\pfilter prob.nxc"
0	783	1180		mov __signed_stack_001main, __D0main
0	782	1182	#line 782 "C:\Users\ken\Desktop\C85\pfilter prob.nxc"
0	783	1182		index __ArrHelper__mainintersection_219_0, __main_7qG2_map_7qG2_000, __signed_stack_001main
0	782	1186	#line 782 "C:\Users\ken\Desktop\C85\pfilter prob.nxc"
0	783	1186		mov __DU0main, __main_7qG2_charat_7qG2_000
0	782	1189	#line 782 "C:\Users\ken\Desktop\C85\pfilter prob.nxc"
0	783	1189		mov __unsigned_stack_002main, __DU0main
0	783	1191	#line 783 "C:\Users\ken\Desktop\C85\pfilter prob.nxc"
0	784	1191		set __D0main, 48
0	783	1194	#line 783 "C:\Users\ken\Desktop\C85\pfilter prob.nxc"
0	784	1194		sub __D0main, __unsigned_stack_002main, __D0main
0	783	1198	#line 783 "C:\Users\ken\Desktop\C85\pfilter prob.nxc"
0	784	1198		mov __ArrHelper__mainintersection_219_0.NW, __D0main
0	783	1201	#line 783 "C:\Users\ken\Desktop\C85\pfilter prob.nxc"
0	784	1201		replace __main_7qG2_map_7qG2_000, __main_7qG2_map_7qG2_000, __signed_stack_001main, __ArrHelper__mainintersection_219_0
0	783	1206	#line 783 "C:\Users\ken\Desktop\C85\pfilter prob.nxc"
0	784	1206	#line 784 "C:\Users\ken\Desktop\C85\pfilter prob.nxc"
0	785	1206		jmp __NXC_Label_1615
0	784	1208	#line 784 "C:\Users\ken\Desktop\C85\pfilter prob.nxc"
0	786	1208	#line 786 "C:\Users\ken\Desktop\C85\pfilter prob.nxc"
0	789	1208	#line 789 "C:\Users\ken\Desktop\C85\pfilter prob.nxc"
0	790	1208		jmp __NXC_Label_1602
0	789	1210	#line 789 "C:\Users\ken\Desktop\C85\pfilter prob.nxc"
0	789	1210	#line 789 "C:\Users\ken\Desktop\C85\pfilter prob.nxc"
0	790	1210		jmp __NXC_Label_1590
0	789	1212	#line 789 "C:\Users\ken\Desktop\C85\pfilter prob.nxc"
0	789	1212	#line 789 "C:\Users\ken\Desktop\C85\pfilter prob.nxc"
0	790	1212		mov __fgets_7qG2_str_7qG2_000_inline_main, __main_7qG2_line_7qG2_000
0	789	1214	#line 789 "C:\Users\ken\Desktop\C85\pfilter prob.nxc"
0	790	1214		set __D0main, 10
0	789	1217	#line 789 "C:\Users\ken\Desktop\C85\pfilter prob.nxc"
0	790	1217		mov __fgets_7qG2_num_7qG2_000_inline_main, __D0main
0	789	1220	#line 789 "C:\Users\ken\Desktop\C85\pfilter prob.nxc"
0	790	1220		mov __DU0main, __main_7qG2_fd_7qG2_000
0	789	1223	#line 789 "C:\Users\ken\Desktop\C85\pfilter prob.nxc"
0	790	1223		mov __fgets_7qG2_handle_7qG2_000_inline_main, __DU0main
0	17659	1226	#line 17659 "NXCDefs.h"
0	17660	1226	#pragma macro 7
0	17660	1226		acquire __FReadMutex
0	17660	1227		mov __FReadArgs.FileHandle, __fgets_7qG2_handle_7qG2_000_inline_main
0	17660	1230		mov __RLSMaxBytes, __fgets_7qG2_num_7qG2_000_inline_main
0	17660	1232		subcall __readStringLine, __RLSReturnAddress
0	17660	1235		mov __D0fgets_inline_main, __RLSReturn
0	17660	1238		mov __fgets_7qG2_str_7qG2_000_inline_main, __RLSOutput
0	17660	1241		release __FReadMutex
0	11361	1242	#line 11361 "NXCDefs.h"
0	17659	1242	#line 17659 "NXCDefs.h"
0	17659	1242	#line 17659 "NXCDefs.h"
0	17661	1242	#line 17661 "NXCDefs.h"
0	17662	1242		strcat __strbuffgets_inline_main, __fgets_7qG2_str_7qG2_000_inline_main
0	17661	1246	#line 17661 "NXCDefs.h"
0	17662	1246		jmp __NXC_Label_main_inline_fgets_002_end_lbl
0	17661	1248	#line 17661 "NXCDefs.h"
0	790	1248	#line 790 "C:\Users\ken\Desktop\C85\pfilter prob.nxc"
0	791	1248		mov __main_7qG2_line_7qG2_000, __fgets_7qG2_str_7qG2_000_inline_main
0	790	1250	#line 790 "C:\Users\ken\Desktop\C85\pfilter prob.nxc"
0	791	1250		mov __strretvalmain, __strbuffgets_inline_main
0	790	1252	#line 790 "C:\Users\ken\Desktop\C85\pfilter prob.nxc"
0	790	1252	#line 790 "C:\Users\ken\Desktop\C85\pfilter prob.nxc"
0	791	1252		strcat __strbufmain, __main_7qG2_line_7qG2_000
0	790	1256	#line 790 "C:\Users\ken\Desktop\C85\pfilter prob.nxc"
0	791	1256		set __D0main, 0
0	791	1259	#line 791 "C:\Users\ken\Desktop\C85\pfilter prob.nxc"
0	792	1259		index __D0main, __strbufmain, __D0main
0	791	1263	#line 791 "C:\Users\ken\Desktop\C85\pfilter prob.nxc"
0	792	1263		mov __main_7qG2_charat_7qG2_000, __D0main
0	791	1266	#line 791 "C:\Users\ken\Desktop\C85\pfilter prob.nxc"
0	791	1266	#line 791 "C:\Users\ken\Desktop\C85\pfilter prob.nxc"
0	792	1266		mov __DU0main, __main_7qG2_charat_7qG2_000
0	791	1269	#line 791 "C:\Users\ken\Desktop\C85\pfilter prob.nxc"
0	792	1269		mov __unsigned_stack_001main, __DU0main
0	792	1271	#line 792 "C:\Users\ken\Desktop\C85\pfilter prob.nxc"
0	793	1271		set __D0main, 48
0	792	1274	#line 792 "C:\Users\ken\Desktop\C85\pfilter prob.nxc"
0	793	1274		sub __D0main, __unsigned_stack_001main, __D0main
0	792	1278	#line 792 "C:\Users\ken\Desktop\C85\pfilter prob.nxc"
0	793	1278		mov __main_7qG2_target_7qG2_000, __D0main
0	792	1281	#line 792 "C:\Users\ken\Desktop\C85\pfilter prob.nxc"
0	792	1281	#line 792 "C:\Users\ken\Desktop\C85\pfilter prob.nxc"
0	793	1281		mov __D0main, __main_7qG2_target_7qG2_000
0	792	1284	#line 792 "C:\Users\ken\Desktop\C85\pfilter prob.nxc"
0	793	1284		mov __signed_stack_001main, __D0main
0	793	1286	#line 793 "C:\Users\ken\Desktop\C85\pfilter prob.nxc"
0	794	1286		set __D0main, 5
0	793	1289	#line 793 "C:\Users\ken\Desktop\C85\pfilter prob.nxc"
0	794	1289		mul __D0main, __signed_stack_001main, __D0main
0	793	1293	#line 793 "C:\Users\ken\Desktop\C85\pfilter prob.nxc"
0	794	1293		mov __main_7qG2_target_7qG2_000, __D0main
0	793	1296	#line 793 "C:\Users\ken\Desktop\C85\pfilter prob.nxc"
0	793	1296	#line 793 "C:\Users\ken\Desktop\C85\pfilter prob.nxc"
0	794	1296		strcat __strbufmain, __main_7qG2_line_7qG2_000
0	793	1300	#line 793 "C:\Users\ken\Desktop\C85\pfilter prob.nxc"
0	794	1300		set __D0main, 2
0	794	1303	#line 794 "C:\Users\ken\Desktop\C85\pfilter prob.nxc"
0	795	1303		index __D0main, __strbufmain, __D0main
0	794	1307	#line 794 "C:\Users\ken\Desktop\C85\pfilter prob.nxc"
0	795	1307		mov __main_7qG2_charat_7qG2_000, __D0main
0	794	1310	#line 794 "C:\Users\ken\Desktop\C85\pfilter prob.nxc"
0	794	1310	#line 794 "C:\Users\ken\Desktop\C85\pfilter prob.nxc"
0	795	1310		mov __D0main, __main_7qG2_target_7qG2_000
0	794	1313	#line 794 "C:\Users\ken\Desktop\C85\pfilter prob.nxc"
0	795	1313		mov __signed_stack_001main, __D0main
0	794	1315	#line 794 "C:\Users\ken\Desktop\C85\pfilter prob.nxc"
0	795	1315		mov __DU0main, __main_7qG2_charat_7qG2_000
0	794	1318	#line 794 "C:\Users\ken\Desktop\C85\pfilter prob.nxc"
0	795	1318		add __D0main, __signed_stack_001main, __DU0main
0	794	1322	#line 794 "C:\Users\ken\Desktop\C85\pfilter prob.nxc"
0	795	1322		mov __signed_stack_001main, __D0main
0	799	1324	#line 799 "C:\Users\ken\Desktop\C85\pfilter prob.nxc"
0	800	1324		set __D0main, 48
0	799	1327	#line 799 "C:\Users\ken\Desktop\C85\pfilter prob.nxc"
0	800	1327		sub __D0main, __signed_stack_001main, __D0main
0	799	1331	#line 799 "C:\Users\ken\Desktop\C85\pfilter prob.nxc"
0	800	1331		mov __main_7qG2_target_7qG2_000, __D0main
0	799	1334	#line 799 "C:\Users\ken\Desktop\C85\pfilter prob.nxc"
0	799	1334	#line 799 "C:\Users\ken\Desktop\C85\pfilter prob.nxc"
0	800	1334		mov __fgets_7qG2_str_7qG2_000_inline_main, __main_7qG2_line_7qG2_000
0	799	1336	#line 799 "C:\Users\ken\Desktop\C85\pfilter prob.nxc"
0	800	1336		set __D0main, 10
0	799	1339	#line 799 "C:\Users\ken\Desktop\C85\pfilter prob.nxc"
0	800	1339		mov __fgets_7qG2_num_7qG2_000_inline_main, __D0main
0	799	1342	#line 799 "C:\Users\ken\Desktop\C85\pfilter prob.nxc"
0	800	1342		mov __DU0main, __main_7qG2_fd_7qG2_000
0	799	1345	#line 799 "C:\Users\ken\Desktop\C85\pfilter prob.nxc"
0	800	1345		mov __fgets_7qG2_handle_7qG2_000_inline_main, __DU0main
0	17659	1348	#line 17659 "NXCDefs.h"
0	17660	1348	#pragma macro 7
0	17660	1348		acquire __FReadMutex
0	17660	1349		mov __FReadArgs.FileHandle, __fgets_7qG2_handle_7qG2_000_inline_main
0	17660	1352		mov __RLSMaxBytes, __fgets_7qG2_num_7qG2_000_inline_main
0	17660	1354		subcall __readStringLine, __RLSReturnAddress
0	17660	1357		mov __D0fgets_inline_main, __RLSReturn
0	17660	1360		mov __fgets_7qG2_str_7qG2_000_inline_main, __RLSOutput
0	17660	1363		release __FReadMutex
0	11462	1364	#line 11462 "NXCDefs.h"
0	17659	1364	#line 17659 "NXCDefs.h"
0	17659	1364	#line 17659 "NXCDefs.h"
0	17661	1364	#line 17661 "NXCDefs.h"
0	17662	1364		strcat __strbuffgets_inline_main, __fgets_7qG2_str_7qG2_000_inline_main
0	17661	1368	#line 17661 "NXCDefs.h"
0	17662	1368		jmp __NXC_Label_main_inline_fgets_003_end_lbl
0	17661	1370	#line 17661 "NXCDefs.h"
0	800	1370	#line 800 "C:\Users\ken\Desktop\C85\pfilter prob.nxc"
0	801	1370		mov __main_7qG2_line_7qG2_000, __fgets_7qG2_str_7qG2_000_inline_main
0	800	1372	#line 800 "C:\Users\ken\Desktop\C85\pfilter prob.nxc"
0	801	1372		mov __strretvalmain, __strbuffgets_inline_main
0	800	1374	#line 800 "C:\Users\ken\Desktop\C85\pfilter prob.nxc"
0	800	1374	#line 800 "C:\Users\ken\Desktop\C85\pfilter prob.nxc"
0	801	1374		strcat __strbufmain, __main_7qG2_line_7qG2_000
0	800	1378	#line 800 "C:\Users\ken\Desktop\C85\pfilter prob.nxc"
0	801	1378		set __D0main, 0
0	801	1381	#line 801 "C:\Users\ken\Desktop\C85\pfilter prob.nxc"
0	802	1381		index __D0main, __strbufmain, __D0main
0	801	1385	#line 801 "C:\Users\ken\Desktop\C85\pfilter prob.nxc"
0	802	1385		mov __main_7qG2_charat_7qG2_000, __D0main
0	801	1388	#line 801 "C:\Users\ken\Desktop\C85\pfilter prob.nxc"
0	801	1388	#line 801 "C:\Users\ken\Desktop\C85\pfilter prob.nxc"
0	802	1388		mov __DU0main, __main_7qG2_charat_7qG2_000
0	801	1391	#line 801 "C:\Users\ken\Desktop\C85\pfilter prob.nxc"
0	802	1391		mov __unsigned_stack_001main, __DU0main
0	802	1393	#line 802 "C:\Users\ken\Desktop\C85\pfilter prob.nxc"
0	803	1393		set __D0main, 48
0	802	1396	#line 802 "C:\Users\ken\Desktop\C85\pfilter prob.nxc"
0	803	1396		sub __D0main, __unsigned_stack_001main, __D0main
0	802	1400	#line 802 "C:\Users\ken\Desktop\C85\pfilter prob.nxc"
0	803	1400		mov __main_7qG2_dest_7qG2_000, __D0main
0	802	1403	#line 802 "C:\Users\ken\Desktop\C85\pfilter prob.nxc"
0	802	1403	#line 802 "C:\Users\ken\Desktop\C85\pfilter prob.nxc"
0	803	1403		mov __D0main, __main_7qG2_dest_7qG2_000
0	802	1406	#line 802 "C:\Users\ken\Desktop\C85\pfilter prob.nxc"
0	803	1406		mov __signed_stack_001main, __D0main
0	803	1408	#line 803 "C:\Users\ken\Desktop\C85\pfilter prob.nxc"
0	804	1408		set __D0main, 5
0	803	1411	#line 803 "C:\Users\ken\Desktop\C85\pfilter prob.nxc"
0	804	1411		mul __D0main, __signed_stack_001main, __D0main
0	803	1415	#line 803 "C:\Users\ken\Desktop\C85\pfilter prob.nxc"
0	804	1415		mov __main_7qG2_dest_7qG2_000, __D0main
0	803	1418	#line 803 "C:\Users\ken\Desktop\C85\pfilter prob.nxc"
0	803	1418	#line 803 "C:\Users\ken\Desktop\C85\pfilter prob.nxc"
0	804	1418		strcat __strbufmain, __main_7qG2_line_7qG2_000
0	803	1422	#line 803 "C:\Users\ken\Desktop\C85\pfilter prob.nxc"
0	804	1422		set __D0main, 2
0	804	1425	#line 804 "C:\Users\ken\Desktop\C85\pfilter prob.nxc"
0	805	1425		index __D0main, __strbufmain, __D0main
0	804	1429	#line 804 "C:\Users\ken\Desktop\C85\pfilter prob.nxc"
0	805	1429		mov __main_7qG2_charat_7qG2_000, __D0main
0	804	1432	#line 804 "C:\Users\ken\Desktop\C85\pfilter prob.nxc"
0	804	1432	#line 804 "C:\Users\ken\Desktop\C85\pfilter prob.nxc"
0	805	1432		mov __D0main, __main_7qG2_dest_7qG2_000
0	804	1435	#line 804 "C:\Users\ken\Desktop\C85\pfilter prob.nxc"
0	805	1435		mov __signed_stack_001main, __D0main
0	804	1437	#line 804 "C:\Users\ken\Desktop\C85\pfilter prob.nxc"
0	805	1437		mov __DU0main, __main_7qG2_charat_7qG2_000
0	804	1440	#line 804 "C:\Users\ken\Desktop\C85\pfilter prob.nxc"
0	805	1440		add __D0main, __signed_stack_001main, __DU0main
0	804	1444	#line 804 "C:\Users\ken\Desktop\C85\pfilter prob.nxc"
0	805	1444		mov __signed_stack_001main, __D0main
0	806	1446	#line 806 "C:\Users\ken\Desktop\C85\pfilter prob.nxc"
0	807	1446		set __D0main, 48
0	806	1449	#line 806 "C:\Users\ken\Desktop\C85\pfilter prob.nxc"
0	807	1449		sub __D0main, __signed_stack_001main, __D0main
0	806	1453	#line 806 "C:\Users\ken\Desktop\C85\pfilter prob.nxc"
0	807	1453		mov __main_7qG2_dest_7qG2_000, __D0main
0	806	1456	#line 806 "C:\Users\ken\Desktop\C85\pfilter prob.nxc"
0	806	1456	#line 806 "C:\Users\ken\Desktop\C85\pfilter prob.nxc"
0	807	1456		mov __DU0main, __main_7qG2_fd_7qG2_000
0	806	1459	#line 806 "C:\Users\ken\Desktop\C85\pfilter prob.nxc"
0	807	1459		mov __fclose_7qG2_handle_7qG2_000_inline_main, __DU0main
0	17590	1462	#line 17590 "NXCDefs.h"
0	17591	1462	#pragma macro 5
0	17591	1462		acquire __FCMutex
0	17591	1463		mov __FCArgs.FileHandle, __fclose_7qG2_handle_7qG2_000_inline_main
0	17591	1466		syscall 5, __FCArgs
0	17591	1469		mov __D0fclose_inline_main, __FCArgs.Result
0	17591	1472		release __FCMutex
0	11559	1473	#line 11559 "NXCDefs.h"
0	17590	1473	#line 17590 "NXCDefs.h"
0	17591	1473		jmp __NXC_Label_main_inline_fclose_001_end_lbl
0	17590	1475	#line 17590 "NXCDefs.h"
0	17590	1475	#line 17590 "NXCDefs.h"
0	807	1475	#line 807 "C:\Users\ken\Desktop\C85\pfilter prob.nxc"
0	808	1475		mov __D0main, __D0fclose_inline_main
0	807	1477	#line 807 "C:\Users\ken\Desktop\C85\pfilter prob.nxc"
0	811	1477	#line 811 "C:\Users\ken\Desktop\C85\pfilter prob.nxc"
0	812	1477		set __D0main, 0
0	811	1480	#line 811 "C:\Users\ken\Desktop\C85\pfilter prob.nxc"
0	812	1480		mov __signed_stack_001main, __D0main
0	811	1482	#line 811 "C:\Users\ken\Desktop\C85\pfilter prob.nxc"
0	812	1482		index __ArrHelper__mainparticle_219_0, list, __signed_stack_001main
0	811	1486	#line 811 "C:\Users\ken\Desktop\C85\pfilter prob.nxc"
0	812	1486		mov p_max, __ArrHelper__mainparticle_219_0
0	812	1488	#line 812 "C:\Users\ken\Desktop\C85\pfilter prob.nxc"
0	815	1488	#line 815 "C:\Users\ken\Desktop\C85\pfilter prob.nxc"
0	816	1488		mov __DF0main, __constVal0
0	815	1491	#line 815 "C:\Users\ken\Desktop\C85\pfilter prob.nxc"
0	816	1491		mov p_max.prob, __DF0main
0	815	1494	#line 815 "C:\Users\ken\Desktop\C85\pfilter prob.nxc"
0	815	1494	#line 815 "C:\Users\ken\Desktop\C85\pfilter prob.nxc"
0	816	1494		mov __DF0main, p_max.prob
0	815	1497	#line 815 "C:\Users\ken\Desktop\C85\pfilter prob.nxc"
0	816	1497		mov __float_stack_001main, __DF0main
0	815	1499	#line 815 "C:\Users\ken\Desktop\C85\pfilter prob.nxc"
0	816	1499		mov __DF0main, __constValf0P9
0	815	1501	#line 815 "C:\Users\ken\Desktop\C85\pfilter prob.nxc"
0	816	1501		cmp 0, __zfmain, __float_stack_001main, __DF0main
0	815	1505	#line 815 "C:\Users\ken\Desktop\C85\pfilter prob.nxc"
0	816	1505		mov __D0main, __zfmain
0	816	1508	#line 816 "C:\Users\ken\Desktop\C85\pfilter prob.nxc"
0	817	1508		brtst 4, __NXC_Label_1679, __zfmain
0	817	1511	#line 817 "C:\Users\ken\Desktop\C85\pfilter prob.nxc"
0	818	1511		subcall move_robot, __move_robot_return
0	817	1514	#line 817 "C:\Users\ken\Desktop\C85\pfilter prob.nxc"
0	818	1514	#line 818 "C:\Users\ken\Desktop\C85\pfilter prob.nxc"
0	819	1514		subcall scan_surroundings, __scan_surroundings_return
0	818	1517	#line 818 "C:\Users\ken\Desktop\C85\pfilter prob.nxc"
0	819	1517		mov __main_7qG2_building_7qG2_000, __result_scan_surroundings
0	818	1520	#line 818 "C:\Users\ken\Desktop\C85\pfilter prob.nxc"
0	818	1520	#line 818 "C:\Users\ken\Desktop\C85\pfilter prob.nxc"
0	819	1520		set __D0main, 0
0	818	1523	#line 818 "C:\Users\ken\Desktop\C85\pfilter prob.nxc"
0	819	1523		mov __main_7qG2_i_7qG2_000, __D0main
0	818	1526	#line 818 "C:\Users\ken\Desktop\C85\pfilter prob.nxc"
0	819	1526		mov __D0main, __main_7qG2_i_7qG2_000
0	818	1529	#line 818 "C:\Users\ken\Desktop\C85\pfilter prob.nxc"
0	819	1529		mov __signed_stack_001main, __D0main
0	818	1531	#line 818 "C:\Users\ken\Desktop\C85\pfilter prob.nxc"
0	819	1531		set __D0main, 5
0	818	1534	#line 818 "C:\Users\ken\Desktop\C85\pfilter prob.nxc"
0	819	1534		mov __signed_stack_002main, __D0main
0	818	1536	#line 818 "C:\Users\ken\Desktop\C85\pfilter prob.nxc"
0	819	1536		set __D0main, 3
0	818	1539	#line 818 "C:\Users\ken\Desktop\C85\pfilter prob.nxc"
0	819	1539		mul __D0main, __signed_stack_002main, __D0main
0	818	1543	#line 818 "C:\Users\ken\Desktop\C85\pfilter prob.nxc"
0	819	1543		mov __signed_stack_002main, __D0main
0	818	1545	#line 818 "C:\Users\ken\Desktop\C85\pfilter prob.nxc"
0	819	1545		set __D0main, 4
0	818	1548	#line 818 "C:\Users\ken\Desktop\C85\pfilter prob.nxc"
0	819	1548		mul __D0main, __signed_stack_002main, __D0main
0	818	1552	#line 818 "C:\Users\ken\Desktop\C85\pfilter prob.nxc"
0	819	1552		cmp 0, __zfmain, __signed_stack_001main, __D0main
0	818	1556	#line 818 "C:\Users\ken\Desktop\C85\pfilter prob.nxc"
0	819	1556		mov __D0main, __zfmain
0	818	1559	#line 818 "C:\Users\ken\Desktop\C85\pfilter prob.nxc"
0	819	1559		brtst 4, __NXC_Label_1683, __zfmain
0	818	1562	#line 818 "C:\Users\ken\Desktop\C85\pfilter prob.nxc"
0	819	1562		jmp __NXC_Label_1684
0	818	1564	#line 818 "C:\Users\ken\Desktop\C85\pfilter prob.nxc"
0	819	1564		add __main_7qG2_i_7qG2_000, __main_7qG2_i_7qG2_000, __constVal1
0	820	1568	#line 820 "C:\Users\ken\Desktop\C85\pfilter prob.nxc"
0	821	1568		jmp __NXC_Label_1682
0	820	1570	#line 820 "C:\Users\ken\Desktop\C85\pfilter prob.nxc"
0	821	1570		mov __D0main, __main_7qG2_i_7qG2_000
0	820	1573	#line 820 "C:\Users\ken\Desktop\C85\pfilter prob.nxc"
0	821	1573		mov __signed_stack_001main, __D0main
0	820	1575	#line 820 "C:\Users\ken\Desktop\C85\pfilter prob.nxc"
0	821	1575		index __ArrHelper__mainparticle_219_0, list, __signed_stack_001main
0	820	1579	#line 820 "C:\Users\ken\Desktop\C85\pfilter prob.nxc"
0	821	1579		mov __D0main, __ArrHelper__mainparticle_219_0.x
0	820	1582	#line 820 "C:\Users\ken\Desktop\C85\pfilter prob.nxc"
0	821	1582		mov __signed_stack_001main, __D0main
0	820	1584	#line 820 "C:\Users\ken\Desktop\C85\pfilter prob.nxc"
0	821	1584		set __D0main, 5
0	820	1587	#line 820 "C:\Users\ken\Desktop\C85\pfilter prob.nxc"
0	821	1587		mul __D0main, __signed_stack_001main, __D0main
0	820	1591	#line 820 "C:\Users\ken\Desktop\C85\pfilter prob.nxc"
0	821	1591		mov __signed_stack_001main, __D0main
0	820	1593	#line 820 "C:\Users\ken\Desktop\C85\pfilter prob.nxc"
0	821	1593		mov __D0main, __main_7qG2_i_7qG2_000
0	820	1596	#line 820 "C:\Users\ken\Desktop\C85\pfilter prob.nxc"
0	821	1596		mov __signed_stack_002main, __D0main
0	820	1598	#line 820 "C:\Users\ken\Desktop\C85\pfilter prob.nxc"
0	821	1598		index __ArrHelper__mainparticle_219_0, list, __signed_stack_002main
0	820	1602	#line 820 "C:\Users\ken\Desktop\C85\pfilter prob.nxc"
0	821	1602		mov __D0main, __ArrHelper__mainparticle_219_0.y
0	822	1605	#line 822 "C:\Users\ken\Desktop\C85\pfilter prob.nxc"
0	823	1605		add __D0main, __signed_stack_001main, __D0main
0	822	1609	#line 822 "C:\Users\ken\Desktop\C85\pfilter prob.nxc"
0	823	1609		mov __main_7qG2_k_7qG2_000, __D0main
0	822	1612	#line 822 "C:\Users\ken\Desktop\C85\pfilter prob.nxc"
0	822	1612	#line 822 "C:\Users\ken\Desktop\C85\pfilter prob.nxc"
0	823	1612		mov __D0main, __main_7qG2_k_7qG2_000
0	822	1615	#line 822 "C:\Users\ken\Desktop\C85\pfilter prob.nxc"
0	823	1615		mov __signed_stack_001main, __D0main
0	822	1617	#line 822 "C:\Users\ken\Desktop\C85\pfilter prob.nxc"
0	823	1617		index __ArrHelper__mainintersection_219_0, __main_7qG2_map_7qG2_000, __signed_stack_001main
0	822	1621	#line 822 "C:\Users\ken\Desktop\C85\pfilter prob.nxc"
0	823	1621		mov __main_7qG2_p_inter_7qG2_000, __ArrHelper__mainintersection_219_0
0	823	1623	#line 823 "C:\Users\ken\Desktop\C85\pfilter prob.nxc"
0	823	1623	#line 823 "C:\Users\ken\Desktop\C85\pfilter prob.nxc"
0	824	1623		set __D0main, 0
0	823	1626	#line 823 "C:\Users\ken\Desktop\C85\pfilter prob.nxc"
0	824	1626		mov __signed_stack_001main, __D0main
0	824	1628	#line 824 "C:\Users\ken\Desktop\C85\pfilter prob.nxc"
0	825	1628		mov __D0main, __main_7qG2_p_inter_7qG2_000.NE
0	824	1631	#line 824 "C:\Users\ken\Desktop\C85\pfilter prob.nxc"
0	825	1631		replace colours, colours, __signed_stack_001main, __D0main
0	824	1636	#line 824 "C:\Users\ken\Desktop\C85\pfilter prob.nxc"
0	824	1636	#line 824 "C:\Users\ken\Desktop\C85\pfilter prob.nxc"
0	825	1636		set __D0main, 1
0	824	1639	#line 824 "C:\Users\ken\Desktop\C85\pfilter prob.nxc"
0	825	1639		mov __signed_stack_001main, __D0main
0	825	1641	#line 825 "C:\Users\ken\Desktop\C85\pfilter prob.nxc"
0	826	1641		mov __D0main, __main_7qG2_p_inter_7qG2_000.SE
0	825	1644	#line 825 "C:\Users\ken\Desktop\C85\pfilter prob.nxc"
0	826	1644		replace colours, colours, __signed_stack_001main, __D0main
0	825	1649	#line 825 "C:\Users\ken\Desktop\C85\pfilter prob.nxc"
0	825	1649	#line 825 "C:\Users\ken\Desktop\C85\pfilter prob.nxc"
0	826	1649		set __D0main, 2
0	825	1652	#line 825 "C:\Users\ken\Desktop\C85\pfilter prob.nxc"
0	826	1652		mov __signed_stack_001main, __D0main
0	826	1654	#line 826 "C:\Users\ken\Desktop\C85\pfilter prob.nxc"
0	827	1654		mov __D0main, __main_7qG2_p_inter_7qG2_000.SW
0	826	1657	#line 826 "C:\Users\ken\Desktop\C85\pfilter prob.nxc"
0	827	1657		replace colours, colours, __signed_stack_001main, __D0main
0	826	1662	#line 826 "C:\Users\ken\Desktop\C85\pfilter prob.nxc"
0	826	1662	#line 826 "C:\Users\ken\Desktop\C85\pfilter prob.nxc"
0	827	1662		set __D0main, 3
0	826	1665	#line 826 "C:\Users\ken\Desktop\C85\pfilter prob.nxc"
0	827	1665		mov __signed_stack_001main, __D0main
0	831	1667	#line 831 "C:\Users\ken\Desktop\C85\pfilter prob.nxc"
0	832	1667		mov __D0main, __main_7qG2_p_inter_7qG2_000.NW
0	831	1670	#line 831 "C:\Users\ken\Desktop\C85\pfilter prob.nxc"
0	832	1670		replace colours, colours, __signed_stack_001main, __D0main
0	831	1675	#line 831 "C:\Users\ken\Desktop\C85\pfilter prob.nxc"
0	831	1675	#line 831 "C:\Users\ken\Desktop\C85\pfilter prob.nxc"
0	832	1675		mov __D0main, __main_7qG2_i_7qG2_000
0	831	1678	#line 831 "C:\Users\ken\Desktop\C85\pfilter prob.nxc"
0	832	1678		mov __signed_stack_001main, __D0main
0	831	1680	#line 831 "C:\Users\ken\Desktop\C85\pfilter prob.nxc"
0	832	1680		index __ArrHelper__mainparticle_219_0, list, __signed_stack_001main
0	831	1684	#line 831 "C:\Users\ken\Desktop\C85\pfilter prob.nxc"
0	832	1684		mov __D0main, __ArrHelper__mainparticle_219_0.theta
0	831	1687	#line 831 "C:\Users\ken\Desktop\C85\pfilter prob.nxc"
0	832	1687		mov __orient_7qG2_heading_7qG2_000, __D0main
0	832	1690	#line 832 "C:\Users\ken\Desktop\C85\pfilter prob.nxc"
0	833	1690		subcall orient, __orient_return
0	832	1693	#line 832 "C:\Users\ken\Desktop\C85\pfilter prob.nxc"
0	832	1693	#line 832 "C:\Users\ken\Desktop\C85\pfilter prob.nxc"
0	833	1693		mov __D0main, __main_7qG2_k_7qG2_000
0	832	1696	#line 832 "C:\Users\ken\Desktop\C85\pfilter prob.nxc"
0	833	1696		mov __signed_stack_001main, __D0main
0	832	1698	#line 832 "C:\Users\ken\Desktop\C85\pfilter prob.nxc"
0	833	1698		set __D0main, 10
0	832	1701	#line 832 "C:\Users\ken\Desktop\C85\pfilter prob.nxc"
0	833	1701		cmp 4, __zfmain, __signed_stack_001main, __D0main
0	832	1705	#line 832 "C:\Users\ken\Desktop\C85\pfilter prob.nxc"
0	833	1705		mov __D0main, __zfmain
0	833	1708	#line 833 "C:\Users\ken\Desktop\C85\pfilter prob.nxc"
0	834	1708		brtst 4, __NXC_Label_1722, __zfmain
0	833	1711	#line 833 "C:\Users\ken\Desktop\C85\pfilter prob.nxc"
0	834	1711		set __D0main, 20
0	833	1714	#line 833 "C:\Users\ken\Desktop\C85\pfilter prob.nxc"
0	834	1714		mov __signed_stack_001main, __D0main
0	833	1716	#line 833 "C:\Users\ken\Desktop\C85\pfilter prob.nxc"
0	834	1716		set __D0main, 20
0	833	1719	#line 833 "C:\Users\ken\Desktop\C85\pfilter prob.nxc"
0	834	1719		mov __signed_stack_002main, __D0main
0	833	1721	#line 833 "C:\Users\ken\Desktop\C85\pfilter prob.nxc"
0	834	1721		mov __D0main, __main_7qG2_k_7qG2_000
0	834	1724	#line 834 "C:\Users\ken\Desktop\C85\pfilter prob.nxc"
0	835	1724		acquire __TextOutMutex
0	834	1725	#line 834 "C:\Users\ken\Desktop\C85\pfilter prob.nxc"
0	835	1725		mov __TextOutArgs.Location.X, __signed_stack_001main
0	834	1728	#line 834 "C:\Users\ken\Desktop\C85\pfilter prob.nxc"
0	835	1728		mov __TextOutArgs.Location.Y, __signed_stack_002main
0	834	1731	#line 834 "C:\Users\ken\Desktop\C85\pfilter prob.nxc"
0	835	1731		set __TextOutArgs.Options, 0
0	834	1734	#line 834 "C:\Users\ken\Desktop\C85\pfilter prob.nxc"
0	835	1734		numtostr __TextOutArgs.Text, __D0main
0	834	1737	#line 834 "C:\Users\ken\Desktop\C85\pfilter prob.nxc"
0	835	1737		syscall 13, __TextOutArgs
0	834	1740	#line 834 "C:\Users\ken\Desktop\C85\pfilter prob.nxc"
0	835	1740		mov __D0main, __TextOutArgs.Result
0	834	1743	#line 834 "C:\Users\ken\Desktop\C85\pfilter prob.nxc"
0	835	1743		release __TextOutMutex
0	834	1744	#line 834 "C:\Users\ken\Desktop\C85\pfilter prob.nxc"
0	834	1744	#line 834 "C:\Users\ken\Desktop\C85\pfilter prob.nxc"
0	835	1744		set __D0main, 50
0	834	1747	#line 834 "C:\Users\ken\Desktop\C85\pfilter prob.nxc"
0	835	1747		mov __signed_stack_001main, __D0main
0	834	1749	#line 834 "C:\Users\ken\Desktop\C85\pfilter prob.nxc"
0	835	1749		set __D0main, 50
0	834	1752	#line 834 "C:\Users\ken\Desktop\C85\pfilter prob.nxc"
0	835	1752		mov __signed_stack_002main, __D0main
0	834	1754	#line 834 "C:\Users\ken\Desktop\C85\pfilter prob.nxc"
0	835	1754		mov __D0main, __main_7qG2_i_7qG2_000
0	834	1757	#line 834 "C:\Users\ken\Desktop\C85\pfilter prob.nxc"
0	835	1757		mov __signed_stack_003main, __D0main
0	834	1759	#line 834 "C:\Users\ken\Desktop\C85\pfilter prob.nxc"
0	835	1759		index __ArrHelper__mainparticle_219_0, list, __signed_stack_003main
0	834	1763	#line 834 "C:\Users\ken\Desktop\C85\pfilter prob.nxc"
0	835	1763		mov __D0main, __ArrHelper__mainparticle_219_0.theta
0	835	1766	#line 835 "C:\Users\ken\Desktop\C85\pfilter prob.nxc"
0	836	1766		acquire __TextOutMutex
0	835	1767	#line 835 "C:\Users\ken\Desktop\C85\pfilter prob.nxc"
0	836	1767		mov __TextOutArgs.Location.X, __signed_stack_001main
0	835	1770	#line 835 "C:\Users\ken\Desktop\C85\pfilter prob.nxc"
0	836	1770		mov __TextOutArgs.Location.Y, __signed_stack_002main
0	835	1773	#line 835 "C:\Users\ken\Desktop\C85\pfilter prob.nxc"
0	836	1773		set __TextOutArgs.Options, 0
0	835	1776	#line 835 "C:\Users\ken\Desktop\C85\pfilter prob.nxc"
0	836	1776		numtostr __TextOutArgs.Text, __D0main
0	835	1779	#line 835 "C:\Users\ken\Desktop\C85\pfilter prob.nxc"
0	836	1779		syscall 13, __TextOutArgs
0	835	1782	#line 835 "C:\Users\ken\Desktop\C85\pfilter prob.nxc"
0	836	1782		mov __D0main, __TextOutArgs.Result
0	835	1785	#line 835 "C:\Users\ken\Desktop\C85\pfilter prob.nxc"
0	836	1785		release __TextOutMutex
0	835	1786	#line 835 "C:\Users\ken\Desktop\C85\pfilter prob.nxc"
0	835	1786	#line 835 "C:\Users\ken\Desktop\C85\pfilter prob.nxc"
0	836	1786		set __D0main, 10
0	835	1789	#line 835 "C:\Users\ken\Desktop\C85\pfilter prob.nxc"
0	836	1789		mov __signed_stack_001main, __D0main
0	835	1791	#line 835 "C:\Users\ken\Desktop\C85\pfilter prob.nxc"
0	836	1791		set __D0main, 10
0	835	1794	#line 835 "C:\Users\ken\Desktop\C85\pfilter prob.nxc"
0	836	1794		mov __signed_stack_002main, __D0main
0	835	1796	#line 835 "C:\Users\ken\Desktop\C85\pfilter prob.nxc"
0	836	1796		set __D0main, 0
0	835	1799	#line 835 "C:\Users\ken\Desktop\C85\pfilter prob.nxc"
0	836	1799		mov __signed_stack_003main, __D0main
0	835	1801	#line 835 "C:\Users\ken\Desktop\C85\pfilter prob.nxc"
0	836	1801		index __ArrHelper__main_73_0, colours, __signed_stack_003main
0	835	1805	#line 835 "C:\Users\ken\Desktop\C85\pfilter prob.nxc"
0	836	1805		mov __D0main, __ArrHelper__main_73_0
0	835	1808	#line 835 "C:\Users\ken\Desktop\C85\pfilter prob.nxc"
0	836	1808		acquire __TextOutMutex
0	835	1809	#line 835 "C:\Users\ken\Desktop\C85\pfilter prob.nxc"
0	836	1809		mov __TextOutArgs.Location.X, __signed_stack_001main
0	835	1812	#line 835 "C:\Users\ken\Desktop\C85\pfilter prob.nxc"
0	836	1812		mov __TextOutArgs.Location.Y, __signed_stack_002main
0	835	1815	#line 835 "C:\Users\ken\Desktop\C85\pfilter prob.nxc"
0	836	1815		set __TextOutArgs.Options, 0
0	835	1818	#line 835 "C:\Users\ken\Desktop\C85\pfilter prob.nxc"
0	836	1818		numtostr __TextOutArgs.Text, __D0main
0	835	1821	#line 835 "C:\Users\ken\Desktop\C85\pfilter prob.nxc"
0	836	1821		syscall 13, __TextOutArgs
0	835	1824	#line 835 "C:\Users\ken\Desktop\C85\pfilter prob.nxc"
0	836	1824		mov __D0main, __TextOutArgs.Result
0	835	1827	#line 835 "C:\Users\ken\Desktop\C85\pfilter prob.nxc"
0	836	1827		release __TextOutMutex
0	835	1828	#line 835 "C:\Users\ken\Desktop\C85\pfilter prob.nxc"
0	835	1828	#line 835 "C:\Users\ken\Desktop\C85\pfilter prob.nxc"
0	836	1828		set __D0main, 10
0	835	1831	#line 835 "C:\Users\ken\Desktop\C85\pfilter prob.nxc"
0	836	1831		mov __signed_stack_001main, __D0main
0	835	1833	#line 835 "C:\Users\ken\Desktop\C85\pfilter prob.nxc"
0	836	1833		set __D0main, 20
0	835	1836	#line 835 "C:\Users\ken\Desktop\C85\pfilter prob.nxc"
0	836	1836		mov __signed_stack_002main, __D0main
0	835	1838	#line 835 "C:\Users\ken\Desktop\C85\pfilter prob.nxc"
0	836	1838		set __D0main, 1
0	835	1841	#line 835 "C:\Users\ken\Desktop\C85\pfilter prob.nxc"
0	836	1841		mov __signed_stack_003main, __D0main
0	835	1843	#line 835 "C:\Users\ken\Desktop\C85\pfilter prob.nxc"
0	836	1843		index __ArrHelper__main_73_0, colours, __signed_stack_003main
0	835	1847	#line 835 "C:\Users\ken\Desktop\C85\pfilter prob.nxc"
0	836	1847		mov __D0main, __ArrHelper__main_73_0
0	835	1850	#line 835 "C:\Users\ken\Desktop\C85\pfilter prob.nxc"
0	836	1850		acquire __TextOutMutex
0	835	1851	#line 835 "C:\Users\ken\Desktop\C85\pfilter prob.nxc"
0	836	1851		mov __TextOutArgs.Location.X, __signed_stack_001main
0	835	1854	#line 835 "C:\Users\ken\Desktop\C85\pfilter prob.nxc"
0	836	1854		mov __TextOutArgs.Location.Y, __signed_stack_002main
0	835	1857	#line 835 "C:\Users\ken\Desktop\C85\pfilter prob.nxc"
0	836	1857		set __TextOutArgs.Options, 0
0	835	1860	#line 835 "C:\Users\ken\Desktop\C85\pfilter prob.nxc"
0	836	1860		numtostr __TextOutArgs.Text, __D0main
0	835	1863	#line 835 "C:\Users\ken\Desktop\C85\pfilter prob.nxc"
0	836	1863		syscall 13, __TextOutArgs
0	835	1866	#line 835 "C:\Users\ken\Desktop\C85\pfilter prob.nxc"
0	836	1866		mov __D0main, __TextOutArgs.Result
0	835	1869	#line 835 "C:\Users\ken\Desktop\C85\pfilter prob.nxc"
0	836	1869		release __TextOutMutex
0	835	1870	#line 835 "C:\Users\ken\Desktop\C85\pfilter prob.nxc"
0	835	1870	#line 835 "C:\Users\ken\Desktop\C85\pfilter prob.nxc"
0	836	1870		set __D0main, 10
0	835	1873	#line 835 "C:\Users\ken\Desktop\C85\pfilter prob.nxc"
0	836	1873		mov __signed_stack_001main, __D0main
0	835	1875	#line 835 "C:\Users\ken\Desktop\C85\pfilter prob.nxc"
0	836	1875		set __D0main, 30
0	835	1878	#line 835 "C:\Users\ken\Desktop\C85\pfilter prob.nxc"
0	836	1878		mov __signed_stack_002main, __D0main
0	835	1880	#line 835 "C:\Users\ken\Desktop\C85\pfilter prob.nxc"
0	836	1880		set __D0main, 2
0	835	1883	#line 835 "C:\Users\ken\Desktop\C85\pfilter prob.nxc"
0	836	1883		mov __signed_stack_003main, __D0main
0	835	1885	#line 835 "C:\Users\ken\Desktop\C85\pfilter prob.nxc"
0	836	1885		index __ArrHelper__main_73_0, colours, __signed_stack_003main
0	835	1889	#line 835 "C:\Users\ken\Desktop\C85\pfilter prob.nxc"
0	836	1889		mov __D0main, __ArrHelper__main_73_0
0	835	1892	#line 835 "C:\Users\ken\Desktop\C85\pfilter prob.nxc"
0	836	1892		acquire __TextOutMutex
0	835	1893	#line 835 "C:\Users\ken\Desktop\C85\pfilter prob.nxc"
0	836	1893		mov __TextOutArgs.Location.X, __signed_stack_001main
0	835	1896	#line 835 "C:\Users\ken\Desktop\C85\pfilter prob.nxc"
0	836	1896		mov __TextOutArgs.Location.Y, __signed_stack_002main
0	835	1899	#line 835 "C:\Users\ken\Desktop\C85\pfilter prob.nxc"
0	836	1899		set __TextOutArgs.Options, 0
0	835	1902	#line 835 "C:\Users\ken\Desktop\C85\pfilter prob.nxc"
0	836	1902		numtostr __TextOutArgs.Text, __D0main
0	835	1905	#line 835 "C:\Users\ken\Desktop\C85\pfilter prob.nxc"
0	836	1905		syscall 13, __TextOutArgs
0	835	1908	#line 835 "C:\Users\ken\Desktop\C85\pfilter prob.nxc"
0	836	1908		mov __D0main, __TextOutArgs.Result
0	835	1911	#line 835 "C:\Users\ken\Desktop\C85\pfilter prob.nxc"
0	836	1911		release __TextOutMutex
0	835	1912	#line 835 "C:\Users\ken\Desktop\C85\pfilter prob.nxc"
0	835	1912	#line 835 "C:\Users\ken\Desktop\C85\pfilter prob.nxc"
0	836	1912		set __D0main, 10
0	835	1915	#line 835 "C:\Users\ken\Desktop\C85\pfilter prob.nxc"
0	836	1915		mov __signed_stack_001main, __D0main
0	835	1917	#line 835 "C:\Users\ken\Desktop\C85\pfilter prob.nxc"
0	836	1917		set __D0main, 40
0	835	1920	#line 835 "C:\Users\ken\Desktop\C85\pfilter prob.nxc"
0	836	1920		mov __signed_stack_002main, __D0main
0	835	1922	#line 835 "C:\Users\ken\Desktop\C85\pfilter prob.nxc"
0	836	1922		set __D0main, 3
0	835	1925	#line 835 "C:\Users\ken\Desktop\C85\pfilter prob.nxc"
0	836	1925		mov __signed_stack_003main, __D0main
0	835	1927	#line 835 "C:\Users\ken\Desktop\C85\pfilter prob.nxc"
0	836	1927		index __ArrHelper__main_73_0, colours, __signed_stack_003main
0	835	1931	#line 835 "C:\Users\ken\Desktop\C85\pfilter prob.nxc"
0	836	1931		mov __D0main, __ArrHelper__main_73_0
0	836	1934	#line 836 "C:\Users\ken\Desktop\C85\pfilter prob.nxc"
0	837	1934		acquire __TextOutMutex
0	836	1935	#line 836 "C:\Users\ken\Desktop\C85\pfilter prob.nxc"
0	837	1935		mov __TextOutArgs.Location.X, __signed_stack_001main
0	836	1938	#line 836 "C:\Users\ken\Desktop\C85\pfilter prob.nxc"
0	837	1938		mov __TextOutArgs.Location.Y, __signed_stack_002main
0	836	1941	#line 836 "C:\Users\ken\Desktop\C85\pfilter prob.nxc"
0	837	1941		set __TextOutArgs.Options, 0
0	836	1944	#line 836 "C:\Users\ken\Desktop\C85\pfilter prob.nxc"
0	837	1944		numtostr __TextOutArgs.Text, __D0main
0	836	1947	#line 836 "C:\Users\ken\Desktop\C85\pfilter prob.nxc"
0	837	1947		syscall 13, __TextOutArgs
0	836	1950	#line 836 "C:\Users\ken\Desktop\C85\pfilter prob.nxc"
0	837	1950		mov __D0main, __TextOutArgs.Result
0	836	1953	#line 836 "C:\Users\ken\Desktop\C85\pfilter prob.nxc"
0	837	1953		release __TextOutMutex
0	836	1954	#line 836 "C:\Users\ken\Desktop\C85\pfilter prob.nxc"
0	836	1954	#line 836 "C:\Users\ken\Desktop\C85\pfilter prob.nxc"
0	837	1954		set __D0main, 10000
0	836	1957	#line 836 "C:\Users\ken\Desktop\C85\pfilter prob.nxc"
0	837	1957		mov __Wait_7qG2_ms_7qG2_000_inline_main, __D0main
0	7921	1959	#line 7921 "NXCDefs.h"
0	7922	1959		wait2 NA, __Wait_7qG2_ms_7qG2_000_inline_main
0	7921	1962	#line 7921 "NXCDefs.h"
0	837	1962	#line 837 "C:\Users\ken\Desktop\C85\pfilter prob.nxc"
0	838	1962	#line 838 "C:\Users\ken\Desktop\C85\pfilter prob.nxc"
0	839	1962	#line 839 "C:\Users\ken\Desktop\C85\pfilter prob.nxc"
0	840	1962		mov __D0main, __main_7qG2_building_7qG2_000.NE
0	839	1965	#line 839 "C:\Users\ken\Desktop\C85\pfilter prob.nxc"
0	840	1965		mov __signed_stack_001main, __D0main
0	839	1967	#line 839 "C:\Users\ken\Desktop\C85\pfilter prob.nxc"
0	840	1967		set __D0main, 0
0	839	1970	#line 839 "C:\Users\ken\Desktop\C85\pfilter prob.nxc"
0	840	1970		mov __signed_stack_002main, __D0main
0	839	1972	#line 839 "C:\Users\ken\Desktop\C85\pfilter prob.nxc"
0	840	1972		index __ArrHelper__main_73_0, colours, __signed_stack_002main
0	839	1976	#line 839 "C:\Users\ken\Desktop\C85\pfilter prob.nxc"
0	840	1976		mov __D0main, __ArrHelper__main_73_0
0	840	1979	#line 840 "C:\Users\ken\Desktop\C85\pfilter prob.nxc"
0	841	1979		cmp 4, __zfmain, __signed_stack_001main, __D0main
0	840	1983	#line 840 "C:\Users\ken\Desktop\C85\pfilter prob.nxc"
0	841	1983		mov __D0main, __zfmain
0	840	1986	#line 840 "C:\Users\ken\Desktop\C85\pfilter prob.nxc"
0	841	1986		brtst 4, __NXC_Label_1772, __zfmain
0	840	1989	#line 840 "C:\Users\ken\Desktop\C85\pfilter prob.nxc"
0	841	1989		mov __signed_stack_001main, __D0main
0	840	1991	#line 840 "C:\Users\ken\Desktop\C85\pfilter prob.nxc"
0	841	1991		mov __D0main, __main_7qG2_building_7qG2_000.NW
0	840	1994	#line 840 "C:\Users\ken\Desktop\C85\pfilter prob.nxc"
0	841	1994		mov __signed_stack_002main, __D0main
0	840	1996	#line 840 "C:\Users\ken\Desktop\C85\pfilter prob.nxc"
0	841	1996		set __D0main, 1
0	840	1999	#line 840 "C:\Users\ken\Desktop\C85\pfilter prob.nxc"
0	841	1999		mov __signed_stack_003main, __D0main
0	840	2001	#line 840 "C:\Users\ken\Desktop\C85\pfilter prob.nxc"
0	841	2001		index __ArrHelper__main_73_0, colours, __signed_stack_003main
0	840	2005	#line 840 "C:\Users\ken\Desktop\C85\pfilter prob.nxc"
0	841	2005		mov __D0main, __ArrHelper__main_73_0
0	841	2008	#line 841 "C:\Users\ken\Desktop\C85\pfilter prob.nxc"
0	842	2008		cmp 4, __zfmain, __signed_stack_002main, __D0main
0	841	2012	#line 841 "C:\Users\ken\Desktop\C85\pfilter prob.nxc"
0	842	2012		mov __D0main, __zfmain
0	841	2015	#line 841 "C:\Users\ken\Desktop\C85\pfilter prob.nxc"
0	842	2015		and __D0main, __signed_stack_001main, __D0main
0	841	2019	#line 841 "C:\Users\ken\Desktop\C85\pfilter prob.nxc"
0	842	2019		tst 5, __zfmain, __D0main
0	841	2022	#line 841 "C:\Users\ken\Desktop\C85\pfilter prob.nxc"
0	842	2022		mov __D0main, __zfmain
0	841	2025	#line 841 "C:\Users\ken\Desktop\C85\pfilter prob.nxc"
0	842	2025		brtst 4, __NXC_Label_1772, __zfmain
0	841	2028	#line 841 "C:\Users\ken\Desktop\C85\pfilter prob.nxc"
0	842	2028		mov __signed_stack_001main, __D0main
0	841	2030	#line 841 "C:\Users\ken\Desktop\C85\pfilter prob.nxc"
0	842	2030		mov __D0main, __main_7qG2_building_7qG2_000.SE
0	841	2033	#line 841 "C:\Users\ken\Desktop\C85\pfilter prob.nxc"
0	842	2033		mov __signed_stack_002main, __D0main
0	841	2035	#line 841 "C:\Users\ken\Desktop\C85\pfilter prob.nxc"
0	842	2035		set __D0main, 2
0	841	2038	#line 841 "C:\Users\ken\Desktop\C85\pfilter prob.nxc"
0	842	2038		mov __signed_stack_003main, __D0main
0	841	2040	#line 841 "C:\Users\ken\Desktop\C85\pfilter prob.nxc"
0	842	2040		index __ArrHelper__main_73_0, colours, __signed_stack_003main
0	841	2044	#line 841 "C:\Users\ken\Desktop\C85\pfilter prob.nxc"
0	842	2044		mov __D0main, __ArrHelper__main_73_0
0	842	2047	#line 842 "C:\Users\ken\Desktop\C85\pfilter prob.nxc"
0	843	2047		cmp 4, __zfmain, __signed_stack_002main, __D0main
0	842	2051	#line 842 "C:\Users\ken\Desktop\C85\pfilter prob.nxc"
0	843	2051		mov __D0main, __zfmain
0	842	2054	#line 842 "C:\Users\ken\Desktop\C85\pfilter prob.nxc"
0	843	2054		and __D0main, __signed_stack_001main, __D0main
0	842	2058	#line 842 "C:\Users\ken\Desktop\C85\pfilter prob.nxc"
0	843	2058		tst 5, __zfmain, __D0main
0	842	2061	#line 842 "C:\Users\ken\Desktop\C85\pfilter prob.nxc"
0	843	2061		mov __D0main, __zfmain
0	842	2064	#line 842 "C:\Users\ken\Desktop\C85\pfilter prob.nxc"
0	843	2064		brtst 4, __NXC_Label_1772, __zfmain
0	842	2067	#line 842 "C:\Users\ken\Desktop\C85\pfilter prob.nxc"
0	843	2067		mov __signed_stack_001main, __D0main
0	842	2069	#line 842 "C:\Users\ken\Desktop\C85\pfilter prob.nxc"
0	843	2069		mov __D0main, __main_7qG2_building_7qG2_000.SW
0	842	2072	#line 842 "C:\Users\ken\Desktop\C85\pfilter prob.nxc"
0	843	2072		mov __signed_stack_002main, __D0main
0	842	2074	#line 842 "C:\Users\ken\Desktop\C85\pfilter prob.nxc"
0	843	2074		set __D0main, 3
0	842	2077	#line 842 "C:\Users\ken\Desktop\C85\pfilter prob.nxc"
0	843	2077		mov __signed_stack_003main, __D0main
0	842	2079	#line 842 "C:\Users\ken\Desktop\C85\pfilter prob.nxc"
0	843	2079		index __ArrHelper__main_73_0, colours, __signed_stack_003main
0	842	2083	#line 842 "C:\Users\ken\Desktop\C85\pfilter prob.nxc"
0	843	2083		mov __D0main, __ArrHelper__main_73_0
0	843	2086	#line 843 "C:\Users\ken\Desktop\C85\pfilter prob.nxc"
0	844	2086		cmp 4, __zfmain, __signed_stack_002main, __D0main
0	843	2090	#line 843 "C:\Users\ken\Desktop\C85\pfilter prob.nxc"
0	844	2090		mov __D0main, __zfmain
0	843	2093	#line 843 "C:\Users\ken\Desktop\C85\pfilter prob.nxc"
0	844	2093		and __D0main, __signed_stack_001main, __D0main
0	844	2097	#line 844 "C:\Users\ken\Desktop\C85\pfilter prob.nxc"
0	845	2097		tst 5, __zfmain, __D0main
0	844	2100	#line 844 "C:\Users\ken\Desktop\C85\pfilter prob.nxc"
0	845	2100		brtst 4, __NXC_Label_1789, __zfmain
0	844	2103	#line 844 "C:\Users\ken\Desktop\C85\pfilter prob.nxc"
0	845	2103		mov __D0main, __main_7qG2_i_7qG2_000
0	844	2106	#line 844 "C:\Users\ken\Desktop\C85\pfilter prob.nxc"
0	845	2106		mov __signed_stack_001main, __D0main
0	844	2108	#line 844 "C:\Users\ken\Desktop\C85\pfilter prob.nxc"
0	845	2108		index __ArrHelper__mainparticle_219_0, list, __signed_stack_001main
0	844	2112	#line 844 "C:\Users\ken\Desktop\C85\pfilter prob.nxc"
0	845	2112		mov __DF0main, __ArrHelper__mainparticle_219_0.prob
0	844	2115	#line 844 "C:\Users\ken\Desktop\C85\pfilter prob.nxc"
0	845	2115		mov __float_stack_001main, __DF0main
0	844	2117	#line 844 "C:\Users\ken\Desktop\C85\pfilter prob.nxc"
0	845	2117		mov __DF0main, __constValf0P9
0	844	2119	#line 844 "C:\Users\ken\Desktop\C85\pfilter prob.nxc"
0	845	2119		add __DF0main, __float_stack_001main, __DF0main
0	844	2123	#line 844 "C:\Users\ken\Desktop\C85\pfilter prob.nxc"
0	845	2123		mov __main_7qG2_newp_7qG2_000, __DF0main
0	844	2125	#line 844 "C:\Users\ken\Desktop\C85\pfilter prob.nxc"
0	844	2125	#line 844 "C:\Users\ken\Desktop\C85\pfilter prob.nxc"
0	845	2125		set __D0main, 1000
0	844	2128	#line 844 "C:\Users\ken\Desktop\C85\pfilter prob.nxc"
0	845	2128	#pragma macro 8
0	845	2128		acquire __RandomMutex
0	845	2129		syscall 24, __RandomArgs
0	845	2132		mov __RandomTmp, __RandomArgs.Result
0	845	2135		add __RandomTmp, __RandomTmp, __constVal32768
0	845	2139		mul __RandomTmp, __RandomTmp, __D0main
0	845	2143		div __RandomTmp, __RandomTmp, __constVal65536
0	845	2147		mov __D0main, __RandomTmp
0	845	2149		release __RandomMutex
0	12216	2150	#line 12216 "C:\Users\ken\Desktop\C85\pfilter prob.nxc"
0	844	2150	#line 844 "C:\Users\ken\Desktop\C85\pfilter prob.nxc"
0	845	2150		mov __signed_stack_001main, __D0main
0	844	2152	#line 844 "C:\Users\ken\Desktop\C85\pfilter prob.nxc"
0	845	2152		set __D0main, 200
0	844	2155	#line 844 "C:\Users\ken\Desktop\C85\pfilter prob.nxc"
0	845	2155		add __D0main, __signed_stack_001main, __D0main
0	844	2159	#line 844 "C:\Users\ken\Desktop\C85\pfilter prob.nxc"
0	845	2159		mov __signed_stack_001main, __D0main
0	844	2161	#line 844 "C:\Users\ken\Desktop\C85\pfilter prob.nxc"
0	845	2161		set __D0main, 400
0	844	2164	#line 844 "C:\Users\ken\Desktop\C85\pfilter prob.nxc"
0	845	2164		mov __signed_stack_002main, __D0main
0	844	2166	#line 844 "C:\Users\ken\Desktop\C85\pfilter prob.nxc"
0	845	2166		set __D0main, 3
0	844	2169	#line 844 "C:\Users\ken\Desktop\C85\pfilter prob.nxc"
0	845	2169		mov __signed_stack_003main, __D0main
0	844	2171	#line 844 "C:\Users\ken\Desktop\C85\pfilter prob.nxc"
0	845	2171		set __D0main, 0
0	844	2174	#line 844 "C:\Users\ken\Desktop\C85\pfilter prob.nxc"
0	845	2174		acquire __SPTArgsMutex
0	844	2175	#line 844 "C:\Users\ken\Desktop\C85\pfilter prob.nxc"
0	845	2175		mov __SPTArgs.Frequency, __signed_stack_001main
0	844	2178	#line 844 "C:\Users\ken\Desktop\C85\pfilter prob.nxc"
0	845	2178		mov __SPTArgs.Duration, __signed_stack_002main
0	844	2181	#line 844 "C:\Users\ken\Desktop\C85\pfilter prob.nxc"
0	845	2181		mov __SPTArgs.Volume, __signed_stack_003main
0	844	2184	#line 844 "C:\Users\ken\Desktop\C85\pfilter prob.nxc"
0	845	2184		mov __SPTArgs.Loop, __D0main
0	844	2187	#line 844 "C:\Users\ken\Desktop\C85\pfilter prob.nxc"
0	845	2187		syscall 10, __SPTArgs
0	844	2190	#line 844 "C:\Users\ken\Desktop\C85\pfilter prob.nxc"
0	845	2190		mov __D0main, __SPTArgs.Result
0	844	2193	#line 844 "C:\Users\ken\Desktop\C85\pfilter prob.nxc"
0	845	2193		release __SPTArgsMutex
0	844	2194	#line 844 "C:\Users\ken\Desktop\C85\pfilter prob.nxc"
0	844	2194	#line 844 "C:\Users\ken\Desktop\C85\pfilter prob.nxc"
0	845	2194		set __D0main, 10000
0	844	2197	#line 844 "C:\Users\ken\Desktop\C85\pfilter prob.nxc"
0	845	2197		mov __Wait_7qG2_ms_7qG2_000_inline_main, __D0main
0	7921	2199	#line 7921 "NXCDefs.h"
0	7922	2199		wait2 NA, __Wait_7qG2_ms_7qG2_000_inline_main
0	7921	2202	#line 7921 "NXCDefs.h"
0	845	2202	#line 845 "C:\Users\ken\Desktop\C85\pfilter prob.nxc"
0	845	2202	#line 845 "C:\Users\ken\Desktop\C85\pfilter prob.nxc"
0	846	2202		jmp __NXC_Label_1806
0	845	2204	#line 845 "C:\Users\ken\Desktop\C85\pfilter prob.nxc"
0	846	2204		mov __D0main, __main_7qG2_i_7qG2_000
0	845	2207	#line 845 "C:\Users\ken\Desktop\C85\pfilter prob.nxc"
0	846	2207		mov __signed_stack_001main, __D0main
0	845	2209	#line 845 "C:\Users\ken\Desktop\C85\pfilter prob.nxc"
0	846	2209		index __ArrHelper__mainparticle_219_0, list, __signed_stack_001main
0	845	2213	#line 845 "C:\Users\ken\Desktop\C85\pfilter prob.nxc"
0	846	2213		mov __DF0main, __ArrHelper__mainparticle_219_0.prob
0	845	2216	#line 845 "C:\Users\ken\Desktop\C85\pfilter prob.nxc"
0	846	2216		mov __float_stack_001main, __DF0main
0	845	2218	#line 845 "C:\Users\ken\Desktop\C85\pfilter prob.nxc"
0	846	2218		mov __DF0main, __constValf0P1
0	845	2220	#line 845 "C:\Users\ken\Desktop\C85\pfilter prob.nxc"
0	846	2220		add __DF0main, __float_stack_001main, __DF0main
0	845	2224	#line 845 "C:\Users\ken\Desktop\C85\pfilter prob.nxc"
0	846	2224		mov __main_7qG2_newp_7qG2_000, __DF0main
0	845	2226	#line 845 "C:\Users\ken\Desktop\C85\pfilter prob.nxc"
0	851	2226	#line 851 "C:\Users\ken\Desktop\C85\pfilter prob.nxc"
0	851	2226	#line 851 "C:\Users\ken\Desktop\C85\pfilter prob.nxc"
0	852	2226		mov __D0main, __main_7qG2_i_7qG2_000
0	851	2229	#line 851 "C:\Users\ken\Desktop\C85\pfilter prob.nxc"
0	852	2229		mov __signed_stack_001main, __D0main
0	851	2231	#line 851 "C:\Users\ken\Desktop\C85\pfilter prob.nxc"
0	852	2231		index __ArrHelper__mainparticle_219_0, list, __signed_stack_001main
0	851	2235	#line 851 "C:\Users\ken\Desktop\C85\pfilter prob.nxc"
0	852	2235		mov __D0main, __ArrHelper__mainparticle_219_0.x
0	851	2238	#line 851 "C:\Users\ken\Desktop\C85\pfilter prob.nxc"
0	852	2238		mov __update_intersection_probability_7qG2_x_7qG2_000, __D0main
0	851	2241	#line 851 "C:\Users\ken\Desktop\C85\pfilter prob.nxc"
0	852	2241		mov __D0main, __main_7qG2_i_7qG2_000
0	851	2244	#line 851 "C:\Users\ken\Desktop\C85\pfilter prob.nxc"
0	852	2244		mov __signed_stack_001main, __D0main
0	851	2246	#line 851 "C:\Users\ken\Desktop\C85\pfilter prob.nxc"
0	852	2246		index __ArrHelper__mainparticle_219_0, list, __signed_stack_001main
0	851	2250	#line 851 "C:\Users\ken\Desktop\C85\pfilter prob.nxc"
0	852	2250		mov __D0main, __ArrHelper__mainparticle_219_0.y
0	851	2253	#line 851 "C:\Users\ken\Desktop\C85\pfilter prob.nxc"
0	852	2253		mov __update_intersection_probability_7qG2_y_7qG2_000, __D0main
0	851	2256	#line 851 "C:\Users\ken\Desktop\C85\pfilter prob.nxc"
0	852	2256		mov __D0main, __main_7qG2_i_7qG2_000
0	851	2259	#line 851 "C:\Users\ken\Desktop\C85\pfilter prob.nxc"
0	852	2259		mov __signed_stack_001main, __D0main
0	851	2261	#line 851 "C:\Users\ken\Desktop\C85\pfilter prob.nxc"
0	852	2261		index __ArrHelper__mainparticle_219_0, list, __signed_stack_001main
0	851	2265	#line 851 "C:\Users\ken\Desktop\C85\pfilter prob.nxc"
0	852	2265		mov __D0main, __ArrHelper__mainparticle_219_0.theta
0	851	2268	#line 851 "C:\Users\ken\Desktop\C85\pfilter prob.nxc"
0	852	2268		mov __update_intersection_probability_7qG2_heading_7qG2_000, __D0main
0	851	2271	#line 851 "C:\Users\ken\Desktop\C85\pfilter prob.nxc"
0	852	2271		mov __DF0main, __main_7qG2_newp_7qG2_000
0	851	2273	#line 851 "C:\Users\ken\Desktop\C85\pfilter prob.nxc"
0	852	2273		mov __update_intersection_probability_7qG2_probability_7qG2_000, __DF0main
0	855	2275	#line 855 "C:\Users\ken\Desktop\C85\pfilter prob.nxc"
0	856	2275		subcall update_intersection_probability, __update_intersection_probability_return
0	855	2278	#line 855 "C:\Users\ken\Desktop\C85\pfilter prob.nxc"
0	856	2278	#line 856 "C:\Users\ken\Desktop\C85\pfilter prob.nxc"
0	857	2278		jmp __NXC_Label_1685
0	856	2280	#line 856 "C:\Users\ken\Desktop\C85\pfilter prob.nxc"
0	857	2280	#line 857 "C:\Users\ken\Desktop\C85\pfilter prob.nxc"
0	858	2280		subcall normalize, __normalize_return
0	857	2283	#line 857 "C:\Users\ken\Desktop\C85\pfilter prob.nxc"
0	858	2283	#line 858 "C:\Users\ken\Desktop\C85\pfilter prob.nxc"
0	859	2283		subcall find_max_p, __find_max_p_return
0	858	2286	#line 858 "C:\Users\ken\Desktop\C85\pfilter prob.nxc"
0	859	2286	#line 859 "C:\Users\ken\Desktop\C85\pfilter prob.nxc"
0	860	2286		subcall pmove_all, __pmove_all_return
0	859	2289	#line 859 "C:\Users\ken\Desktop\C85\pfilter prob.nxc"
0	861	2289	#line 861 "C:\Users\ken\Desktop\C85\pfilter prob.nxc"
0	862	2289		mov __DF0main, p_max.prob
0	861	2292	#line 861 "C:\Users\ken\Desktop\C85\pfilter prob.nxc"
0	862	2292		mov __main_7qG2_robp_7qG2_000, __DF0main
0	861	2294	#line 861 "C:\Users\ken\Desktop\C85\pfilter prob.nxc"
0	861	2294	#line 861 "C:\Users\ken\Desktop\C85\pfilter prob.nxc"
0	862	2294		set __D0main, 1000
0	861	2297	#line 861 "C:\Users\ken\Desktop\C85\pfilter prob.nxc"
0	862	2297	#pragma macro 8
0	862	2297		acquire __RandomMutex
0	862	2298		syscall 24, __RandomArgs
0	862	2301		mov __RandomTmp, __RandomArgs.Result
0	862	2304		add __RandomTmp, __RandomTmp, __constVal32768
0	862	2308		mul __RandomTmp, __RandomTmp, __D0main
0	862	2312		div __RandomTmp, __RandomTmp, __constVal65536
0	862	2316		mov __D0main, __RandomTmp
0	862	2318		release __RandomMutex
0	12372	2319	#line 12372 "C:\Users\ken\Desktop\C85\pfilter prob.nxc"
0	861	2319	#line 861 "C:\Users\ken\Desktop\C85\pfilter prob.nxc"
0	862	2319		mov __signed_stack_001main, __D0main
0	861	2321	#line 861 "C:\Users\ken\Desktop\C85\pfilter prob.nxc"
0	862	2321		set __D0main, 200
0	861	2324	#line 861 "C:\Users\ken\Desktop\C85\pfilter prob.nxc"
0	862	2324		add __D0main, __signed_stack_001main, __D0main
0	861	2328	#line 861 "C:\Users\ken\Desktop\C85\pfilter prob.nxc"
0	862	2328		mov __signed_stack_001main, __D0main
0	861	2330	#line 861 "C:\Users\ken\Desktop\C85\pfilter prob.nxc"
0	862	2330		set __D0main, 400
0	861	2333	#line 861 "C:\Users\ken\Desktop\C85\pfilter prob.nxc"
0	862	2333		mov __signed_stack_002main, __D0main
0	861	2335	#line 861 "C:\Users\ken\Desktop\C85\pfilter prob.nxc"
0	862	2335		set __D0main, 3
0	861	2338	#line 861 "C:\Users\ken\Desktop\C85\pfilter prob.nxc"
0	862	2338		mov __signed_stack_003main, __D0main
0	861	2340	#line 861 "C:\Users\ken\Desktop\C85\pfilter prob.nxc"
0	862	2340		set __D0main, 0
0	863	2343	#line 863 "C:\Users\ken\Desktop\C85\pfilter prob.nxc"
0	864	2343		acquire __SPTArgsMutex
0	863	2344	#line 863 "C:\Users\ken\Desktop\C85\pfilter prob.nxc"
0	864	2344		mov __SPTArgs.Frequency, __signed_stack_001main
0	863	2347	#line 863 "C:\Users\ken\Desktop\C85\pfilter prob.nxc"
0	864	2347		mov __SPTArgs.Duration, __signed_stack_002main
0	863	2350	#line 863 "C:\Users\ken\Desktop\C85\pfilter prob.nxc"
0	864	2350		mov __SPTArgs.Volume, __signed_stack_003main
0	863	2353	#line 863 "C:\Users\ken\Desktop\C85\pfilter prob.nxc"
0	864	2353		mov __SPTArgs.Loop, __D0main
0	863	2356	#line 863 "C:\Users\ken\Desktop\C85\pfilter prob.nxc"
0	864	2356		syscall 10, __SPTArgs
0	863	2359	#line 863 "C:\Users\ken\Desktop\C85\pfilter prob.nxc"
0	864	2359		mov __D0main, __SPTArgs.Result
0	863	2362	#line 863 "C:\Users\ken\Desktop\C85\pfilter prob.nxc"
0	864	2362		release __SPTArgsMutex
0	863	2363	#line 863 "C:\Users\ken\Desktop\C85\pfilter prob.nxc"
0	866	2363	#line 866 "C:\Users\ken\Desktop\C85\pfilter prob.nxc"
0	867	2363		jmp __NXC_Label_1678
0	866	2365	#line 866 "C:\Users\ken\Desktop\C85\pfilter prob.nxc"
0	866	2365	#line 866 "C:\Users\ken\Desktop\C85\pfilter prob.nxc"
0	867	2365		set __D0main, 1000
0	866	2368	#line 866 "C:\Users\ken\Desktop\C85\pfilter prob.nxc"
0	867	2368	#pragma macro 8
0	867	2368		acquire __RandomMutex
0	867	2369		syscall 24, __RandomArgs
0	867	2372		mov __RandomTmp, __RandomArgs.Result
0	867	2375		add __RandomTmp, __RandomTmp, __constVal32768
0	867	2379		mul __RandomTmp, __RandomTmp, __D0main
0	867	2383		div __RandomTmp, __RandomTmp, __constVal65536
0	867	2387		mov __D0main, __RandomTmp
0	867	2389		release __RandomMutex
0	12425	2390	#line 12425 "C:\Users\ken\Desktop\C85\pfilter prob.nxc"
0	866	2390	#line 866 "C:\Users\ken\Desktop\C85\pfilter prob.nxc"
0	867	2390		mov __signed_stack_001main, __D0main
0	866	2392	#line 866 "C:\Users\ken\Desktop\C85\pfilter prob.nxc"
0	867	2392		set __D0main, 200
0	866	2395	#line 866 "C:\Users\ken\Desktop\C85\pfilter prob.nxc"
0	867	2395		add __D0main, __signed_stack_001main, __D0main
0	866	2399	#line 866 "C:\Users\ken\Desktop\C85\pfilter prob.nxc"
0	867	2399		mov __signed_stack_001main, __D0main
0	866	2401	#line 866 "C:\Users\ken\Desktop\C85\pfilter prob.nxc"
0	867	2401		set __D0main, 400
0	866	2404	#line 866 "C:\Users\ken\Desktop\C85\pfilter prob.nxc"
0	867	2404		mov __signed_stack_002main, __D0main
0	866	2406	#line 866 "C:\Users\ken\Desktop\C85\pfilter prob.nxc"
0	867	2406		set __D0main, 3
0	866	2409	#line 866 "C:\Users\ken\Desktop\C85\pfilter prob.nxc"
0	867	2409		mov __signed_stack_003main, __D0main
0	866	2411	#line 866 "C:\Users\ken\Desktop\C85\pfilter prob.nxc"
0	867	2411		set __D0main, 0
0	868	2414	#line 868 "C:\Users\ken\Desktop\C85\pfilter prob.nxc"
0	869	2414		acquire __SPTArgsMutex
0	868	2415	#line 868 "C:\Users\ken\Desktop\C85\pfilter prob.nxc"
0	869	2415		mov __SPTArgs.Frequency, __signed_stack_001main
0	868	2418	#line 868 "C:\Users\ken\Desktop\C85\pfilter prob.nxc"
0	869	2418		mov __SPTArgs.Duration, __signed_stack_002main
0	868	2421	#line 868 "C:\Users\ken\Desktop\C85\pfilter prob.nxc"
0	869	2421		mov __SPTArgs.Volume, __signed_stack_003main
0	868	2424	#line 868 "C:\Users\ken\Desktop\C85\pfilter prob.nxc"
0	869	2424		mov __SPTArgs.Loop, __D0main
0	868	2427	#line 868 "C:\Users\ken\Desktop\C85\pfilter prob.nxc"
0	869	2427		syscall 10, __SPTArgs
0	868	2430	#line 868 "C:\Users\ken\Desktop\C85\pfilter prob.nxc"
0	869	2430		mov __D0main, __SPTArgs.Result
0	868	2433	#line 868 "C:\Users\ken\Desktop\C85\pfilter prob.nxc"
0	869	2433		release __SPTArgsMutex
0	868	2434	#line 868 "C:\Users\ken\Desktop\C85\pfilter prob.nxc"
0	868	2434	#line 868 "C:\Users\ken\Desktop\C85\pfilter prob.nxc"
0	869	2434		mov __D0main, p_max.x
0	868	2437	#line 868 "C:\Users\ken\Desktop\C85\pfilter prob.nxc"
0	869	2437		mov __move_to_7qG2_x1_7qG2_000, __D0main
0	868	2440	#line 868 "C:\Users\ken\Desktop\C85\pfilter prob.nxc"
0	869	2440		mov __D0main, p_max.y
0	868	2443	#line 868 "C:\Users\ken\Desktop\C85\pfilter prob.nxc"
0	869	2443		mov __move_to_7qG2_y1_7qG2_000, __D0main
0	868	2446	#line 868 "C:\Users\ken\Desktop\C85\pfilter prob.nxc"
0	869	2446		mov __D0main, __main_7qG2_dest_7qG2_000
0	868	2449	#line 868 "C:\Users\ken\Desktop\C85\pfilter prob.nxc"
0	869	2449		mov __to_x_7qG2_inter_7qG2_000, __D0main
0	868	2452	#line 868 "C:\Users\ken\Desktop\C85\pfilter prob.nxc"
0	869	2452		subcall to_x, __to_x_return
0	868	2455	#line 868 "C:\Users\ken\Desktop\C85\pfilter prob.nxc"
0	869	2455		mov __D0main, __D0to_x
0	868	2457	#line 868 "C:\Users\ken\Desktop\C85\pfilter prob.nxc"
0	869	2457		mov __move_to_7qG2_x2_7qG2_000, __D0main
0	868	2460	#line 868 "C:\Users\ken\Desktop\C85\pfilter prob.nxc"
0	869	2460		mov __D0main, __main_7qG2_dest_7qG2_000
0	868	2463	#line 868 "C:\Users\ken\Desktop\C85\pfilter prob.nxc"
0	869	2463		mov __to_y_7qG2_inter_7qG2_000, __D0main
0	868	2466	#line 868 "C:\Users\ken\Desktop\C85\pfilter prob.nxc"
0	869	2466		subcall to_y, __to_y_return
0	868	2469	#line 868 "C:\Users\ken\Desktop\C85\pfilter prob.nxc"
0	869	2469		mov __D0main, __D0to_y
0	868	2471	#line 868 "C:\Users\ken\Desktop\C85\pfilter prob.nxc"
0	869	2471		mov __move_to_7qG2_y2_7qG2_000, __D0main
0	868	2474	#line 868 "C:\Users\ken\Desktop\C85\pfilter prob.nxc"
0	869	2474		mov __D0main, p_max.theta
0	868	2477	#line 868 "C:\Users\ken\Desktop\C85\pfilter prob.nxc"
0	869	2477		mov __move_to_7qG2_h_7qG2_000, __D0main
0	869	2480	#line 869 "C:\Users\ken\Desktop\C85\pfilter prob.nxc"
0	870	2480		subcall move_to, __move_to_return
0	869	2483	#line 869 "C:\Users\ken\Desktop\C85\pfilter prob.nxc"
0	870	2483		mov __D0main, __D0move_to
0	869	2485	#line 869 "C:\Users\ken\Desktop\C85\pfilter prob.nxc"
0	869	2485	#line 869 "C:\Users\ken\Desktop\C85\pfilter prob.nxc"
0	870	2485		set __D0main, 1000
0	869	2488	#line 869 "C:\Users\ken\Desktop\C85\pfilter prob.nxc"
0	870	2488	#pragma macro 8
0	870	2488		acquire __RandomMutex
0	870	2489		syscall 24, __RandomArgs
0	870	2492		mov __RandomTmp, __RandomArgs.Result
0	870	2495		add __RandomTmp, __RandomTmp, __constVal32768
0	870	2499		mul __RandomTmp, __RandomTmp, __D0main
0	870	2503		div __RandomTmp, __RandomTmp, __constVal65536
0	870	2507		mov __D0main, __RandomTmp
0	870	2509		release __RandomMutex
0	12525	2510	#line 12525 "C:\Users\ken\Desktop\C85\pfilter prob.nxc"
0	869	2510	#line 869 "C:\Users\ken\Desktop\C85\pfilter prob.nxc"
0	870	2510		mov __signed_stack_001main, __D0main
0	869	2512	#line 869 "C:\Users\ken\Desktop\C85\pfilter prob.nxc"
0	870	2512		set __D0main, 200
0	869	2515	#line 869 "C:\Users\ken\Desktop\C85\pfilter prob.nxc"
0	870	2515		add __D0main, __signed_stack_001main, __D0main
0	869	2519	#line 869 "C:\Users\ken\Desktop\C85\pfilter prob.nxc"
0	870	2519		mov __signed_stack_001main, __D0main
0	869	2521	#line 869 "C:\Users\ken\Desktop\C85\pfilter prob.nxc"
0	870	2521		set __D0main, 400
0	869	2524	#line 869 "C:\Users\ken\Desktop\C85\pfilter prob.nxc"
0	870	2524		mov __signed_stack_002main, __D0main
0	869	2526	#line 869 "C:\Users\ken\Desktop\C85\pfilter prob.nxc"
0	870	2526		set __D0main, 3
0	869	2529	#line 869 "C:\Users\ken\Desktop\C85\pfilter prob.nxc"
0	870	2529		mov __signed_stack_003main, __D0main
0	869	2531	#line 869 "C:\Users\ken\Desktop\C85\pfilter prob.nxc"
0	870	2531		set __D0main, 0
0	870	2534	#line 870 "C:\Users\ken\Desktop\C85\pfilter prob.nxc"
0	871	2534		acquire __SPTArgsMutex
0	870	2535	#line 870 "C:\Users\ken\Desktop\C85\pfilter prob.nxc"
0	871	2535		mov __SPTArgs.Frequency, __signed_stack_001main
0	870	2538	#line 870 "C:\Users\ken\Desktop\C85\pfilter prob.nxc"
0	871	2538		mov __SPTArgs.Duration, __signed_stack_002main
0	870	2541	#line 870 "C:\Users\ken\Desktop\C85\pfilter prob.nxc"
0	871	2541		mov __SPTArgs.Volume, __signed_stack_003main
0	870	2544	#line 870 "C:\Users\ken\Desktop\C85\pfilter prob.nxc"
0	871	2544		mov __SPTArgs.Loop, __D0main
0	870	2547	#line 870 "C:\Users\ken\Desktop\C85\pfilter prob.nxc"
0	871	2547		syscall 10, __SPTArgs
0	870	2550	#line 870 "C:\Users\ken\Desktop\C85\pfilter prob.nxc"
0	871	2550		mov __D0main, __SPTArgs.Result
0	870	2553	#line 870 "C:\Users\ken\Desktop\C85\pfilter prob.nxc"
0	871	2553		release __SPTArgsMutex
0	870	2554	#line 870 "C:\Users\ken\Desktop\C85\pfilter prob.nxc"
0	870	2554	#line 870 "C:\Users\ken\Desktop\C85\pfilter prob.nxc"
0	871	2554		set __D0main, 1000
0	870	2557	#line 870 "C:\Users\ken\Desktop\C85\pfilter prob.nxc"
0	871	2557	#pragma macro 8
0	871	2557		acquire __RandomMutex
0	871	2558		syscall 24, __RandomArgs
0	871	2561		mov __RandomTmp, __RandomArgs.Result
0	871	2564		add __RandomTmp, __RandomTmp, __constVal32768
0	871	2568		mul __RandomTmp, __RandomTmp, __D0main
0	871	2572		div __RandomTmp, __RandomTmp, __constVal65536
0	871	2576		mov __D0main, __RandomTmp
0	871	2578		release __RandomMutex
0	12574	2579	#line 12574 "C:\Users\ken\Desktop\C85\pfilter prob.nxc"
0	870	2579	#line 870 "C:\Users\ken\Desktop\C85\pfilter prob.nxc"
0	871	2579		mov __signed_stack_001main, __D0main
0	870	2581	#line 870 "C:\Users\ken\Desktop\C85\pfilter prob.nxc"
0	871	2581		set __D0main, 200
0	870	2584	#line 870 "C:\Users\ken\Desktop\C85\pfilter prob.nxc"
0	871	2584		add __D0main, __signed_stack_001main, __D0main
0	870	2588	#line 870 "C:\Users\ken\Desktop\C85\pfilter prob.nxc"
0	871	2588		mov __signed_stack_001main, __D0main
0	870	2590	#line 870 "C:\Users\ken\Desktop\C85\pfilter prob.nxc"
0	871	2590		set __D0main, 400
0	870	2593	#line 870 "C:\Users\ken\Desktop\C85\pfilter prob.nxc"
0	871	2593		mov __signed_stack_002main, __D0main
0	870	2595	#line 870 "C:\Users\ken\Desktop\C85\pfilter prob.nxc"
0	871	2595		set __D0main, 3
0	870	2598	#line 870 "C:\Users\ken\Desktop\C85\pfilter prob.nxc"
0	871	2598		mov __signed_stack_003main, __D0main
0	870	2600	#line 870 "C:\Users\ken\Desktop\C85\pfilter prob.nxc"
0	871	2600		set __D0main, 0
0	871	2603	#line 871 "C:\Users\ken\Desktop\C85\pfilter prob.nxc"
0	872	2603		acquire __SPTArgsMutex
0	871	2604	#line 871 "C:\Users\ken\Desktop\C85\pfilter prob.nxc"
0	872	2604		mov __SPTArgs.Frequency, __signed_stack_001main
0	871	2607	#line 871 "C:\Users\ken\Desktop\C85\pfilter prob.nxc"
0	872	2607		mov __SPTArgs.Duration, __signed_stack_002main
0	871	2610	#line 871 "C:\Users\ken\Desktop\C85\pfilter prob.nxc"
0	872	2610		mov __SPTArgs.Volume, __signed_stack_003main
0	871	2613	#line 871 "C:\Users\ken\Desktop\C85\pfilter prob.nxc"
0	872	2613		mov __SPTArgs.Loop, __D0main
0	871	2616	#line 871 "C:\Users\ken\Desktop\C85\pfilter prob.nxc"
0	872	2616		syscall 10, __SPTArgs
0	871	2619	#line 871 "C:\Users\ken\Desktop\C85\pfilter prob.nxc"
0	872	2619		mov __D0main, __SPTArgs.Result
0	871	2622	#line 871 "C:\Users\ken\Desktop\C85\pfilter prob.nxc"
0	872	2622		release __SPTArgsMutex
0	871	2623	#line 871 "C:\Users\ken\Desktop\C85\pfilter prob.nxc"
0	872	2623		exit -1, -1
1	4476	0		brtst 4, __rotate_Done0, __rotate_angle0
1	4477	3		set ____RotateMotor0_sign_tmp, 0
1	4477	6		brtst EQ, __sign_0, __rotate_angle0
1	4477	9		set ____RotateMotor0_sign_tmp, -1
1	4477	12		brtst LT, __sign_0, __rotate_angle0
1	4477	15		set ____RotateMotor0_sign_tmp, 1
1	4477	18	__sign_0:	mov __rotate_thePower0, ____RotateMotor0_sign_tmp
1	4478	20		abs __rotate_theAngle0, __rotate_angle0
1	4479	23		mul __rotate_thePower0, __rotate_thePower0, __rotate_power0
1	4481	27		set __rotate_theUF0, 23
1	4482	30		brtst 4, __rotate_NoSync0, __rotate_sync0
1	4483	33		set __rotate_theOM0, 7
1	4484	36		set __rotate_theRM0, 2
1	4485	39		mov __rotate_theTurnPct0, __rotate_turnpct0
1	4486	41		brtst 4, __rotate_Start0, __rotate_theTurnPct0
1	4487	44		add __rotate_theUF0, __rotate_theUF0, __constVal32
1	4488	48		jmp __rotate_Start0
1	4490	50		set __rotate_theOM0, 3
1	4491	53		set __rotate_theRM0, 0
1	4492	56		set __rotate_theTurnPct0, 0
1	4494	59		set __rotate_theRS0, 32
1	4495	62		setout __rotate_ports0, 1, __rotate_theOM0, 8, __rotate_theRM0, 5, __rotate_theAngle0, 6, __rotate_theRS0, 10, __rotate_theRVP0, 11, __rotate_theRVI0, 12, __rotate_theRVD0, 2, __rotate_thePower0, 7, __rotate_turnpct0, 0, __rotate_theUF0
1	4498	85		index __rotate_firstPort0, __rotate_ports0, 65535
1	4500	89		getout __rotate_power0, __rotate_firstPort0, 2
1	4501	93		brtst 4, __rotate_doneRunning0, __rotate_power0
1	4502	96		getout __rotate_rs0, __rotate_firstPort0, 6
1	4503	100		brcmp 4, __rotate_Running0, __rotate_rs0, __constVal32
1	4505	104		brtst 4, __rotate_Reset0, __rotate_stop0
1	4507	107		set __rotate_theOM0, 7
1	4508	110		set __rotate_theUF0, 7
1	4509	113		setout __rotate_ports0, 1, __rotate_theOM0, 8, __constVal1, 6, __rotate_theRS0, 2, __constVal0, 5, __constVal0, 0, __rotate_theUF0
1	4511	128		getout __rotate_RotCount0, __rotate_firstPort0, 14
1	4513	132		mov __rotate_OldRotCount0, __rotate_RotCount0
1	4514	134		wait2 NA, __constVal50
1	4516	137		getout __rotate_RotCount0, __rotate_firstPort0, 14
1	4517	141		brcmp 5, __rotate_Stabilize0, __rotate_OldRotCount0, __rotate_RotCount0
1	4518	145		set __rotate_theOM0, 4
1	4519	148		setout __rotate_ports0, 8, __rotate_theRM0, 6, __constVal0, 1, __rotate_theOM0, 0, __constVal1
1	4522	159		brtst 4, __rotate_Done0, __rotate_theTurnPct0
1	4523	162		setout __rotate_ports0, 0, __constVal32
1	4525	167		subret ____RotateMotor0_return
2	4529	0		brtst 4, __rotate_Done1, __rotate_angle1
2	4530	3		set ____RotateMotor1_sign_tmp, 0
2	4530	6		brtst EQ, __sign_1, __rotate_angle1
2	4530	9		set ____RotateMotor1_sign_tmp, -1
2	4530	12		brtst LT, __sign_1, __rotate_angle1
2	4530	15		set ____RotateMotor1_sign_tmp, 1
2	4530	18	__sign_1:	mov __rotate_thePower1, ____RotateMotor1_sign_tmp
2	4531	20		abs __rotate_theAngle1, __rotate_angle1
2	4532	23		mul __rotate_thePower1, __rotate_thePower1, __rotate_power1
2	4534	27		set __rotate_theUF1, 23
2	4535	30		brtst 4, __rotate_NoSync1, __rotate_sync1
2	4536	33		set __rotate_theOM1, 7
2	4537	36		set __rotate_theRM1, 2
2	4538	39		mov __rotate_theTurnPct1, __rotate_turnpct1
2	4539	41		brtst 4, __rotate_Start1, __rotate_theTurnPct1
2	4540	44		add __rotate_theUF1, __rotate_theUF1, __constVal32
2	4541	48		jmp __rotate_Start1
2	4543	50		set __rotate_theOM1, 3
2	4544	53		set __rotate_theRM1, 0
2	4545	56		set __rotate_theTurnPct1, 0
2	4547	59		set __rotate_theRS1, 32
2	4548	62		setout __rotate_ports1, 1, __rotate_theOM1, 8, __rotate_theRM1, 5, __rotate_theAngle1, 6, __rotate_theRS1, 10, __rotate_theRVP1, 11, __rotate_theRVI1, 12, __rotate_theRVD1, 2, __rotate_thePower1, 7, __rotate_turnpct1, 0, __rotate_theUF1
2	4551	85		index __rotate_firstPort1, __rotate_ports1, 65535
2	4553	89		getout __rotate_power1, __rotate_firstPort1, 2
2	4554	93		brtst 4, __rotate_doneRunning1, __rotate_power1
2	4555	96		getout __rotate_rs1, __rotate_firstPort1, 6
2	4556	100		brcmp 4, __rotate_Running1, __rotate_rs1, __constVal32
2	4558	104		brtst 4, __rotate_Reset1, __rotate_stop1
2	4560	107		set __rotate_theOM1, 7
2	4561	110		set __rotate_theUF1, 7
2	4562	113		setout __rotate_ports1, 1, __rotate_theOM1, 8, __constVal1, 6, __rotate_theRS1, 2, __constVal0, 5, __constVal0, 0, __rotate_theUF1
2	4564	128		getout __rotate_RotCount1, __rotate_firstPort1, 14
2	4566	132		mov __rotate_OldRotCount1, __rotate_RotCount1
2	4567	134		wait2 NA, __constVal50
2	4569	137		getout __rotate_RotCount1, __rotate_firstPort1, 14
2	4570	141		brcmp 5, __rotate_Stabilize1, __rotate_OldRotCount1, __rotate_RotCount1
2	4571	145		set __rotate_theOM1, 4
2	4572	148		setout __rotate_ports1, 8, __rotate_theRM1, 6, __constVal0, 1, __rotate_theOM1, 0, __constVal1
2	4575	159		brtst 4, __rotate_Done1, __rotate_theTurnPct1
2	4576	162		setout __rotate_ports1, 0, __constVal32
2	4578	167		subret ____RotateMotor1_return
3	4582	0		brtst 4, __rotate_Done2, __rotate_angle2
3	4583	3		set ____RotateMotor2_sign_tmp, 0
3	4583	6		brtst EQ, __sign_2, __rotate_angle2
3	4583	9		set ____RotateMotor2_sign_tmp, -1
3	4583	12		brtst LT, __sign_2, __rotate_angle2
3	4583	15		set ____RotateMotor2_sign_tmp, 1
3	4583	18	__sign_2:	mov __rotate_thePower2, ____RotateMotor2_sign_tmp
3	4584	21		abs __rotate_theAngle2, __rotate_angle2
3	4585	24		mul __rotate_thePower2, __rotate_thePower2, __rotate_power2
3	4587	28		set __rotate_theUF2, 23
3	4588	31		brtst 4, __rotate_NoSync2, __rotate_sync2
3	4589	34		set __rotate_theOM2, 7
3	4590	37		set __rotate_theRM2, 2
3	4591	40		mov __rotate_theTurnPct2, __rotate_turnpct2
3	4592	42		brtst 4, __rotate_Start2, __rotate_theTurnPct2
3	4593	45		add __rotate_theUF2, __rotate_theUF2, __constVal32
3	4594	49		jmp __rotate_Start2
3	4596	51		set __rotate_theOM2, 3
3	4597	54		set __rotate_theRM2, 0
3	4598	57		set __rotate_theTurnPct2, 0
3	4600	60		set __rotate_theRS2, 32
3	4601	63		setout __rotate_ports2, 1, __rotate_theOM2, 8, __rotate_theRM2, 5, __rotate_theAngle2, 6, __rotate_theRS2, 10, __rotate_theRVP2, 11, __rotate_theRVI2, 12, __rotate_theRVD2, 2, __rotate_thePower2, 7, __rotate_turnpct2, 0, __rotate_theUF2
3	4604	86		index __rotate_firstPort2, __rotate_ports2, 65535
3	4606	90		getout __rotate_power2, __rotate_firstPort2, 2
3	4607	94		brtst 4, __rotate_doneRunning2, __rotate_power2
3	4608	97		getout __rotate_rs2, __rotate_firstPort2, 6
3	4609	101		brcmp 4, __rotate_Running2, __rotate_rs2, __constVal32
3	4611	105		brtst 4, __rotate_Reset2, __rotate_stop2
3	4613	108		set __rotate_theOM2, 7
3	4614	111		set __rotate_theUF2, 7
3	4615	114		setout __rotate_ports2, 1, __rotate_theOM2, 8, __constVal1, 6, __rotate_theRS2, 2, __constVal0, 5, __constVal0, 0, __rotate_theUF2
3	4617	129		getout __rotate_RotCount2, __rotate_firstPort2, 14
3	4619	133		mov __rotate_OldRotCount2, __rotate_RotCount2
3	4620	135		wait2 NA, __constVal50
3	4622	138		getout __rotate_RotCount2, __rotate_firstPort2, 14
3	4623	142		brcmp 5, __rotate_Stabilize2, __rotate_OldRotCount2, __rotate_RotCount2
3	4624	146		set __rotate_theOM2, 4
3	4625	149		setout __rotate_ports2, 8, __rotate_theRM2, 6, __constVal0, 1, __rotate_theOM2, 0, __constVal1
3	4628	160		brtst 4, __rotate_Done2, __rotate_theTurnPct2
3	4629	163		setout __rotate_ports2, 0, __constVal32
3	4631	168		subret ____RotateMotor2_return
4	4635	0		brtst 4, __rotate_Done3, __rotate_angle3
4	4636	3		set ____RotateMotor3_sign_tmp, 0
4	4636	6		brtst EQ, __sign_3, __rotate_angle3
4	4636	9		set ____RotateMotor3_sign_tmp, -1
4	4636	12		brtst LT, __sign_3, __rotate_angle3
4	4636	15		set ____RotateMotor3_sign_tmp, 1
4	4636	18	__sign_3:	mov __rotate_thePower3, ____RotateMotor3_sign_tmp
4	4637	21		abs __rotate_theAngle3, __rotate_angle3
4	4638	24		mul __rotate_thePower3, __rotate_thePower3, __rotate_power3
4	4640	28		set __rotate_theUF3, 23
4	4641	31		brtst 4, __rotate_NoSync3, __rotate_sync3
4	4642	34		set __rotate_theOM3, 7
4	4643	37		set __rotate_theRM3, 2
4	4644	40		mov __rotate_theTurnPct3, __rotate_turnpct3
4	4645	42		brtst 4, __rotate_Start3, __rotate_theTurnPct3
4	4646	45		add __rotate_theUF3, __rotate_theUF3, __constVal32
4	4647	49		jmp __rotate_Start3
4	4649	51		set __rotate_theOM3, 3
4	4650	54		set __rotate_theRM3, 0
4	4651	57		set __rotate_theTurnPct3, 0
4	4653	60		set __rotate_theRS3, 32
4	4654	63		setout __rotate_ports3, 1, __rotate_theOM3, 8, __rotate_theRM3, 5, __rotate_theAngle3, 6, __rotate_theRS3, 10, __rotate_theRVP3, 11, __rotate_theRVI3, 12, __rotate_theRVD3, 2, __rotate_thePower3, 7, __rotate_turnpct3, 0, __rotate_theUF3
4	4657	86		index __rotate_firstPort3, __rotate_ports3, 65535
4	4659	90		getout __rotate_power3, __rotate_firstPort3, 2
4	4660	94		brtst 4, __rotate_doneRunning3, __rotate_power3
4	4661	97		getout __rotate_rs3, __rotate_firstPort3, 6
4	4662	101		brcmp 4, __rotate_Running3, __rotate_rs3, __constVal32
4	4664	105		brtst 4, __rotate_Reset3, __rotate_stop3
4	4666	108		set __rotate_theOM3, 7
4	4667	111		set __rotate_theUF3, 7
4	4668	114		setout __rotate_ports3, 1, __rotate_theOM3, 8, __constVal1, 6, __rotate_theRS3, 2, __constVal0, 5, __constVal0, 0, __rotate_theUF3
4	4670	129		getout __rotate_RotCount3, __rotate_firstPort3, 14
4	4672	133		mov __rotate_OldRotCount3, __rotate_RotCount3
4	4673	135		wait2 NA, __constVal50
4	4675	138		getout __rotate_RotCount3, __rotate_firstPort3, 14
4	4676	142		brcmp 5, __rotate_Stabilize3, __rotate_OldRotCount3, __rotate_RotCount3
4	4677	146		set __rotate_theOM3, 4
4	4678	149		setout __rotate_ports3, 8, __rotate_theRM3, 6, __constVal0, 1, __rotate_theOM3, 0, __constVal1
4	4681	160		brtst 4, __rotate_Done3, __rotate_theTurnPct3
4	4682	163		setout __rotate_ports3, 0, __constVal32
4	4684	168		subret ____RotateMotor3_return
5	4688	0		brtst 4, __rotate_Done4, __rotate_angle4
5	4689	3		set ____RotateMotor4_sign_tmp, 0
5	4689	6		brtst EQ, __sign_4, __rotate_angle4
5	4689	9		set ____RotateMotor4_sign_tmp, -1
5	4689	12		brtst LT, __sign_4, __rotate_angle4
5	4689	15		set ____RotateMotor4_sign_tmp, 1
5	4689	18	__sign_4:	mov __rotate_thePower4, ____RotateMotor4_sign_tmp
5	4690	20		abs __rotate_theAngle4, __rotate_angle4
5	4691	23		mul __rotate_thePower4, __rotate_thePower4, __rotate_power4
5	4693	27		set __rotate_theUF4, 23
5	4694	30		brtst 4, __rotate_NoSync4, __rotate_sync4
5	4695	33		set __rotate_theOM4, 7
5	4696	36		set __rotate_theRM4, 2
5	4697	39		mov __rotate_theTurnPct4, __rotate_turnpct4
5	4698	41		brtst 4, __rotate_Start4, __rotate_theTurnPct4
5	4699	44		add __rotate_theUF4, __rotate_theUF4, __constVal32
5	4700	48		jmp __rotate_Start4
5	4702	50		set __rotate_theOM4, 3
5	4703	53		set __rotate_theRM4, 0
5	4704	56		set __rotate_theTurnPct4, 0
5	4706	59		set __rotate_theRS4, 32
5	4707	62		setout __rotate_ports4, 1, __rotate_theOM4, 8, __rotate_theRM4, 5, __rotate_theAngle4, 6, __rotate_theRS4, 10, __rotate_theRVP4, 11, __rotate_theRVI4, 12, __rotate_theRVD4, 2, __rotate_thePower4, 7, __rotate_turnpct4, 0, __rotate_theUF4
5	4710	85		index __rotate_firstPort4, __rotate_ports4, 65535
5	4712	89		getout __rotate_power4, __rotate_firstPort4, 2
5	4713	93		brtst 4, __rotate_doneRunning4, __rotate_power4
5	4714	96		getout __rotate_rs4, __rotate_firstPort4, 6
5	4715	100		brcmp 4, __rotate_Running4, __rotate_rs4, __constVal32
5	4717	104		brtst 4, __rotate_Reset4, __rotate_stop4
5	4719	107		set __rotate_theOM4, 7
5	4720	110		set __rotate_theUF4, 7
5	4721	113		setout __rotate_ports4, 1, __rotate_theOM4, 8, __constVal1, 6, __rotate_theRS4, 2, __constVal0, 5, __constVal0, 0, __rotate_theUF4
5	4723	128		getout __rotate_RotCount4, __rotate_firstPort4, 14
5	4725	132		mov __rotate_OldRotCount4, __rotate_RotCount4
5	4726	134		wait2 NA, __constVal50
5	4728	137		getout __rotate_RotCount4, __rotate_firstPort4, 14
5	4729	141		brcmp 5, __rotate_Stabilize4, __rotate_OldRotCount4, __rotate_RotCount4
5	4730	145		set __rotate_theOM4, 4
5	4731	148		setout __rotate_ports4, 8, __rotate_theRM4, 6, __constVal0, 1, __rotate_theOM4, 0, __constVal1
5	4734	159		brtst 4, __rotate_Done4, __rotate_theTurnPct4
5	4735	162		setout __rotate_ports4, 0, __constVal32
5	4737	167		subret ____RotateMotor4_return
6	4741	0		brtst 4, __rotate_Done5, __rotate_angle5
6	4742	3		set ____RotateMotor5_sign_tmp, 0
6	4742	6		brtst EQ, __sign_5, __rotate_angle5
6	4742	9		set ____RotateMotor5_sign_tmp, -1
6	4742	12		brtst LT, __sign_5, __rotate_angle5
6	4742	15		set ____RotateMotor5_sign_tmp, 1
6	4742	18	__sign_5:	mov __rotate_thePower5, ____RotateMotor5_sign_tmp
6	4743	20		abs __rotate_theAngle5, __rotate_angle5
6	4744	23		mul __rotate_thePower5, __rotate_thePower5, __rotate_power5
6	4746	27		set __rotate_theUF5, 23
6	4747	30		brtst 4, __rotate_NoSync5, __rotate_sync5
6	4748	33		set __rotate_theOM5, 7
6	4749	36		set __rotate_theRM5, 2
6	4750	39		mov __rotate_theTurnPct5, __rotate_turnpct5
6	4751	41		brtst 4, __rotate_Start5, __rotate_theTurnPct5
6	4752	44		add __rotate_theUF5, __rotate_theUF5, __constVal32
6	4753	48		jmp __rotate_Start5
6	4755	50		set __rotate_theOM5, 3
6	4756	53		set __rotate_theRM5, 0
6	4757	56		set __rotate_theTurnPct5, 0
6	4759	59		set __rotate_theRS5, 32
6	4760	62		setout __rotate_ports5, 1, __rotate_theOM5, 8, __rotate_theRM5, 5, __rotate_theAngle5, 6, __rotate_theRS5, 10, __rotate_theRVP5, 11, __rotate_theRVI5, 12, __rotate_theRVD5, 2, __rotate_thePower5, 7, __rotate_turnpct5, 0, __rotate_theUF5
6	4763	85		index __rotate_firstPort5, __rotate_ports5, 65535
6	4765	89		getout __rotate_power5, __rotate_firstPort5, 2
6	4766	93		brtst 4, __rotate_doneRunning5, __rotate_power5
6	4767	96		getout __rotate_rs5, __rotate_firstPort5, 6
6	4768	100		brcmp 4, __rotate_Running5, __rotate_rs5, __constVal32
6	4770	104		brtst 4, __rotate_Reset5, __rotate_stop5
6	4772	107		set __rotate_theOM5, 7
6	4773	110		set __rotate_theUF5, 7
6	4774	113		setout __rotate_ports5, 1, __rotate_theOM5, 8, __constVal1, 6, __rotate_theRS5, 2, __constVal0, 5, __constVal0, 0, __rotate_theUF5
6	4776	128		getout __rotate_RotCount5, __rotate_firstPort5, 14
6	4778	132		mov __rotate_OldRotCount5, __rotate_RotCount5
6	4779	134		wait2 NA, __constVal50
6	4781	137		getout __rotate_RotCount5, __rotate_firstPort5, 14
6	4782	141		brcmp 5, __rotate_Stabilize5, __rotate_OldRotCount5, __rotate_RotCount5
6	4783	145		set __rotate_theOM5, 4
6	4784	148		setout __rotate_ports5, 8, __rotate_theRM5, 6, __constVal0, 1, __rotate_theOM5, 0, __constVal1
6	4787	159		brtst 4, __rotate_Done5, __rotate_theTurnPct5
6	4788	162		setout __rotate_ports5, 0, __constVal32
6	4790	167		subret ____RotateMotor5_return
7	4794	0		brtst 4, __rotate_Done6, __rotate_angle6
7	4795	3		set ____RotateMotor6_sign_tmp, 0
7	4795	6		brtst EQ, __sign_6, __rotate_angle6
7	4795	9		set ____RotateMotor6_sign_tmp, -1
7	4795	12		brtst LT, __sign_6, __rotate_angle6
7	4795	15		set ____RotateMotor6_sign_tmp, 1
7	4795	18	__sign_6:	mov __rotate_thePower6, ____RotateMotor6_sign_tmp
7	4796	20		abs __rotate_theAngle6, __rotate_angle6
7	4797	23		mul __rotate_thePower6, __rotate_thePower6, __rotate_power6
7	4799	27		set __rotate_theUF6, 23
7	4800	30		brtst 4, __rotate_NoSync6, __rotate_sync6
7	4801	33		set __rotate_theOM6, 7
7	4802	36		set __rotate_theRM6, 2
7	4803	39		mov __rotate_theTurnPct6, __rotate_turnpct6
7	4804	41		brtst 4, __rotate_Start6, __rotate_theTurnPct6
7	4805	44		add __rotate_theUF6, __rotate_theUF6, __constVal32
7	4806	48		jmp __rotate_Start6
7	4808	50		set __rotate_theOM6, 3
7	4809	53		set __rotate_theRM6, 0
7	4810	56		set __rotate_theTurnPct6, 0
7	4812	59		set __rotate_theRS6, 32
7	4813	62		setout __rotate_ports6, 1, __rotate_theOM6, 8, __rotate_theRM6, 5, __rotate_theAngle6, 6, __rotate_theRS6, 10, __rotate_theRVP6, 11, __rotate_theRVI6, 12, __rotate_theRVD6, 2, __rotate_thePower6, 7, __rotate_turnpct6, 0, __rotate_theUF6
7	4816	85		index __rotate_firstPort6, __rotate_ports6, 65535
7	4818	89		getout __rotate_power6, __rotate_firstPort6, 2
7	4819	93		brtst 4, __rotate_doneRunning6, __rotate_power6
7	4820	96		getout __rotate_rs6, __rotate_firstPort6, 6
7	4821	100		brcmp 4, __rotate_Running6, __rotate_rs6, __constVal32
7	4823	104		brtst 4, __rotate_Reset6, __rotate_stop6
7	4825	107		set __rotate_theOM6, 7
7	4826	110		set __rotate_theUF6, 7
7	4827	113		setout __rotate_ports6, 1, __rotate_theOM6, 8, __constVal1, 6, __rotate_theRS6, 2, __constVal0, 5, __constVal0, 0, __rotate_theUF6
7	4829	128		getout __rotate_RotCount6, __rotate_firstPort6, 14
7	4831	132		mov __rotate_OldRotCount6, __rotate_RotCount6
7	4832	134		wait2 NA, __constVal50
7	4834	137		getout __rotate_RotCount6, __rotate_firstPort6, 14
7	4835	141		brcmp 5, __rotate_Stabilize6, __rotate_OldRotCount6, __rotate_RotCount6
7	4836	145		set __rotate_theOM6, 4
7	4837	148		setout __rotate_ports6, 8, __rotate_theRM6, 6, __constVal0, 1, __rotate_theOM6, 0, __constVal1
7	4840	159		brtst 4, __rotate_Done6, __rotate_theTurnPct6
7	4841	162		setout __rotate_ports6, 0, __constVal32
7	4843	167		subret ____RotateMotor6_return
8	4854	0		arrsize __rotate_rs6, __rotate_ports6
8	4855	3		brcmp 1, __rmvCallSub, __rotate_rs6, __constVal1
8	4857	7		index __rotate_rs6, __rotate_ports6, 65535
8	4858	11		brcmp 0, __rmvCallSub, __rotate_rs6, __constVal3
8	4859	15		brcmp 1, __rmvExit, __rotate_rs6, __constVal6
8	4861	19		mov __rotate_ports6, __OUT_AB
8	4862	22		brcmp 4, __rmvCallSub, __rotate_rs6, __constVal3
8	4863	26		mov __rotate_ports6, __OUT_AC
8	4864	29		brcmp 4, __rmvCallSub, __rotate_rs6, __constVal4
8	4865	33		mov __rotate_ports6, __OUT_BC
8	4866	36		brcmp 4, __rmvCallSub, __rotate_rs6, __constVal5
8	4867	40		mov __rotate_ports6, __OUT_ABC
8	4869	43		subcall __RotateMotor6, ____RotateMotor6_return
8	4871	46		subret ____RotateMotorVar_return
9	4885	0		setin __constVal1, __ResetSensorPort, 5
9	4887	4		getin __ResetSensorTmp, __ResetSensorPort, 5
9	4888	8		brtst 5, __SensorStillInvalid, __ResetSensorTmp
9	4889	11		subret ____ResetSensorSubroutine_return
10	5672	0	#pragma macro 25
10	5672	0		acquire __CLSWMutex0
10	5672	2		set __CLSWArgs0.Port, 0
10	5672	5		mov __CLSWArgs0.ReturnLen, __RLSBytesCount0
10	5672	8		mov __CLSWArgs0.Buffer, __RLSReadBuf0
10	5672	11		syscall 21, __CLSWArgs0
10	5672	14		mov __RLSBResult0, __CLSWArgs0.Result
10	5672	17		release __CLSWMutex0
10	5673	19	#line 5673 "NXTDefs.h"
10	5674	19		brtst 4, __RLSBReturn0, __RLSBytesCount0
10	5675	22		arrinit __RLSReadBuf0, __constVal0, __RLSBytesCount0
10	5676	26		brtst 5, __RLSBError0, __RLSBResult0
10	5677	29		set __RLSBIterations0, 4
10	5679	32	#pragma macro 23
10	5679	32		acquire __CLSCSMutex0
10	5679	34		set __CLSCSArgs0.Port, 0
10	5679	37		syscall 23, __CLSCSArgs0
10	5679	40		mov __RLSBytesCount0, __CLSCSArgs0.BytesReady
10	5679	43		mov __RLSBResult0, __CLSCSArgs0.Result
10	5679	46		release __CLSCSMutex0
10	5679	48	#line 5679 "NXTDefs.h"
10	5680	48		sub __RLSBIterations0, __RLSBIterations0, __constVal1
10	5681	52		brtst 2, __RLSBError0, __RLSBIterations0
10	5682	55		brtst 0, __RLSBError0, __RLSBResult0
10	5683	58		brtst 4, __RLSBReadyToRead0, __RLSBResult0
10	5685	61		wait2 NA, __constVal15
10	5686	64		jmp __RLSBDoCheckStatus0
10	5689	66	#pragma macro 25
10	5689	66		acquire __CLSRMutex0
10	5689	68		set __CLSRArgs0.Port, 0
10	5689	71		mov __CLSRArgs0.BufferLen, __RLSBytesCount0
10	5689	74		syscall 22, __CLSRArgs0
10	5689	77		mov __RLSReadBuf0, __CLSRArgs0.Buffer
10	5689	80		mov __RLSBResult0, __CLSRArgs0.Result
10	5689	83		release __CLSRMutex0
10	5689	85	#line 5689 "NXTDefs.h"
10	5690	85		brtst 5, __RLSBError0, __RLSBResult0
10	5691	88		mov __RLSLastGoodRead0, __RLSReadBuf0
10	5692	90		jmp __RLSBDone0
10	5694	92		mov __RLSReadBuf0, __RLSLastGoodRead0
10	5696	94		arrsize __RLSBytesCount0, __RLSReadBuf0
10	5698	97		subret ____ReadLSBytes0_return
11	5710	0	#pragma macro 25
11	5710	0		acquire __CLSWMutex1
11	5710	1		set __CLSWArgs1.Port, 1
11	5710	4		mov __CLSWArgs1.ReturnLen, __RLSBytesCount1
11	5710	7		mov __CLSWArgs1.Buffer, __RLSReadBuf1
11	5710	10		syscall 21, __CLSWArgs1
11	5710	13		mov __RLSBResult1, __CLSWArgs1.Result
11	5710	16		release __CLSWMutex1
11	5710	17	#line 5710 "NXTDefs.h"
11	5711	17		brtst 4, __RLSBReturn1, __RLSBytesCount1
11	5712	20		arrinit __RLSReadBuf1, __constVal0, __RLSBytesCount1
11	5713	24		brtst 5, __RLSBError1, __RLSBResult1
11	5714	27		set __RLSBIterations1, 4
11	5716	30	#pragma macro 23
11	5716	30		acquire __CLSCSMutex1
11	5716	31		set __CLSCSArgs1.Port, 1
11	5716	34		syscall 23, __CLSCSArgs1
11	5716	37		mov __RLSBytesCount1, __CLSCSArgs1.BytesReady
11	5716	40		mov __RLSBResult1, __CLSCSArgs1.Result
11	5716	43		release __CLSCSMutex1
11	5716	44	#line 5716 "NXTDefs.h"
11	5717	44		sub __RLSBIterations1, __RLSBIterations1, __constVal1
11	5718	48		brtst 2, __RLSBError1, __RLSBIterations1
11	5719	51		brtst 0, __RLSBError1, __RLSBResult1
11	5720	54		brtst 4, __RLSBReadyToRead1, __RLSBResult1
11	5722	57		wait2 NA, __constVal15
11	5723	60		jmp __RLSBDoCheckStatus1
11	5726	62	#pragma macro 25
11	5726	62		acquire __CLSRMutex1
11	5726	63		set __CLSRArgs1.Port, 1
11	5726	66		mov __CLSRArgs1.BufferLen, __RLSBytesCount1
11	5726	69		syscall 22, __CLSRArgs1
11	5726	72		mov __RLSReadBuf1, __CLSRArgs1.Buffer
11	5726	75		mov __RLSBResult1, __CLSRArgs1.Result
11	5726	78		release __CLSRMutex1
11	5726	79	#line 5726 "NXTDefs.h"
11	5727	79		brtst 5, __RLSBError1, __RLSBResult1
11	5728	82		mov __RLSLastGoodRead1, __RLSReadBuf1
11	5729	84		jmp __RLSBDone1
11	5731	86		mov __RLSReadBuf1, __RLSLastGoodRead1
11	5733	88		arrsize __RLSBytesCount1, __RLSReadBuf1
11	5735	91		subret ____ReadLSBytes1_return
12	5747	0	#pragma macro 25
12	5747	0		acquire __CLSWMutex2
12	5747	1		set __CLSWArgs2.Port, 2
12	5747	4		mov __CLSWArgs2.ReturnLen, __RLSBytesCount2
12	5747	7		mov __CLSWArgs2.Buffer, __RLSReadBuf2
12	5747	10		syscall 21, __CLSWArgs2
12	5747	13		mov __RLSBResult2, __CLSWArgs2.Result
12	5747	16		release __CLSWMutex2
12	5747	17	#line 5747 "NXTDefs.h"
12	5748	17		brtst 4, __RLSBReturn2, __RLSBytesCount2
12	5749	20		arrinit __RLSReadBuf2, __constVal0, __RLSBytesCount2
12	5750	24		brtst 5, __RLSBError2, __RLSBResult2
12	5751	27		set __RLSBIterations2, 4
12	5753	30	#pragma macro 23
12	5753	30		acquire __CLSCSMutex2
12	5753	31		set __CLSCSArgs2.Port, 2
12	5753	34		syscall 23, __CLSCSArgs2
12	5753	37		mov __RLSBytesCount2, __CLSCSArgs2.BytesReady
12	5753	40		mov __RLSBResult2, __CLSCSArgs2.Result
12	5753	43		release __CLSCSMutex2
12	5753	44	#line 5753 "NXTDefs.h"
12	5754	44		sub __RLSBIterations2, __RLSBIterations2, __constVal1
12	5755	48		brtst 2, __RLSBError2, __RLSBIterations2
12	5756	51		brtst 0, __RLSBError2, __RLSBResult2
12	5757	54		brtst 4, __RLSBReadyToRead2, __RLSBResult2
12	5759	57		wait2 NA, __constVal15
12	5760	60		jmp __RLSBDoCheckStatus2
12	5763	62	#pragma macro 25
12	5763	62		acquire __CLSRMutex2
12	5763	63		set __CLSRArgs2.Port, 2
12	5763	66		mov __CLSRArgs2.BufferLen, __RLSBytesCount2
12	5763	69		syscall 22, __CLSRArgs2
12	5763	72		mov __RLSReadBuf2, __CLSRArgs2.Buffer
12	5763	75		mov __RLSBResult2, __CLSRArgs2.Result
12	5763	78		release __CLSRMutex2
12	5763	79	#line 5763 "NXTDefs.h"
12	5764	79		brtst 5, __RLSBError2, __RLSBResult2
12	5765	82		mov __RLSLastGoodRead2, __RLSReadBuf2
12	5766	84		jmp __RLSBDone2
12	5768	86		mov __RLSReadBuf2, __RLSLastGoodRead2
12	5770	88		arrsize __RLSBytesCount2, __RLSReadBuf2
12	5772	91		subret ____ReadLSBytes2_return
13	5784	0	#pragma macro 25
13	5784	0		acquire __CLSWMutex3
13	5784	1		set __CLSWArgs3.Port, 3
13	5784	4		mov __CLSWArgs3.ReturnLen, __RLSBytesCount3
13	5784	7		mov __CLSWArgs3.Buffer, __RLSReadBuf3
13	5784	10		syscall 21, __CLSWArgs3
13	5784	13		mov __RLSBResult3, __CLSWArgs3.Result
13	5784	16		release __CLSWMutex3
13	5784	17	#line 5784 "NXTDefs.h"
13	5785	17		brtst 4, __RLSBReturn3, __RLSBytesCount3
13	5786	20		arrinit __RLSReadBuf3, __constVal0, __RLSBytesCount3
13	5787	24		brtst 5, __RLSBError3, __RLSBResult3
13	5788	27		set __RLSBIterations3, 4
13	5790	30	#pragma macro 23
13	5790	30		acquire __CLSCSMutex3
13	5790	31		set __CLSCSArgs3.Port, 3
13	5790	34		syscall 23, __CLSCSArgs3
13	5790	37		mov __RLSBytesCount3, __CLSCSArgs3.BytesReady
13	5790	40		mov __RLSBResult3, __CLSCSArgs3.Result
13	5790	43		release __CLSCSMutex3
13	5790	44	#line 5790 "NXTDefs.h"
13	5791	44		sub __RLSBIterations3, __RLSBIterations3, __constVal1
13	5792	48		brtst 2, __RLSBError3, __RLSBIterations3
13	5793	51		brtst 0, __RLSBError3, __RLSBResult3
13	5794	54		brtst 4, __RLSBReadyToRead3, __RLSBResult3
13	5796	57		wait2 NA, __constVal15
13	5797	60		jmp __RLSBDoCheckStatus3
13	5800	62	#pragma macro 25
13	5800	62		acquire __CLSRMutex3
13	5800	63		set __CLSRArgs3.Port, 3
13	5800	66		mov __CLSRArgs3.BufferLen, __RLSBytesCount3
13	5800	69		syscall 22, __CLSRArgs3
13	5800	72		mov __RLSReadBuf3, __CLSRArgs3.Buffer
13	5800	75		mov __RLSBResult3, __CLSRArgs3.Result
13	5800	78		release __CLSRMutex3
13	5800	79	#line 5800 "NXTDefs.h"
13	5801	79		brtst 5, __RLSBError3, __RLSBResult3
13	5802	82		mov __RLSLastGoodRead3, __RLSReadBuf3
13	5803	84		jmp __RLSBDone3
13	5805	86		mov __RLSReadBuf3, __RLSLastGoodRead3
13	5807	88		arrsize __RLSBytesCount3, __RLSReadBuf3
13	5809	91		subret ____ReadLSBytes3_return
14	5821	0	#pragma macro 25
14	5821	0		acquire __CLSWMutex0
14	5821	2		acquire __CLSWMutex1
14	5821	3		acquire __CLSWMutex2
14	5821	4		acquire __CLSWMutex3
14	5821	5		mov __CLSWArgs0.Port, __RLSReadPort
14	5821	8		mov __CLSWArgs0.ReturnLen, __RLSBytesCountVar
14	5821	11		mov __CLSWArgs0.Buffer, __RLSReadBufVar
14	5821	14		syscall 21, __CLSWArgs0
14	5821	17		mov __RLSBResultVar, __CLSWArgs0.Result
14	5821	20		release __CLSWMutex0
14	5821	22		release __CLSWMutex1
14	5821	23		release __CLSWMutex2
14	5821	24		release __CLSWMutex3
14	5821	25	#line 5821 "NXTDefs.h"
14	5822	25		brtst 4, __RLSBReturnVar, __RLSBytesCountVar
14	5823	28		arrinit __RLSReadBufVar, __constVal0, __RLSBytesCountVar
14	5824	32		brtst 5, __RLSBErrorVar, __RLSBResultVar
14	5825	35		set __RLSBIterationsVar, 4
14	5827	38	#pragma macro 23
14	5827	38		acquire __CLSCSMutex0
14	5827	40		acquire __CLSCSMutex1
14	5827	41		acquire __CLSCSMutex2
14	5827	42		acquire __CLSCSMutex3
14	5827	43		mov __CLSCSArgs0.Port, __RLSReadPort
14	5827	46		syscall 23, __CLSCSArgs0
14	5827	49		mov __RLSBytesCountVar, __CLSCSArgs0.BytesReady
14	5827	52		mov __RLSBResultVar, __CLSCSArgs0.Result
14	5827	55		release __CLSCSMutex0
14	5827	57		release __CLSCSMutex1
14	5827	58		release __CLSCSMutex2
14	5827	59		release __CLSCSMutex3
14	5827	60	#line 5827 "NXTDefs.h"
14	5828	60		sub __RLSBIterationsVar, __RLSBIterationsVar, __constVal1
14	5829	64		brtst 2, __RLSBErrorVar, __RLSBIterationsVar
14	5830	67		brtst 0, __RLSBErrorVar, __RLSBResultVar
14	5831	70		brtst 4, __RLSBReadyToReadVar, __RLSBResultVar
14	5833	73		wait2 NA, __constVal15
14	5834	76		jmp __RLSBDoCheckStatusVar
14	5837	78	#pragma macro 25
14	5837	78		acquire __CLSRMutex0
14	5837	80		acquire __CLSRMutex1
14	5837	81		acquire __CLSRMutex2
14	5837	82		acquire __CLSRMutex3
14	5837	83		mov __CLSRArgs0.Port, __RLSReadPort
14	5837	86		mov __CLSRArgs0.BufferLen, __RLSBytesCountVar
14	5837	89		syscall 22, __CLSRArgs0
14	5837	92		mov __RLSReadBufVar, __CLSRArgs0.Buffer
14	5837	95		mov __RLSBResultVar, __CLSRArgs0.Result
14	5837	98		release __CLSRMutex0
14	5837	100		release __CLSRMutex1
14	5837	101		release __CLSRMutex2
14	5837	102		release __CLSRMutex3
14	5837	103	#line 5837 "NXTDefs.h"
14	5838	103		brtst 5, __RLSBErrorVar, __RLSBResultVar
14	5839	106		mov __RLSLastGoodReadVar, __RLSReadBufVar
14	5840	108		jmp __RLSBDoneVar
14	5842	110		mov __RLSReadBufVar, __RLSLastGoodReadVar
14	5844	112		arrsize __RLSBytesCountVar, __RLSReadBufVar
14	5846	115		subret ____ReadLSBytesVar_return
15	7812	0		strcat __frsFRArgs.NewFilename, __constStr0000, __frsOldName
15	7813	5		mov __frsFRArgs.OldFilename, __frsOldName
15	7814	8		syscall 7, __frsFRArgs
15	7815	11		mov __frsResult, __frsFRArgs.Result
15	7816	14		brtst 5, __frsEnd, __frsResult
15	7818	17		mov __frsFOReadArgs.Filename, __frsFRArgs.NewFilename
15	7819	19		syscall 0, __frsFOReadArgs
15	7820	22		mov __frsResult, __frsFOReadArgs.Result
15	7821	25		brtst 5, __frsOpenReadFailed, __frsResult
15	7823	28		mov __frsFOWriteArgs.Filename, __frsOldName
15	7824	31		mov __frsFOWriteArgs.Length, __frsNewSize
15	7825	34		syscall 1, __frsFOWriteArgs
15	7826	37		mov __frsResult, __frsFOWriteArgs.Result
15	7827	40		brtst 5, __frsOpenWriteFailed, __frsResult
15	7829	43		mov __frsFReadArgs.FileHandle, __frsFOReadArgs.FileHandle
15	7830	45		mov __frsFWriteArgs.FileHandle, __frsFOWriteArgs.FileHandle
15	7832	47		set __frsFReadArgs.Length, 1024
15	7833	50		syscall 3, __frsFReadArgs
15	7834	53		brtst 2, __frsEndLoop, __frsFReadArgs.Length
15	7835	56		mov __frsFWriteArgs.Buffer, __frsFReadArgs.Buffer
15	7836	58		mov __frsFWriteArgs.Length, __frsFReadArgs.Length
15	7837	60		syscall 4, __frsFWriteArgs
15	7838	63		brtst 5, __frsEndLoop, __frsFWriteArgs.Result
15	7839	66		brtst 5, __frsEndLoop, __frsFReadArgs.Result
15	7840	69		jmp __frsCopyLoop
15	7843	71		mov __frsFCArgs.FileHandle, __frsFOReadArgs.FileHandle
15	7844	73		syscall 5, __frsFCArgs
15	7846	76		mov __frsFCArgs.FileHandle, __frsFOWriteArgs.FileHandle
15	7847	78		syscall 5, __frsFCArgs
15	7849	81		mov __frsFDArgs.Filename, __frsFOReadArgs.Filename
15	7850	83		syscall 8, __frsFDArgs
15	7851	86		jmp __frsEnd
15	7854	88		mov __frsFCArgs.FileHandle, __frsFOReadArgs.FileHandle
15	7855	90		syscall 5, __frsFCArgs
15	7856	93		jmp __frsEnd
15	7859	95		mov __frsFRArgs.OldFilename, __frsFRArgs.NewFilename
15	7860	97		mov __frsFRArgs.NewFilename, __frsOldName
15	7861	100		syscall 7, __frsFRArgs
15	7863	103		subret ____fileResizeSub_return
16	8048	0		arrinit __RLSOutput, __constVal0, __constVal1
16	8049	4		set __RLSByteCount, 0
16	8051	7		set __FReadArgs.Length, 1
16	8052	10		mov __RLSBuffer, __RLSOutput
16	8053	12		syscall 3, __FReadArgs
16	8054	15		mov __RLSReturn, __FReadArgs.Result
16	8055	18		brtst 5, __RLSStringDone, __RLSReturn
16	8056	21		index __FReadTmpByte, __FReadArgs.Buffer, 65535
16	8057	25		brcmp 4, __RLSStringDone, __FReadTmpByte, __constVal10
16	8058	29		brcmp 4, __RLSStringSkip, __FReadTmpByte, __constVal13
16	8059	33		strcat __RLSOutput, __RLSBuffer, __FReadArgs.Buffer
16	8060	38		add __RLSByteCount, __RLSByteCount, __constVal1
16	8061	42		brcmp 3, __RLSStringDone, __RLSByteCount, __RLSMaxBytes
16	8063	46		jmp __RLSStringLoop
16	8065	48		subret __RLSReturnAddress
17	9193	0		set __sinValueNeg, 0
17	9194	3		brtst 3, __sinValuePos, __sinValue
17	9196	6		neg __sinValue, __sinValue
17	9197	9		set __sinValueNeg, 1
17	9201	12		mod __sinValue, __sinValue, __constVal360
17	9202	16		brcmp 1, __sinQ4, __sinValue, __constVal270
17	9203	20		brcmp 1, __sinQ3, __sinValue, __constVal180
17	9204	24		brcmp 1, __sinQ2, __sinValue, __constVal90
17	9207	28		index __sinResult, __sin_table, __sinValue
17	9208	32		jmp __sinAlmostDone
17	9212	34		sub __sinValue, __constVal180, __sinValue
17	9213	38		index __sinResult, __sin_table, __sinValue
17	9214	42		jmp __sinAlmostDone
17	9218	44		sub __sinValue, __sinValue, __constVal180
17	9219	48		index __sinResult, __sin_table, __sinValue
17	9220	52		neg __sinResult, __sinResult
17	9221	55		jmp __sinAlmostDone
17	9225	57		sub __sinValue, __constVal360, __sinValue
17	9226	61		index __sinResult, __sin_table, __sinValue
17	9227	65		neg __sinResult, __sinResult
17	9228	68		jmp __sinAlmostDone
17	9233	70		brcmp 4, __sinDone, __sinValueNeg, __constVal0
17	9234	74		neg __sinResult, __sinResult
17	9237	77		subret ____sinSub_return
18	9243	0		brcmp 1, __asinValueBad, __asinValue, __constVal100
18	9244	4		brcmp 0, __asinValueBad, __asinValue, __constValNeg100
18	9247	8		brtst 0, __asinValueNeg, __asinValue
18	9250	11		index __asinResult, __asin_table, __asinValue
18	9251	15		jmp __asinDone
18	9255	17		neg __asinValue, __asinValue
18	9256	20		index __asinResult, __asin_table, __asinValue
18	9257	24		neg __asinResult, __asinResult
18	9258	27		jmp __asinDone
18	9261	29		set __asinResult, 101
18	9264	32		subret ____asinSub_return
19	9269	0		set __sqrtResult, 0
19	9270	3		brtst 4, __sqrtDone, __sqrtValue
19	9273	6		mov __sqrtPaircount, __constVal0
19	9274	8		replace __sqrtPairs, __sqrtPairs, __constVal0, __constVal0
19	9275	13		replace __sqrtPairs, __sqrtPairs, __constVal1, __constVal0
19	9276	18		replace __sqrtPairs, __sqrtPairs, __constVal2, __constVal0
19	9277	23		replace __sqrtPairs, __sqrtPairs, __constVal3, __constVal0
19	9278	28		replace __sqrtPairs, __sqrtPairs, __constVal4, __constVal0
19	9281	33		brtst 4, __sqrtPairsOK, __sqrtValue
19	9282	36		mod __sqrtN, __sqrtValue, __constVal100
19	9283	40		replace __sqrtPairs, __sqrtPairs, __sqrtPaircount, __sqrtN
19	9284	45		div __sqrtValue, __sqrtValue, __constVal100
19	9285	49		add __sqrtPaircount, __sqrtPaircount, __constVal1
19	9287	53		jmp __sqrtPairsLoop
19	9291	55		index __sqrtP, __sqrtPairs, __sqrtPaircount
19	9292	59		set __sqrtResult, 1
19	9296	62		mul __sqrtN, __sqrtResult, __sqrtResult
19	9297	66		brcmp 1, __sqrtFirstOK, __sqrtN, __sqrtP
19	9298	70		add __sqrtResult, __sqrtResult, __constVal1
19	9299	74		jmp __sqrtFirstLoop
19	9302	76		sub __sqrtResult, __sqrtResult, __constVal1
19	9305	80		mul __sqrtN, __sqrtResult, __sqrtResult
19	9306	84		sub __sqrtM, __sqrtP, __sqrtN
19	9310	88		sub __sqrtPaircount, __sqrtPaircount, __constVal1
19	9312	92		brtst 0, __sqrtDone, __sqrtPaircount
19	9314	95		mul __sqrtM, __sqrtM, __constVal100
19	9315	99		index __sqrtP, __sqrtPairs, __sqrtPaircount
19	9316	103		add __sqrtM, __sqrtM, __sqrtP
19	9319	107		set __sqrtN, 1
19	9322	110		mul __sqrtR, __sqrtResult, __constVal20
19	9323	114		add __sqrtR, __sqrtR, __sqrtN
19	9324	118		mul __sqrtR, __sqrtR, __sqrtN
19	9326	122		brcmp 1, __sqrtDigitDone, __sqrtR, __sqrtM
19	9328	126		add __sqrtN, __sqrtN, __constVal1
19	9329	130		jmp __sqrtDigitLoop
19	9332	132		sub __sqrtN, __sqrtN, __constVal1
19	9336	136		mul __sqrtR, __sqrtResult, __constVal20
19	9337	140		add __sqrtR, __sqrtR, __sqrtN
19	9338	144		mul __sqrtR, __sqrtR, __sqrtN
19	9339	148		sub __sqrtM, __sqrtM, __sqrtR
19	9342	152		mul __sqrtResult, __sqrtResult, __constVal10
19	9343	156		add __sqrtResult, __sqrtResult, __sqrtN
19	9345	160		jmp __sqrtBigLoop
19	9348	162		subret ____sqrtSub_return
20	9434	0		mov __PFIdx, __PF_p1
20	9435	2		index __PFChToggle, __PFToggles, __PFIdx
20	9436	6		add __PF_p1, __PF_p1, __PFChToggle
20	9437	10		subret ____PFApplyToggle_return
21	9441	0		xor __PFChToggle, __PFChToggle, __constVal8
21	9442	4		replace __PFToggles, __PFToggles, __PFIdx, __PFChToggle
21	9443	9		subret ____PFUpdateToggle_return
22	9447	0		mov __PFIdx, __PF_p1
22	9448	2		index __PFChToggle, __RCToggles, __PFIdx
22	9449	6		add __PF_p1, __PF_p1, __PFChToggle
22	9450	10		subret ____RCApplyToggle_return
23	9454	0		xor __PFChToggle, __PFChToggle, __constVal8
23	9455	4		replace __RCToggles, __RCToggles, __PFIdx, __PFChToggle
23	9456	9		subret ____RCUpdateToggle_return
24	9461	0		brtst 4, __PFUseIRTrainMode, __PFPowerFuncMode
24	9462	3		index __PFNx, __PFNibbles, 65535
24	9463	7		xor __PFTmp, __constVal15, __PFNx
24	9464	11		index __PFNx, __PFNibbles, __constVal1
24	9465	15		xor __PFTmp, __PFTmp, __PFNx
24	9466	19		index __PFNx, __PFNibbles, __constVal2
24	9467	23		xor __PFTmp, __PFTmp, __PFNx
24	9468	27		jmp __PFEndPowerFuncModeCheck
24	9470	29		index __PFNx, __PFNibbles, 65535
24	9471	33		sub __PFTmp, __constVal15, __PFNx
24	9472	37		index __PFNx, __PFNibbles, __constVal1
24	9473	41		sub __PFTmp, __PFTmp, __PFNx
24	9474	45		index __PFNx, __PFNibbles, __constVal2
24	9475	49		sub __PFTmp, __PFTmp, __PFNx
24	9477	53		replace __PFNibbles, __PFNibbles, __constVal3, __PFTmp
24	9478	58		subret ____PFCalcChecksum_return
25	9482	0		subcall __PFApplyToggle, ____PFApplyToggle_return
25	9483	3		replace __PFNibbles, __PFNibbles, 65535, __PF_p1
25	9484	8		replace __PFNibbles, __PFNibbles, __constVal1, __constVal1
25	9485	13		mul __PF_p3, __PF_p3, __constVal4
25	9486	17		add __PF_p3, __PF_p3, __PF_p2
25	9487	21		replace __PFNibbles, __PFNibbles, __constVal2, __PF_p3
25	9488	26		subcall __PFUpdateToggle, ____PFUpdateToggle_return
25	9489	29		subret ____PFComboDirectSub_return
26	9493	0		subcall __PFApplyToggle, ____PFApplyToggle_return
26	9494	3		replace __PFNibbles, __PFNibbles, 65535, __PF_p1
26	9495	8		set __PF_p1, 3
26	9496	11		brtst 4, __PFEndIfSPContinuous, __PF_p5
26	9497	14		set __PF_p1, 2
26	9499	17		replace __PFNibbles, __PFNibbles, __constVal1, __PF_p1
26	9500	22		mul __PF_p2, __PF_p2, __constVal8
26	9501	26		mul __PF_p3, __PF_p3, __constVal4
26	9502	30		add __PF_p2, __PF_p2, __PF_p3
26	9503	34		add __PF_p2, __PF_p2, __PF_p4
26	9504	38		replace __PFNibbles, __PFNibbles, __constVal2, __PF_p2
26	9505	43		subcall __PFUpdateToggle, ____PFUpdateToggle_return
26	9506	46		subret ____PFSinglePinSub_return
27	9510	0		subcall __PFApplyToggle, ____PFApplyToggle_return
27	9511	3		replace __PFNibbles, __PFNibbles, 65535, __PF_p1
27	9512	8		set __PF_p1, 4
27	9513	11		brtst 4, __PFEndIfSOCst, __PF_p4
27	9514	14		set __PF_p1, 6
27	9516	17		add __PF_p1, __PF_p1, __PF_p2
27	9517	21		replace __PFNibbles, __PFNibbles, __constVal1, __PF_p1
27	9518	26		replace __PFNibbles, __PFNibbles, __constVal2, __PF_p3
27	9519	31		subcall __PFUpdateToggle, ____PFUpdateToggle_return
27	9520	34		subret ____PFSingleOutputSub_return
28	9524	0		subcall __PFApplyToggle, ____PFApplyToggle_return
28	9525	3		add __PF_p1, __PF_p1, __constVal4
28	9526	7		replace __PFNibbles, __PFNibbles, 65535, __PF_p1
28	9527	12		replace __PFNibbles, __PFNibbles, __constVal1, __PF_p3
28	9528	17		replace __PFNibbles, __PFNibbles, __constVal2, __PF_p2
28	9529	22		subcall __PFUpdateToggle, ____PFUpdateToggle_return
28	9530	25		subret ____PFComboPWMSub_return
29	9534	0		subcall __PFApplyToggle, ____PFApplyToggle_return
29	9535	3		replace __PFNibbles, __PFNibbles, 65535, __PF_p1
29	9536	8		replace __PFNibbles, __PFNibbles, __constVal1, __constVal0
29	9537	13		replace __PFNibbles, __PFNibbles, __constVal2, __PF_p2
29	9538	18		subcall __PFUpdateToggle, ____PFUpdateToggle_return
29	9539	21		subret ____PFTrainSub_return
30	9543	0		subcall __RCApplyToggle, ____RCApplyToggle_return
30	9544	3		replace __PFNibbles, __PFNibbles, 65535, __PF_p1
30	9545	8		replace __PFNibbles, __PFNibbles, __constVal1, __constVal0
30	9546	13		replace __PFNibbles, __PFNibbles, __constVal2, __PF_p2
30	9547	18		subcall __RCUpdateToggle, ____RCUpdateToggle_return
30	9548	21		subret ____RCTrainSub_return
31	9552	0		subcall __PFApplyToggle, ____PFApplyToggle_return
31	9553	3		replace __PFNibbles, __PFNibbles, 65535, __PF_p1
31	9554	8		replace __PFNibbles, __PFNibbles, __constVal1, __PF_p2
31	9555	13		replace __PFNibbles, __PFNibbles, __constVal2, __PF_p3
31	9556	18		subcall __PFUpdateToggle, ____PFUpdateToggle_return
31	9557	21		subret ____PFRawOutputSub_return
32	9561	0		subcall __PFCalcChecksum, ____PFCalcChecksum_return
32	9562	3		brtst 4, __HTPFUseIRTrainMode, __PFPowerFuncMode
32	9563	6		set __HTPFDx, 3
32	9564	9		jmp __HTPFEndPowerFuncModeCheck
32	9566	11		set __HTPFDx, 2
32	9568	14		arrinit __HTPFBits, __constVal0, __constVal88
32	9569	18		arrinit __PFBytes, __constVal0, __constVal11
32	9571	22		set __PFIdx, 0
32	9572	25		replace __HTPFBits, __HTPFBits, __PFIdx, __constVal1
32	9573	30		add __PFIdx, __PFIdx, __constVal8
32	9575	34		set __HTPFI, 0
32	9577	37		index __PFNx, __PFNibbles, __HTPFI
32	9578	41		set __HTPFJ, 3
32	9580	44		replace __HTPFBits, __HTPFBits, __PFIdx, __constVal1
32	9581	49		mov ____HTPowerFunctionCalcBits_shift_cnt, __HTPFJ
32	9581	52		mov ____HTPowerFunctionCalcBits_shift_tmp, __constVal1
32	9581	55	__shiftstart_0:	brtst LTEQ, __shiftdone_0, ____HTPowerFunctionCalcBits_shift_cnt
32	9581	58		mul ____HTPowerFunctionCalcBits_shift_tmp, ____HTPowerFunctionCalcBits_shift_tmp, __constVal2
32	9581	62		sub ____HTPowerFunctionCalcBits_shift_cnt, ____HTPowerFunctionCalcBits_shift_cnt, __constVal1
32	9581	66		jmp __shiftstart_0
32	9581	68		mov __PFTmp, ____HTPowerFunctionCalcBits_shift_tmp
32	9582	71		and __HTPFValue, __PFNx, __PFTmp
32	9583	75		add __PFIdx, __PFIdx, __HTPFDx
32	9584	79		brcmp 5, __lblCalcBitsFoundZero, __HTPFValue, __PFTmp
32	9585	83		add __PFIdx, __PFIdx, __constVal2
32	9587	87		sub __HTPFJ, __HTPFJ, __constVal1
32	9588	91		brtst 3, __lblCalcBitsForJBitSet, __HTPFJ
32	9589	94		add __HTPFI, __HTPFI, __constVal1
32	9590	98		brcmp 2, __lblCalcBitsForIBitSet, __HTPFI, __constVal3
32	9591	102		replace __HTPFBits, __HTPFBits, __PFIdx, __constVal1
32	9593	107		set __HTPFI, 0
32	9595	110		set __HTPFValue, 0
32	9596	113		set __HTPFJ, 0
32	9598	116		index __PFTmp, __HTPFBits, __HTPFI
32	9599	120		add __HTPFValue, __HTPFValue, __PFTmp
32	9600	124		brcmp 3, __lblCalcBitsByteCalcLastBit, __HTPFJ, __constVal7
32	9601	128		mul __HTPFValue, __HTPFValue, __constVal2
32	9603	132		add __HTPFI, __HTPFI, __constVal1
32	9604	136		add __HTPFJ, __HTPFJ, __constVal1
32	9605	140		brcmp 2, __lblCalcBitsForJByteCalc, __HTPFJ, __constVal7
32	9606	144		div __PFIdx, __HTPFI, __constVal8
32	9607	148		sub __PFIdx, __PFIdx, __constVal1
32	9608	152		replace __PFBytes, __PFBytes, __PFIdx, __HTPFValue
32	9609	157		brcmp 0, __lblCalcBitsWhileIByteCalc, __HTPFI, __constVal88
32	9611	161		sub __HTPFDx, __HTPFDx, __constVal1
32	9612	165		replace __HTPFCommitIRLink, __HTPFCommitIRLink, __constVal1, __HTPFDx
32	9614	170		arrbuild __HTPFI2CBuf, __HTPFStartIRLink, __PFBytes, __HTPFCommitIRLink
32	9615	176		subret ____HTPowerFunctionCalcBits_return
33	9911	0		arrsize __RCSCmdBytes, __gRCXCmd.Command
33	9912	3		index __RCSCmd, __gRCXCmd.Command, 65535
33	9913	7		set __RCSCSum, 0
33	9915	10		replace __RCSHeaderMsg, __RCSHeaderMsg, 65535, __gRCXCmd.Address
33	9917	15	#pragma macro 25
33	9917	15		acquire __CLSWMutex0
33	9917	17		acquire __CLSWMutex1
33	9917	18		acquire __CLSWMutex2
33	9917	19		acquire __CLSWMutex3
33	9917	20		mov __CLSWArgs0.Port, __gRCXCmd.Port
33	9917	23		mov __CLSWArgs0.ReturnLen, __constVal0
33	9917	26		mov __CLSWArgs0.Buffer, __RCSHeaderMsg
33	9917	29		syscall 21, __CLSWArgs0
33	9917	32		mov __RCSTmpByte, __CLSWArgs0.Result
33	9917	34		release __CLSWMutex0
33	9917	36		release __CLSWMutex1
33	9917	37		release __CLSWMutex2
33	9917	38		release __CLSWMutex3
33	9917	39	#line 9917 "NXTDefs.h"
33	9918	39		wait2 NA, __constVal12
33	9921	42		set __RCSMsgBufSize, 2
33	9922	45		mul __RCSMsgBufSize, __RCSMsgBufSize, __RCSCmdBytes
33	9923	49		add __RCSMsgBufSize, __RCSMsgBufSize, __constVal7
33	9924	53		add __RCSTotalBytes, __RCSMsgBufSize, __gRCXCmd.ResponseBytes
33	9926	57		arrinit __RCSInCmd, __constVal0, __RCSMsgBufSize
33	9927	61		replace __RCSInCmd, __RCSInCmd, 65535, __gRCXCmd.Address
33	9928	66		set __RCSTmpByte, 2
33	9929	69		mul __RCSTmpByte, __RCSTmpByte, __RCSCmdBytes
33	9930	73		sub __RCSTmpByte, __constVal75, __RCSTmpByte
33	9931	77		replace __RCSInCmd, __RCSInCmd, __constVal1, __RCSTmpByte
33	9934	82		or __RCSTmpByte, __RCSCmd, __RCSToggle
33	9935	86		replace __RCSInCmd, __RCSInCmd, __constVal2, __RCSTmpByte
33	9936	91		mov __RCSCSum, __RCSTmpByte
33	9937	93		sub __RCSTmpByte, __constVal255, __RCSTmpByte
33	9938	97		replace __RCSInCmd, __RCSInCmd, __constVal3, __RCSTmpByte
33	9940	102		set __RCSI, 0
33	9941	105		xor __RCSToggle, __RCSToggle, __constVal8
33	9943	109		brcmp 2, __RCSEndWhileILTCmdBytes, __RCSCmdBytes, __constVal1
33	9946	113		sub __RCSTmpByte, __RCSCmdBytes, __constVal1
33	9947	117		brcmp 3, __RCSEndWhileILTCmdBytes, __RCSI, __RCSTmpByte
33	9948	121		add __RCSTmpByte, __RCSI, __constVal1
33	9949	125		index __RCSTmpByte2, __gRCXCmd.Command, __RCSTmpByte
33	9950	129		mul __RCSTmpByte, __RCSI, __constVal2
33	9951	133		add __RCSTmpByte, __RCSTmpByte, __constVal4
33	9952	137		replace __RCSInCmd, __RCSInCmd, __RCSTmpByte, __RCSTmpByte2
33	9953	142		add __RCSCSum, __RCSCSum, __RCSTmpByte2
33	9954	146		add __RCSTmpByte, __RCSTmpByte, __constVal1
33	9955	150		sub __RCSTmpByte2, __constVal255, __RCSTmpByte2
33	9956	154		replace __RCSInCmd, __RCSInCmd, __RCSTmpByte, __RCSTmpByte2
33	9957	159		add __RCSI, __RCSI, __constVal1
33	9958	163		jmp __RCSWhileILTCmdBytes
33	9961	165		mul __RCSTmpByte, __RCSI, __constVal2
33	9962	169		add __RCSTmpByte, __RCSTmpByte, __constVal4
33	9963	173		replace __RCSInCmd, __RCSInCmd, __RCSTmpByte, __RCSCSum
33	9964	178		sub __RCSTmpByte2, __constVal255, __RCSCSum
33	9965	182		add __RCSTmpByte, __RCSTmpByte, __constVal1
33	9966	186		replace __RCSInCmd, __RCSInCmd, __RCSTmpByte, __RCSTmpByte2
33	9968	191		add __RCSTmpByte, __RCSTmpByte, __constVal1
33	9969	195		mul __RCSTmpByte2, __RCSCmdBytes, __constVal2
33	9970	199		add __RCSTmpByte2, __RCSTmpByte2, __constVal2
33	9971	203		replace __RCSInCmd, __RCSInCmd, __RCSTmpByte, __RCSTmpByte2
33	9972	208		add __RCSTmpByte, __RCSTmpByte, __constVal1
33	9973	212		replace __RCSInCmd, __RCSInCmd, __RCSTmpByte, __constVal0
33	9974	217		add __RCSTmpByte, __RCSTmpByte, __constVal1
33	9975	221		replace __RCSInCmd, __RCSInCmd, __RCSTmpByte, __constVal1
33	9978	226	#pragma macro 25
33	9978	226		acquire __CLSWMutex0
33	9978	228		acquire __CLSWMutex1
33	9978	229		acquire __CLSWMutex2
33	9978	230		acquire __CLSWMutex3
33	9978	231		mov __CLSWArgs0.Port, __gRCXCmd.Port
33	9978	234		mov __CLSWArgs0.ReturnLen, __constVal0
33	9978	237		mov __CLSWArgs0.Buffer, __RCSInCmd
33	9978	240		syscall 21, __CLSWArgs0
33	9978	243		mov __RCSTmpByte, __CLSWArgs0.Result
33	9978	245		release __CLSWMutex0
33	9978	247		release __CLSWMutex1
33	9978	248		release __CLSWMutex2
33	9978	249		release __CLSWMutex3
33	9978	250	#line 9978 "NXTDefs.h"
33	9981	250		mul __RCSTmpByte, __RCSTotalBytes, __constVal5
33	9982	254		add __RCSTmpByte, __RCSTmpByte, __constVal10
33	9983	258		wait2 NA, __RCSTmpByte
33	9986	261		brtst 4, __RCSNoResponse, __gRCXCmd.ResponseBytes
33	9988	264		arrbuild __RCSInCmd, __gRCXCmd.Address, __constVal81
33	9989	269		mov __RCSTmpByte, __gRCXCmd.ResponseBytes
33	9990	272	#pragma macro 28
33	9990	272		acquire __RLSBmutex0
33	9990	273		acquire __RLSBmutex1
33	9990	274		acquire __RLSBmutex2
33	9990	275		acquire __RLSBmutex3
33	9990	276		mov __RLSReadPort, __gRCXCmd.Port
33	9990	279		mov __RLSReadBufVar, __RCSInCmd
33	9990	281		mov __RLSBytesCountVar, __RCSTmpByte
33	9990	284		subcall __ReadLSBytesVar, ____ReadLSBytesVar_return
33	9990	287		tst 4, __RCSResult, __RLSBResultVar
33	9990	290		mov __RCSTmpByte, __RLSBytesCountVar
33	9990	293		mov __gRCXCmd.Response, __RLSReadBufVar
33	9990	296		release __RLSBmutex0
33	9990	297		release __RLSBmutex1
33	9990	298		release __RLSBmutex2
33	9990	299		release __RLSBmutex3
33	9990	300	#line 9990 "NXTDefs.h"
33	9992	300		subret ____HTRCXCommandSub_return
34	11542	0	#pragma macro 24
34	11542	0		acquire __RLSBmutex0
34	11542	1		acquire __RLSBmutex1
34	11542	2		acquire __RLSBmutex2
34	11542	3		acquire __RLSBmutex3
34	11542	4		mov __RLSReadPort, __RFIDCont_Port
34	11542	6		mov __RLSReadBufVar, __RLSBbufRFIDInit
34	11542	8		set __RLSBytesCountVar, 0
34	11542	11		subcall __ReadLSBytesVar, ____ReadLSBytesVar_return
34	11542	14		tst 4, __RFIDCont_Result, __RLSBResultVar
34	11542	17		release __RLSBmutex0
34	11542	18		release __RLSBmutex1
34	11542	19		release __RLSBmutex2
34	11542	20		release __RLSBmutex3
34	11542	21	#line 11542 "NXTDefs.h"
34	11543	21		wait2 NA, __constVal15
34	11544	24	#pragma macro 9
34	11544	24		acquire __DNRVmutex
34	11544	25		mov __RDSD_Port, __RFIDCont_Port
34	11544	27		mov __RDSD_SensorAddress, __constVal4
34	11544	29		mov __RDSD_SensorRegister, __constVal50
34	11544	32		set __RDSD_NumBytesToRead, 1
34	11544	35		subcall __MSReadLEValueSub, ____MSReadLEValueSub_return
34	11544	38		mov __RFIDCont_Result, __RDSD_Value
34	11544	41		mov __RDSD_LSStatus, __RDSD_LSStatus
34	11544	43		release __DNRVmutex
34	11544	44	#line 11544 "NXTDefs.h"
34	11545	44		brtst 1, __RFIDCont_Endif, __RFIDCont_Result
34	11546	47	#pragma macro 8
34	11546	47		acquire __WDSCmutex
34	11546	48		mov __WDSC_Port, __RFIDCont_Port
34	11546	50		mov __WDSC_SensorAddress, __constVal4
34	11546	52		set __WDSC_SensorRegister, 65
34	11546	55		arrbuild __WDSC_WriteBytes, __constVal2
34	11546	59		subcall __MSWriteBytesSub, ____MSWriteBytesSub_return
34	11546	62		mov __RFIDCont_Result, __WDSC_LSStatus
34	11546	64		release __WDSCmutex
34	11546	65	#line 11546 "NXTDefs.h"
34	11547	65		wait2 NA, __constVal250
34	11549	68	#pragma macro 29
34	11549	68		set __RFIDCount, 5
34	11549	71		acquire __RLSBmutex0
34	11549	72		acquire __RLSBmutex1
34	11549	73		acquire __RLSBmutex2
34	11549	74		acquire __RLSBmutex3
34	11549	75		mov __RLSReadPort, __RFIDCont_Port
34	11549	77		mov __RLSReadBufVar, __RLSBbufRFIDData
34	11549	79		mov __RLSBytesCountVar, __RFIDCount
34	11549	81		subcall __ReadLSBytesVar, ____ReadLSBytesVar_return
34	11549	84		tst 4, __RFIDCont_Result, __RLSBResultVar
34	11549	87		mov __RFIDCount, __RLSBytesCountVar
34	11549	89		mov __RFIDCont_Output, __RLSReadBufVar
34	11549	91		release __RLSBmutex0
34	11549	92		release __RLSBmutex1
34	11549	93		release __RLSBmutex2
34	11549	94		release __RLSBmutex3
34	11549	95	#line 11549 "NXTDefs.h"
34	11550	95		subret ____RFIDReadContinuousSub_return
35	11554	0		mov __WDSC_lswArgs.Port, __WDSC_Port
35	11555	3		arrbuild __WDSC_lswArgs.Buffer, __WDSC_SensorAddress, __WDSC_SensorRegister, __WDSC_WriteBytes
35	11556	9		set __WDSC_lswArgs.ReturnLen, 0
35	11557	12		syscall 21, __WDSC_lswArgs
35	11559	15	#pragma macro 21
35	11559	15		acquire __CLSCSMutex0
35	11559	17		acquire __CLSCSMutex1
35	11559	18		acquire __CLSCSMutex2
35	11559	19		acquire __CLSCSMutex3
35	11559	20		mov __CLSCSArgs0.Port, __WDSC_Port
35	11559	22		syscall 23, __CLSCSArgs0
35	11559	25		mov __WDSC_LSStatus, __CLSCSArgs0.Result
35	11559	27		release __CLSCSMutex0
35	11559	29		release __CLSCSMutex1
35	11559	30		release __CLSCSMutex2
35	11559	31		release __CLSCSMutex3
35	11559	32	#line 11559 "NXTDefs.h"
35	11560	32		brtst 1, __WDSC_StatusLoop, __WDSC_LSStatus
35	11561	35		subret ____MSWriteBytesSub_return
36	11565	0		mov __RDSD_lswArgs.Port, __RDSD_Port
36	11566	3		arrbuild __RDSD_lswArgs.Buffer, __RDSD_SensorAddress, __RDSD_SensorRegister
36	11567	8		mov __RDSD_lswArgs.ReturnLen, __RDSD_NumBytesToRead
36	11568	11		syscall 21, __RDSD_lswArgs
36	11570	14	#pragma macro 21
36	11570	14		acquire __CLSCSMutex0
36	11570	16		acquire __CLSCSMutex1
36	11570	17		acquire __CLSCSMutex2
36	11570	18		acquire __CLSCSMutex3
36	11570	19		mov __CLSCSArgs0.Port, __RDSD_Port
36	11570	21		syscall 23, __CLSCSArgs0
36	11570	24		mov __RDSD_LSStatus, __CLSCSArgs0.Result
36	11570	26		release __CLSCSMutex0
36	11570	28		release __CLSCSMutex1
36	11570	29		release __CLSCSMutex2
36	11570	30		release __CLSCSMutex3
36	11570	31	#line 11570 "NXTDefs.h"
36	11571	31		brtst 1, __RDSD_CheckStatusAfterWriteLoop, __RDSD_LSStatus
36	11572	34		brtst 4, __RDSD_GoAheadWithRead, __RDSD_LSStatus
36	11573	37		jmp __RDSD_ReadError
36	11575	39		mov __RDSD_lsrArgs.Port, __RDSD_Port
36	11576	41		mov __RDSD_lsrArgs.BufferLen, __RDSD_NumBytesToRead
36	11577	43		syscall 22, __RDSD_lsrArgs
36	11579	46	#pragma macro 21
36	11579	46		acquire __CLSCSMutex0
36	11579	48		acquire __CLSCSMutex1
36	11579	49		acquire __CLSCSMutex2
36	11579	50		acquire __CLSCSMutex3
36	11579	51		mov __CLSCSArgs0.Port, __RDSD_Port
36	11579	53		syscall 23, __CLSCSArgs0
36	11579	56		mov __RDSD_LSStatus, __CLSCSArgs0.Result
36	11579	58		release __CLSCSMutex0
36	11579	60		release __CLSCSMutex1
36	11579	61		release __CLSCSMutex2
36	11579	62		release __CLSCSMutex3
36	11579	63	#line 11579 "NXTDefs.h"
36	11580	63		brtst 1, __RDSD_CheckStatusAfterReadLoop, __RDSD_LSStatus
36	11581	66		arrsize __RDSD_bytesRead, __RDSD_lsrArgs.Buffer
36	11582	69		brcmp 5, __RDSD_ReadError, __RDSD_bytesRead, __RDSD_NumBytesToRead
36	11583	73		brtst 4, __RDSD_GoAheadAndCalculateValue, __RDSD_LSStatus
36	11585	76		mov __RDSD_Value, __RDSD_PreviousValue
36	11586	78		jmp __RDSD_ReturnResults
36	11588	80		set __RDSD_Value, 0
36	11589	83		brcmp 4, __RDSD_OneByte, __RDSD_NumBytesToRead, __constVal1
36	11590	87		brcmp 4, __RDSD_TwoBytes, __RDSD_NumBytesToRead, __constVal2
36	11591	91		brcmp 5, __RDSD_ReadError, __RDSD_NumBytesToRead, __constVal4
36	11592	95		index __RDSD_Byte, __RDSD_lsrArgs.Buffer, __constVal3
36	11593	99		mul __RDSD_Value, __RDSD_Byte, __constVal256
36	11594	103		index __RDSD_Byte, __RDSD_lsrArgs.Buffer, __constVal2
36	11595	107		add __RDSD_Value, __RDSD_Value, __RDSD_Byte
36	11596	111		mul __RDSD_Value, __RDSD_Value, __constVal256
36	11598	115		index __RDSD_Byte, __RDSD_lsrArgs.Buffer, __constVal1
36	11599	119		add __RDSD_Value, __RDSD_Value, __RDSD_Byte
36	11600	123		mul __RDSD_Value, __RDSD_Value, __constVal256
36	11602	127		index __RDSD_Byte, __RDSD_lsrArgs.Buffer, 65535
36	11603	131		add __RDSD_Value, __RDSD_Value, __RDSD_Byte
36	11604	135		mov __RDSD_PreviousValue, __RDSD_Value
36	11606	137		subret ____MSReadLEValueSub_return
37	11733	0		subcall __PFCalcChecksum, ____PFCalcChecksum_return
37	11735	3		index __MSPFByte1, __PFNibbles, 65535
37	11736	7		index __PFTmp, __PFNibbles, __constVal1
37	11737	11		mul __MSPFByte1, __MSPFByte1, __constVal16
37	11738	15		add __MSPFByte1, __MSPFByte1, __PFTmp
37	11739	19		index __MSPFByte2, __PFNibbles, __constVal2
37	11740	23		index __PFTmp, __PFNibbles, __constVal3
37	11741	27		mul __MSPFByte2, __MSPFByte2, __constVal16
37	11742	31		add __MSPFByte2, __MSPFByte2, __PFTmp
37	11743	35		arrbuild __PFBytes, __MSPFByte1, __MSPFByte2
37	11744	40		subret ____MSPowerFunctionCalcBytes_return
38	11846	0		arrsize __MSRCSCmdBytes, __gRCXCmd.Command
38	11847	3		index __MSRCSCmd, __gRCXCmd.Command, 65535
38	11848	7		set __MSRCSCSum, 0
38	11851	10		set __MSRCSMsgBufSize, 2
38	11852	13		mul __MSRCSMsgBufSize, __MSRCSMsgBufSize, __MSRCSCmdBytes
38	11853	17		add __MSRCSMsgBufSize, __MSRCSMsgBufSize, __constVal5
38	11855	21		arrinit __MSRCSInCmd, __constVal0, __MSRCSMsgBufSize
38	11856	25		replace __MSRCSInCmd, __MSRCSInCmd, 65535, __constVal85
38	11857	30		replace __MSRCSInCmd, __MSRCSInCmd, __constVal1, __constVal255
38	11858	35		replace __MSRCSInCmd, __MSRCSInCmd, __constVal2, __constVal0
38	11860	40		or __MSRCSTmpByte, __MSRCSCmd, __MSRCSToggle
38	11861	44		replace __MSRCSInCmd, __MSRCSInCmd, __constVal3, __MSRCSTmpByte
38	11862	49		mov __MSRCSCSum, __MSRCSTmpByte
38	11863	51		sub __MSRCSTmpByte, __constVal255, __MSRCSCSum
38	11864	55		replace __MSRCSInCmd, __MSRCSInCmd, __constVal4, __MSRCSTmpByte
38	11866	60		set __MSRCSI, 0
38	11867	63		xor __MSRCSToggle, __MSRCSToggle, __constVal8
38	11869	67		brcmp 2, __MSRCSEndWhileILTCmdBytes, __MSRCSCmdBytes, __constVal1
38	11872	71		sub __MSRCSTmpByte, __MSRCSCmdBytes, __constVal1
38	11873	75		brcmp 3, __MSRCSEndWhileILTCmdBytes, __MSRCSI, __MSRCSTmpByte
38	11874	79		add __MSRCSTmpByte, __MSRCSI, __constVal1
38	11875	83		index __MSRCSTmpByte2, __gRCXCmd.Command, __MSRCSTmpByte
38	11876	87		mul __MSRCSTmpByte, __MSRCSI, __constVal2
38	11877	91		add __MSRCSTmpByte, __MSRCSTmpByte, __constVal5
38	11878	95		replace __MSRCSInCmd, __MSRCSInCmd, __MSRCSTmpByte, __MSRCSTmpByte2
38	11880	100		add __MSRCSCSum, __MSRCSCSum, __MSRCSTmpByte2
38	11881	104		add __MSRCSTmpByte, __MSRCSTmpByte, __constVal1
38	11882	108		sub __MSRCSTmpByte2, __constVal255, __MSRCSTmpByte2
38	11883	112		replace __MSRCSInCmd, __MSRCSInCmd, __MSRCSTmpByte, __MSRCSTmpByte2
38	11884	117		add __MSRCSI, __MSRCSI, __constVal1
38	11885	121		jmp __MSRCSWhileILTCmdBytes
38	11889	123		mul __MSRCSTmpByte, __MSRCSI, __constVal2
38	11890	127		add __MSRCSTmpByte, __MSRCSTmpByte, __constVal5
38	11891	131		replace __MSRCSInCmd, __MSRCSInCmd, __MSRCSTmpByte, __MSRCSCSum
38	11892	136		sub __MSRCSTmpByte2, __constVal255, __MSRCSCSum
38	11893	140		add __MSRCSTmpByte, __MSRCSTmpByte, __constVal1
38	11894	144		replace __MSRCSInCmd, __MSRCSInCmd, __MSRCSTmpByte, __MSRCSTmpByte2
38	11897	149		mov __MSRCSTmpSByte, __MSRCSMsgBufSize
38	11899	151		arrsubset __gRCXCmd.Command, __MSRCSInCmd, 65535, __constVal14
38	11900	156		arrbuild __MSRCSTmpBuf, __gRCXCmd.Address, __constVal66, __gRCXCmd.Command
38	11902	162	#pragma macro 25
38	11902	162		acquire __WDSCmutex
38	11902	163		mov __WDSC_Port, __gRCXCmd.Port
38	11902	166		mov __WDSC_SensorAddress, __gRCXCmd.Address
38	11902	169		set __WDSC_SensorRegister, 65
38	11902	172		arrbuild __WDSC_WriteBytes, __constVal70
38	11902	176		subcall __MSWriteBytesSub, ____MSWriteBytesSub_return
38	11902	179		mov __MSRCSResult, __WDSC_LSStatus
38	11902	181		release __WDSCmutex
38	11902	182		acquire __WDSCmutex
38	11902	183		mov __WDSC_Port, __gRCXCmd.Port
38	11902	186		mov __WDSC_SensorAddress, __gRCXCmd.Address
38	11902	189		set __WDSC_SensorRegister, 66
38	11902	192		arrbuild __WDSC_WriteBytes, __MSRCSTmpBuf
38	11902	196		subcall __MSWriteBytesSub, ____MSWriteBytesSub_return
38	11902	199		mov __MSRCSResult, __WDSC_LSStatus
38	11902	201		release __WDSCmutex
38	11902	202		arrsize __WDSC_ByteCount, __MSRCSTmpBuf
38	11902	205		acquire __WDSCmutex
38	11902	206		mov __WDSC_Port, __gRCXCmd.Port
38	11902	209		mov __WDSC_SensorAddress, __gRCXCmd.Address
38	11902	212		set __WDSC_SensorRegister, 64
38	11902	215		arrbuild __WDSC_WriteBytes, __WDSC_ByteCount
38	11902	219		subcall __MSWriteBytesSub, ____MSWriteBytesSub_return
38	11902	222		mov __MSRCSResult, __WDSC_LSStatus
38	11902	224		release __WDSCmutex
38	11902	225	#line 11902 "NXTDefs.h"
38	11903	225		sub __MSRCSTmpSByte, __MSRCSTmpSByte, __constVal14
38	11904	229		brtst 2, __MSRCSEndWhileMsgBufSizeGTZero, __MSRCSTmpSByte
38	11905	232		arrsubset __MSRCSTmpBuf, __MSRCSInCmd, __constVal14, 65535
38	11906	237		mov __MSRCSInCmd, __MSRCSTmpBuf
38	11907	239		jmp __MSRCSWhileMsgBufSizeGTZero
38	11911	241		arrbuild __MSRCSTmpBuf, __gRCXCmd.Address, __constVal64, __MSRCSMsgBufSize
38	11912	247	#pragma macro 25
38	11912	247		acquire __WDSCmutex
38	11912	248		mov __WDSC_Port, __gRCXCmd.Port
38	11912	251		mov __WDSC_SensorAddress, __gRCXCmd.Address
38	11912	254		set __WDSC_SensorRegister, 65
38	11912	257		arrbuild __WDSC_WriteBytes, __constVal70
38	11912	261		subcall __MSWriteBytesSub, ____MSWriteBytesSub_return
38	11912	264		mov __MSRCSResult, __WDSC_LSStatus
38	11912	266		release __WDSCmutex
38	11912	267		acquire __WDSCmutex
38	11912	268		mov __WDSC_Port, __gRCXCmd.Port
38	11912	271		mov __WDSC_SensorAddress, __gRCXCmd.Address
38	11912	274		set __WDSC_SensorRegister, 66
38	11912	277		arrbuild __WDSC_WriteBytes, __MSRCSTmpBuf
38	11912	281		subcall __MSWriteBytesSub, ____MSWriteBytesSub_return
38	11912	284		mov __MSRCSResult, __WDSC_LSStatus
38	11912	286		release __WDSCmutex
38	11912	287		arrsize __WDSC_ByteCount, __MSRCSTmpBuf
38	11912	290		acquire __WDSCmutex
38	11912	291		mov __WDSC_Port, __gRCXCmd.Port
38	11912	294		mov __WDSC_SensorAddress, __gRCXCmd.Address
38	11912	297		set __WDSC_SensorRegister, 64
38	11912	300		arrbuild __WDSC_WriteBytes, __WDSC_ByteCount
38	11912	304		subcall __MSWriteBytesSub, ____MSWriteBytesSub_return
38	11912	307		mov __MSRCSResult, __WDSC_LSStatus
38	11912	309		release __WDSCmutex
38	11912	310	#line 11912 "NXTDefs.h"
38	11915	310		mul __MSRCSTmpWord, __MSRCSMsgBufSize, __constVal5
38	11916	314		wait2 NA, __MSRCSTmpWord
38	11919	317		brtst 4, __MSRCSNoResponse, __gRCXCmd.ResponseBytes
38	11922	320		add __MSRCSTmpWord, __MSRCSMsgBufSize, __gRCXCmd.ResponseBytes
38	11923	324		mul __MSRCSTmpWord, __MSRCSTmpWord, __constVal5
38	11924	328		wait2 NA, __MSRCSTmpWord
38	11927	331	#pragma macro 42
38	11927	331		acquire __DNRVmutex
38	11927	332		acquire __RLSBmutex0
38	11927	333		acquire __RLSBmutex1
38	11927	334		acquire __RLSBmutex2
38	11927	335		acquire __RLSBmutex3
38	11927	336		mov __RLSReadPort, __gRCXCmd.Port
38	11927	339		arrbuild __RLSReadBufVar, __gRCXCmd.Address, __constVal64
38	11927	344		set __RLSBytesCountVar, 1
38	11927	347		subcall __ReadLSBytesVar, ____ReadLSBytesVar_return
38	11927	350		index __RLSBytesCountVar, __RLSReadBufVar, 65535
38	11927	354		arrbuild __RLSReadBufVar, __gRCXCmd.Address, __constVal66
38	11927	359		subcall __ReadLSBytesVar, ____ReadLSBytesVar_return
38	11927	362		tst 4, __MSRCSResult, __RLSBResultVar
38	11927	365		mov __gRCXCmd.Response, __RLSReadBufVar
38	11927	368		release __RLSBmutex0
38	11927	369		release __RLSBmutex1
38	11927	370		release __RLSBmutex2
38	11927	371		release __RLSBmutex3
38	11927	372		acquire __WDSCmutex
38	11927	373		mov __WDSC_Port, __gRCXCmd.Port
38	11927	376		mov __WDSC_SensorAddress, __gRCXCmd.Address
38	11927	379		set __WDSC_SensorRegister, 65
38	11927	382		arrbuild __WDSC_WriteBytes, __constVal70
38	11927	386		subcall __MSWriteBytesSub, ____MSWriteBytesSub_return
38	11927	389		mov __MSRCSResult, __WDSC_LSStatus
38	11927	391		release __WDSCmutex
38	11927	392		release __DNRVmutex
38	11927	393	#line 11927 "NXTDefs.h"
38	11930	393		subret ____MSRCXCommandSub_return
39	12745	0		brcmp 4, __GL_nbc_gl_range_ok, __GL_glErrorState, __constVal1
39	12747	4		brcmp 0, __GL_nbc_gl_range_ok, __GL_glRangeValue, __GL_glRangeMaxValue
39	12748	8		set __GL_glErrorState, 1
39	12749	11		mov __GL_glErrorMsg, __GL_glRangeErrorMsg
39	12751	13		subret ____GL_glRangeCheck_return
40	12759	0		set __GL_glSettings.cullMode, 2
40	12760	3		set __GL_glSettings.circleSize, 4
40	12761	6		set __GL_glSettings.camDepth, 100
40	12762	9		set __GL_glSettings.zoom, 0
40	12763	12		arrinit __GL_vertexData, __GL_vertex0, __constVal256
40	12764	16		set __GL_vertexCount, 0
40	12765	19		arrinit __GL_lineData, __GL_line, __constVal256
40	12766	23		set __GL_lineCount, 0
40	12767	26		arrinit __GL_polygonData, __GL_polygon, __constVal128
40	12768	30		set __GL_polygonCount, 0
40	12769	33		arrinit __GL_objectActionData, __GL_objectAction, __constVal32
40	12770	37		arrinit __GL_object.actionList, __constVal0, __constVal32
40	12771	41		arrinit __GL_objectData, __GL_object, __constVal16
40	12772	45		set __GL_objectCount, 0
40	12773	48		arrinit __GL_pvData, __constVal0, __constVal256
40	12774	52		set __GL_pvDataCount, 0
40	12775	55		arrinit __GL_plData, __constVal0, __constVal256
40	12776	59		set __GL_plDataCount, 0
40	12777	62		set __GL_angleX, 0
40	12778	65		set __GL_angleY, 0
40	12779	68		set __GL_angleZ, 0
40	12780	71		arrinit __GL_buffer, __constVal0, __constVal200
40	12781	75		subret ____GL_glInit_return
41	12789	0		brcmp 4, __GL_nbc_gl_set_circle_size, __GL_glSettingType, __constVal1
41	12790	4		brcmp 4, __GL_nbc_gl_set_cull_mode, __GL_glSettingType, __constVal2
41	12791	8		brcmp 4, __GL_nbc_gl_set_camera_depth, __GL_glSettingType, __constVal3
41	12792	12		brcmp 4, __GL_nbc_gl_set_zoom_factor, __GL_glSettingType, __constVal4
41	12794	16		jmp __GL_nbc_gl_set_done
41	12796	18		mov __GL_glSettings.circleSize, __GL_glSettingValue
41	12797	21		jmp __GL_nbc_gl_set_done
41	12799	23		mov __GL_glSettings.cullMode, __GL_glSettingValue
41	12800	26		jmp __GL_nbc_gl_set_done
41	12802	28		mov __GL_glSettings.camDepth, __GL_glSettingValue
41	12803	31		jmp __GL_nbc_gl_set_done
41	12805	33		mov __GL_glSettings.zoom, __GL_glSettingValue
41	12807	36		subret ____GL_glSet_return
42	12817	0		brcmp 4, __GL_nbc_gl_add_vertex_error, __GL_glErrorState, __constVal1
42	12819	4		brcmp 4, __GL_nbc_gl_empty_vertex_list, __GL_vertexCount, __constVal0
42	12821	8		mov __GL_i, __GL_object.firstVertex
42	12823	11		index __GL_vertex1, __GL_vertexData, __GL_i
42	12824	15		brcmp 5, __GL_nbc_gl_vertex_not_equal, __GL_vertex1.orig.x, __GL_vertex0.orig.x
42	12825	19		brcmp 5, __GL_nbc_gl_vertex_not_equal, __GL_vertex1.orig.y, __GL_vertex0.orig.y
42	12826	23		brcmp 5, __GL_nbc_gl_vertex_not_equal, __GL_vertex1.orig.z, __GL_vertex0.orig.z
42	12827	27		mov __GL_vertexIndex, __GL_i
42	12828	30		jmp __GL_nbc_gl_add_vertex_done
42	12830	32		add __GL_i, __GL_i, __constVal1
42	12831	36		brcmp 0, __GL_nbc_gl_find_vertex, __GL_i, __GL_object.lastVertex
42	12833	40	#pragma macro 4
42	12833	40		mov __GL_glRangeValue, __GL_vertexCount
42	12833	43		mov __GL_glRangeMaxValue, __constVal256
42	12833	45		mov __GL_glRangeErrorMsg, __constStr0001
42	12833	47		subcall __GL_glRangeCheck, ____GL_glRangeCheck_return
42	12856	50	#line 12856 "NXTDefs.h"
42	12857	50		brcmp 4, __GL_nbc_gl_add_vertex_error, __GL_glErrorState, __constVal1
42	12859	54		replace __GL_vertexData, __GL_vertexData, __GL_vertexCount, __GL_vertex0
42	12860	59		mov __GL_vertexIndex, __GL_vertexCount
42	12861	61		add __GL_vertexCount, __GL_vertexCount, __constVal1
42	12863	65		replace __GL_pvData, __GL_pvData, __GL_polygon.lastVertex, __GL_vertexIndex
42	12864	70		add __GL_polygon.lastVertex, __GL_polygon.lastVertex, __constVal1
42	12865	74		add __GL_pvDataCount, __GL_pvDataCount, __constVal1
42	12866	78		mov __GL_object.lastVertex, __GL_vertexCount
42	12868	81		subret ____GL_glAddVertex_return
43	12876	0		brcmp 4, __GL_nbc_gl_end_error, __GL_glErrorState, __constVal1
43	12877	4		subcall __GL_glAddLines, ____GL_glAddLines_return
43	12878	7		replace __GL_polygonData, __GL_polygonData, __GL_polygonCount, __GL_polygon
43	12879	12		add __GL_polygonCount, __GL_polygonCount, __constVal1
43	12881	16		subret ____GL_glEnd_return
44	12890	0		brcmp 4, __GL_nbc_gl_add_lines_error, __GL_glErrorState, __constVal1
44	12891	4		mov __GL_polygon.firstLine, __GL_plDataCount
44	12893	7		mov __GL_i, __GL_polygon.firstVertex
44	12895	10		add __GL_j, __GL_i, __constVal1
44	12896	14		brcmp 0, __GL_nbc_gl_find_lines_modj, __GL_j, __GL_polygon.lastVertex
44	12897	18		mov __GL_j, __GL_polygon.firstVertex
44	12899	21		brcmp 4, __GL_nbc_gl_add_line_done2, __GL_polygon.beginMode, __constVal2
44	12902	25		index __GL_a, __GL_pvData, __GL_i
44	12904	29		index __GL_b, __GL_pvData, __GL_j
44	12906	33		brcmp 4, __GL_nbc_empty_lines_list, __GL_lineCount, __constVal0
44	12908	37		mov __GL_k, __GL_object.firstLine
44	12910	40		index __GL_line, __GL_lineData, __GL_k
44	12911	44		brcmp 5, __GL_nbc_gl_find_line_not_equal1, __GL_a, __GL_line.firstVertex
44	12912	48		brcmp 5, __GL_nbc_gl_find_line_not_equal1, __GL_b, __GL_line.lastVertex
44	12913	52		mov __GL_lineIndex, __GL_k
44	12914	55		jmp __GL_nbc_gl_add_line_done1
44	12916	57		brcmp 5, __GL_nbc_gl_find_line_not_equal2, __GL_b, __GL_line.firstVertex
44	12917	61		brcmp 5, __GL_nbc_gl_find_line_not_equal2, __GL_a, __GL_line.lastVertex
44	12918	65		mov __GL_lineIndex, __GL_k
44	12919	68		jmp __GL_nbc_gl_add_line_done1
44	12921	70		add __GL_k, __GL_k, __constVal1
44	12922	74		brcmp 0, __GL_nbc_gl_find_lines2, __GL_k, __GL_lineCount
44	12924	78		mov __GL_line.firstVertex, __GL_a
44	12925	81		mov __GL_line.lastVertex, __GL_b
44	12926	84	#pragma macro 4
44	12926	84		mov __GL_glRangeValue, __GL_lineCount
44	12926	87		mov __GL_glRangeMaxValue, __constVal256
44	12926	89		mov __GL_glRangeErrorMsg, __constStr0002
44	12926	91		subcall __GL_glRangeCheck, ____GL_glRangeCheck_return
44	12926	94	#line 12926 "NXTDefs.h"
44	12927	94		brcmp 4, __GL_nbc_gl_add_lines_error, __GL_glErrorState, __constVal1
44	12929	98		replace __GL_lineData, __GL_lineData, __GL_lineCount, __GL_line
44	12930	103		mov __GL_lineIndex, __GL_lineCount
44	12931	105		add __GL_lineCount, __GL_lineCount, __constVal1
44	12933	109	#pragma macro 4
44	12933	109		mov __GL_glRangeValue, __GL_plDataCount
44	12933	112		mov __GL_glRangeMaxValue, __constVal256
44	12933	114		mov __GL_glRangeErrorMsg, __constStr0003
44	12933	116		subcall __GL_glRangeCheck, ____GL_glRangeCheck_return
44	12933	119	#line 12933 "NXTDefs.h"
44	12934	119		brcmp 4, __GL_nbc_gl_add_lines_error, __GL_glErrorState, __constVal1
44	12936	123		replace __GL_plData, __GL_plData, __GL_plDataCount, __GL_lineIndex
44	12937	128		add __GL_plDataCount, __GL_plDataCount, __constVal1
44	12938	132		add __GL_i, __GL_i, __constVal1
44	12939	136		brcmp 0, __GL_nbc_gl_find_lines1, __GL_i, __GL_polygon.lastVertex
44	12941	140		mov __GL_polygon.lastLine, __GL_plDataCount
44	12943	143		subret ____GL_glAddLines_return
45	12951	0		brcmp 4, __GL_nbc_gl_end_object_error, __GL_glErrorState, __constVal1
45	12952	4		mov __GL_object.lastPolygon, __GL_polygonCount
45	12953	7		replace __GL_objectData, __GL_objectData, __GL_objectCount, __GL_object
45	12954	12		add __GL_objectCount, __GL_objectCount, __constVal1
45	12956	16		subret ____GL_glEndObject_return
46	12964	0		index __GL_object, __GL_objectData, __GL_objectIndex
46	12965	4		mov __GL_objectAction.type, __GL_action
46	12966	7		mov __GL_objectAction.value, __GL_value
46	12967	10		brcmp 4, __GL_nbc_gl_action_rotate, __GL_action, __constVal4
46	12968	14		brcmp 4, __GL_nbc_gl_action_rotate, __GL_action, __constVal5
46	12969	18		brcmp 4, __GL_nbc_gl_action_rotate, __GL_action, __constVal6
46	12970	22		jmp __GL_nbc_gl_action_no_rotate
46	12973	24		mod __GL_value, __GL_value, __constVal360
46	12976	28		index __GL_objectAction.lsin, __GL_SIN_TABLE, __GL_value
46	12977	32		add __GL_value, __GL_value, __constVal90
46	12978	36		mod __GL_value, __GL_value, __constVal360
46	12979	40		index __GL_objectAction.lcos, __GL_SIN_TABLE, __GL_value
46	12981	44	#pragma macro 4
46	12981	44		mov __GL_glRangeValue, __GL_object.actionCount
46	12981	47		mov __GL_glRangeMaxValue, __constVal32
46	12981	50		mov __GL_glRangeErrorMsg, __constStr0004
46	12981	52		subcall __GL_glRangeCheck, ____GL_glRangeCheck_return
46	12981	55	#line 12981 "NXTDefs.h"
46	12982	55		brcmp 4, __GL_nbc_gl_add_object_error, __GL_glErrorState, __constVal1
46	12984	59		replace __GL_object.actionList, __GL_object.actionList, __GL_object.actionCount, __GL_objectActionCount
46	12985	64		add __GL_object.actionCount, __GL_object.actionCount, __constVal1
46	12986	68		replace __GL_objectData, __GL_objectData, __GL_objectIndex, __GL_object
46	12987	73	#pragma macro 4
46	12987	73		mov __GL_glRangeValue, __GL_objectActionCount
46	12987	76		mov __GL_glRangeMaxValue, __constVal32
46	12987	79		mov __GL_glRangeErrorMsg, __constStr0004
46	12987	81		subcall __GL_glRangeCheck, ____GL_glRangeCheck_return
46	12987	84	#line 12987 "NXTDefs.h"
46	12988	84		brcmp 4, __GL_nbc_gl_add_object_error, __GL_glErrorState, __constVal1
46	12990	88		replace __GL_objectActionData, __GL_objectActionData, __GL_objectActionCount, __GL_objectAction
46	12991	93		add __GL_objectActionCount, __GL_objectActionCount, __constVal1
46	12993	97		subret ____GL_glObjectAction_return
47	13001	0		mov __GL_i, __GL_object.firstVertex
47	13003	3		index __GL_vertex0, __GL_vertexData, __GL_i
47	13004	7		mov __GL_vertex0.rot.x, __GL_vertex0.orig.x
47	13005	9		mov __GL_vertex0.rot.y, __GL_vertex0.orig.y
47	13006	11		mov __GL_vertex0.rot.z, __GL_vertex0.orig.z
47	13007	13		brcmp 4, __GL_nbc_gl_no_actions, __GL_object.actionCount, __constVal0
47	13008	17		set __GL_j, 0
47	13011	20		index __GL_k, __GL_object.actionList, __GL_j
47	13012	24		index __GL_objectAction, __GL_objectActionData, __GL_k
47	13013	28		brcmp 4, __GL_nbc_gl_apply_translate_x, __GL_objectAction.type, __constVal1
47	13014	32		brcmp 4, __GL_nbc_gl_apply_translate_y, __GL_objectAction.type, __constVal2
47	13015	36		brcmp 4, __GL_nbc_gl_apply_translate_z, __GL_objectAction.type, __constVal3
47	13016	40		brcmp 4, __GL_nbc_gl_apply_rotate_x, __GL_objectAction.type, __constVal4
47	13017	44		brcmp 4, __GL_nbc_gl_apply_rotate_y, __GL_objectAction.type, __constVal5
47	13018	48		brcmp 4, __GL_nbc_gl_apply_rotate_z, __GL_objectAction.type, __constVal6
47	13019	52		brcmp 4, __GL_nbc_gl_apply_scale_x, __GL_objectAction.type, __constVal7
47	13020	56		brcmp 4, __GL_nbc_gl_apply_scale_y, __GL_objectAction.type, __constVal8
47	13021	60		brcmp 4, __GL_nbc_gl_apply_scale_z, __GL_objectAction.type, __constVal9
47	13022	64		jmp __GL_nbc_gl_apply_done
47	13024	66		add __GL_vertex0.rot.x, __GL_vertex0.rot.x, __GL_objectAction.value
47	13025	70		jmp __GL_nbc_gl_apply_done
47	13027	72		add __GL_vertex0.rot.y, __GL_vertex0.rot.y, __GL_objectAction.value
47	13028	76		jmp __GL_nbc_gl_apply_done
47	13030	78		add __GL_vertex0.rot.z, __GL_vertex0.rot.z, __GL_objectAction.value
47	13031	82		jmp __GL_nbc_gl_apply_done
47	13033	84		mul __GL_a, __GL_objectAction.lcos, __GL_vertex0.rot.y
47	13034	88		div __GL_a, __GL_a, __constVal32768
47	13035	92		mul __GL_b, __GL_objectAction.lsin, __GL_vertex0.rot.z
47	13036	96		div __GL_b, __GL_b, __constVal32768
47	13037	100		sub __GL_c, __GL_a, __GL_b
47	13038	104		mul __GL_a, __GL_objectAction.lsin, __GL_vertex0.rot.y
47	13039	108		div __GL_a, __GL_a, __constVal32768
47	13040	112		mul __GL_b, __GL_objectAction.lcos, __GL_vertex0.rot.z
47	13041	116		div __GL_b, __GL_b, __constVal32768
47	13042	120		add __GL_d, __GL_a, __GL_b
47	13043	124		mov __GL_vertex0.rot.y, __GL_c
47	13044	127		mov __GL_vertex0.rot.z, __GL_d
47	13045	130		jmp __GL_nbc_gl_apply_done
47	13047	132		mul __GL_a, __GL_objectAction.lsin, __GL_vertex0.rot.z
47	13048	136		div __GL_a, __GL_a, __constVal32768
47	13049	140		mul __GL_b, __GL_objectAction.lcos, __GL_vertex0.rot.x
47	13050	144		div __GL_b, __GL_b, __constVal32768
47	13051	148		add __GL_c, __GL_a, __GL_b
47	13052	152		mul __GL_a, __GL_objectAction.lcos, __GL_vertex0.rot.z
47	13053	156		div __GL_a, __GL_a, __constVal32768
47	13054	160		mul __GL_b, __GL_objectAction.lsin, __GL_vertex0.rot.x
47	13055	164		div __GL_b, __GL_b, __constVal32768
47	13056	168		sub __GL_d, __GL_a, __GL_b
47	13057	172		mov __GL_vertex0.rot.x, __GL_c
47	13058	175		mov __GL_vertex0.rot.z, __GL_d
47	13059	178		jmp __GL_nbc_gl_apply_done
47	13061	180		mul __GL_a, __GL_objectAction.lcos, __GL_vertex0.rot.x
47	13062	184		div __GL_a, __GL_a, __constVal32768
47	13063	188		mul __GL_b, __GL_objectAction.lsin, __GL_vertex0.rot.y
47	13064	192		div __GL_b, __GL_b, __constVal32768
47	13065	196		sub __GL_c, __GL_a, __GL_b
47	13066	200		mul __GL_a, __GL_objectAction.lsin, __GL_vertex0.rot.x
47	13067	204		div __GL_a, __GL_a, __constVal32768
47	13068	208		mul __GL_b, __GL_objectAction.lcos, __GL_vertex0.rot.y
47	13069	212		div __GL_b, __GL_b, __constVal32768
47	13070	216		add __GL_d, __GL_a, __GL_b
47	13071	220		mov __GL_vertex0.rot.x, __GL_c
47	13072	223		mov __GL_vertex0.rot.y, __GL_d
47	13073	226		jmp __GL_nbc_gl_apply_done
47	13075	228		mul __GL_vertex0.rot.x, __GL_vertex0.rot.x, __GL_objectAction.value
47	13076	232		div __GL_vertex0.rot.x, __GL_vertex0.rot.x, __constVal256
47	13077	236		jmp __GL_nbc_gl_apply_done
47	13079	238		mul __GL_vertex0.rot.y, __GL_vertex0.rot.y, __GL_objectAction.value
47	13080	242		div __GL_vertex0.rot.y, __GL_vertex0.rot.y, __constVal256
47	13081	246		jmp __GL_nbc_gl_apply_done
47	13083	248		mul __GL_vertex0.rot.z, __GL_vertex0.rot.z, __GL_objectAction.value
47	13084	252		div __GL_vertex0.rot.z, __GL_vertex0.rot.z, __constVal256
47	13085	256		jmp __GL_nbc_gl_apply_done
47	13087	258		add __GL_j, __GL_j, __constVal1
47	13088	262		brcmp 0, __GL_nbc_gl_apply_next_action, __GL_j, __GL_object.actionCount
47	13090	266		replace __GL_vertexData, __GL_vertexData, __GL_i, __GL_vertex0
47	13091	271		add __GL_i, __GL_i, __constVal1
47	13092	275		brcmp 0, __GL_nbc_gl_apply_next_vertex, __GL_i, __GL_object.lastVertex
47	13093	279		subret ____GL_glRotateObject_return
48	13102	0		set __GL_l, 0
48	13104	3		index __GL_object, __GL_objectData, __GL_l
48	13105	7		brcmp 4, __GL_nbc_gl_dont_rotate_object, __GL_object.render, __constVal0
48	13106	11		subcall __GL_glRotateObject, ____GL_glRotateObject_return
48	13108	14		add __GL_l, __GL_l, __constVal1
48	13109	18		brcmp 0, __GL_nbc_gl_rotate_objects, __GL_l, __GL_objectCount
48	13110	22		mov __GL_saveAngleX, __GL_angleX
48	13111	24		mov __GL_saveAngleY, __GL_angleY
48	13112	26		index __GL_sinX, __GL_SIN_TABLE, __GL_angleX
48	13113	30		add __GL_angleX, __GL_angleX, __constVal90
48	13114	34		mod __GL_angleX, __GL_angleX, __constVal360
48	13115	38		index __GL_cosX, __GL_SIN_TABLE, __GL_angleX
48	13116	42		index __GL_sinY, __GL_SIN_TABLE, __GL_angleY
48	13117	46		add __GL_angleY, __GL_angleY, __constVal90
48	13118	50		mod __GL_angleY, __GL_angleY, __constVal360
48	13119	54		index __GL_cosY, __GL_SIN_TABLE, __GL_angleY
48	13120	58		mov __GL_camDepth, __GL_glSettings.camDepth
48	13121	61		mov __GL_zoom, __GL_glSettings.zoom
48	13122	64		set __GL_i, 0
48	13123	67		set __GL_vertexOffset, 0
48	13126	70		index __GL_vertex0, __GL_vertexData, __GL_vertexOffset
48	13128	74		mul __GL_a, __GL_vertex0.rot.z, __GL_cosY
48	13129	78		div __GL_a, __GL_a, __constVal32768
48	13130	82		mul __GL_b, __GL_vertex0.rot.x, __GL_sinY
48	13131	86		div __GL_b, __GL_b, __constVal32768
48	13132	90		sub __GL_z1, __GL_a, __GL_b
48	13134	94		mul __GL_a, __GL_vertex0.rot.z, __GL_sinY
48	13135	98		div __GL_a, __GL_a, __constVal32768
48	13136	102		mul __GL_b, __GL_vertex0.rot.x, __GL_cosY
48	13137	106		div __GL_b, __GL_b, __constVal32768
48	13138	110		add __GL_xx, __GL_a, __GL_b
48	13140	114		mul __GL_a, __GL_vertex0.rot.y, __GL_sinX
48	13141	118		div __GL_a, __GL_a, __constVal32768
48	13142	122		mul __GL_b, __GL_z1, __GL_cosX
48	13143	126		div __GL_b, __GL_b, __constVal32768
48	13144	130		add __GL_zz, __GL_a, __GL_b
48	13145	134		add __GL_zz, __GL_zz, __GL_zoom
48	13147	138		mul __GL_a, __GL_vertex0.rot.y, __GL_cosX
48	13148	142		div __GL_a, __GL_a, __constVal32768
48	13149	146		mul __GL_b, __GL_z1, __GL_sinX
48	13150	150		div __GL_b, __GL_b, __constVal32768
48	13151	154		sub __GL_yy, __GL_a, __GL_b
48	13153	158		add __GL_zz, __GL_zz, __GL_camDepth
48	13156	162		mul __GL_vertex0.screen.x, __GL_xx, __GL_camDepth
48	13157	166		div __GL_vertex0.screen.x, __GL_vertex0.screen.x, __GL_zz
48	13158	170		add __GL_vertex0.screen.x, __GL_vertex0.screen.x, __constVal50
48	13159	174		mul __GL_vertex0.screen.y, __GL_yy, __GL_camDepth
48	13160	178		div __GL_vertex0.screen.y, __GL_vertex0.screen.y, __GL_zz
48	13161	182		sub __GL_vertex0.screen.y, __constVal32, __GL_vertex0.screen.y
48	13163	186		replace __GL_vertexData, __GL_vertexData, __GL_vertexOffset, __GL_vertex0
48	13164	191		add __GL_vertexOffset, __GL_vertexOffset, __constVal1
48	13165	195		add __GL_i, __GL_i, __constVal1
48	13166	199		brcmp 0, __GL_nbc_gl_rotate_loop, __GL_i, __GL_vertexCount
48	13167	203		mov __GL_angleX, __GL_saveAngleX
48	13168	205		mov __GL_angleY, __GL_saveAngleY
48	13169	207		subret ____GL_glRotateVertexList_return
49	13177	0		set __GL_glLinesClipped, 0
49	13178	3		brcmp 4, __GL_nbc_gl_reset_objects_error, __GL_glErrorState, __constVal1
49	13179	7		arrinit __GL_lineDone, __constVal0, __GL_lineCount
49	13180	11		set __GL_objectActionCount, 0
49	13181	14		set __GL_i, 0
49	13183	17		index __GL_object, __GL_objectData, __GL_i
49	13184	21		set __GL_object.actionCount, 0
49	13185	24		set __GL_object.render, 0
49	13186	27		replace __GL_objectData, __GL_objectData, __GL_i, __GL_object
49	13187	32		add __GL_i, __GL_i, __constVal1
49	13188	36		brcmp 0, __GL_nbc_gl_reset_actions, __GL_i, __GL_objectCount
49	13190	40		subret ____GL_glResetObjects_return
50	13198	0		brcmp 4, __GL_nbc_gl_call_object_error, __GL_glErrorState, __constVal1
50	13199	4		index __GL_object, __GL_objectData, __GL_objectIndex
50	13200	8		set __GL_object.render, 1
50	13201	11		mov __GL_object.cullMode, __GL_glSettings.cullMode
50	13202	14		mov __GL_object.circleSize, __GL_glSettings.circleSize
50	13203	17		replace __GL_objectData, __GL_objectData, __GL_objectIndex, __GL_object
50	13205	22		subret ____GL_glCallObject_return
51	13214	0		mov __GL_glDrawLine.Options, __constVal0
51	13216	3		mov __GL_i, __GL_object.firstPolygon
51	13219	6		index __GL_polygon, __GL_polygonData, __GL_i
51	13220	10		brcmp 4, __GL_nbc_gl_render_polygon, __GL_polygon.beginMode, __constVal1
51	13221	14		brcmp 4, __GL_nbc_gl_render_line, __GL_polygon.beginMode, __constVal2
51	13222	18		brcmp 4, __GL_nbc_gl_render_point, __GL_polygon.beginMode, __constVal3
51	13223	22		brcmp 4, __GL_nbc_gl_render_circle, __GL_polygon.beginMode, __constVal4
51	13224	26		jmp __GL_nbc_gl_cull_polygon
51	13230	28		mov __GL_j, __GL_polygon.firstVertex
51	13231	31		mov __GL_k, __GL_polygon.lastVertex
51	13233	34		index __GL_vertexOffset, __GL_pvData, __GL_j
51	13234	38		index __GL_vertex0, __GL_vertexData, __GL_vertexOffset
51	13236	42		add __GL_j, __GL_j, __constVal1
51	13237	46		index __GL_vertexOffset, __GL_pvData, __GL_j
51	13238	50		index __GL_vertex1, __GL_vertexData, __GL_vertexOffset
51	13240	54		add __GL_j, __GL_j, __constVal1
51	13241	58		index __GL_vertexOffset, __GL_pvData, __GL_j
51	13242	62		index __GL_vertex2, __GL_vertexData, __GL_vertexOffset
51	13244	66		brcmp 4, __GL_nbc_gl_no_culling, __GL_object.cullMode, __constVal4
51	13247	70		sub __GL_a, __GL_vertex1.screen.x, __GL_vertex0.screen.x
51	13248	74		sub __GL_b, __GL_vertex2.screen.y, __GL_vertex0.screen.y
51	13249	78		mul __GL_c, __GL_a, __GL_b
51	13250	82		sub __GL_d, __GL_vertex2.screen.x, __GL_vertex0.screen.x
51	13251	86		sub __GL_e, __GL_vertex1.screen.y, __GL_vertex0.screen.y
51	13252	90		mul __GL_f, __GL_d, __GL_e
51	13254	94		brcmp 4, __GL_nbc_gl_check_front_cull, __GL_object.cullMode, __constVal3
51	13255	98		brcmp 3, __GL_nbc_gl_cull_polygon, __GL_c, __GL_f
51	13256	102		jmp __GL_nbc_gl_no_culling
51	13258	104		brcmp 3, __GL_nbc_gl_cull_polygon, __GL_f, __GL_c
51	13261	108		mov __GL_j, __GL_polygon.firstLine
51	13264	111		index __GL_k, __GL_plData, __GL_j
51	13267	115		index __GL_l, __GL_lineDone, __GL_k
51	13268	119		brcmp 4, __GL_nbc_gl_line_done, __GL_l, __constVal1
51	13270	123		replace __GL_lineDone, __GL_lineDone, __constVal1, __GL_l
51	13272	128		index __GL_line, __GL_lineData, __GL_k
51	13274	132		index __GL_vertex1, __GL_vertexData, __GL_line.firstVertex
51	13276	136		index __GL_vertex2, __GL_vertexData, __GL_line.lastVertex
51	13292	140		mov __GL_glDrawLine.StartLoc, __GL_vertex1.screen
51	13293	142		mov __GL_glDrawLine.EndLoc, __GL_vertex2.screen
51	13294	145		syscall 15, __GL_glDrawLine
51	13296	148		add __GL_j, __GL_j, __constVal1
51	13297	152		brcmp 0, __GL_nbc_gl_draw_lines, __GL_j, __GL_polygon.lastLine
51	13384	156		jmp __GL_nbc_gl_cull_polygon
51	13389	158		mov __GL_j, __GL_polygon.firstLine
51	13392	161		index __GL_k, __GL_plData, __GL_j
51	13395	165		index __GL_l, __GL_lineDone, __GL_k
51	13396	169		brcmp 4, __GL_nbc_gl_render_lines_done, __GL_l, __constVal1
51	13398	173		replace __GL_lineDone, __GL_lineDone, __constVal1, __GL_l
51	13400	178		index __GL_line, __GL_lineData, __GL_k
51	13403	182		index __GL_vertex1, __GL_vertexData, __GL_line.firstVertex
51	13404	186		index __GL_vertex2, __GL_vertexData, __GL_line.lastVertex
51	13405	190		mov __GL_glDrawLine.StartLoc, __GL_vertex1.screen
51	13406	192		mov __GL_glDrawLine.EndLoc, __GL_vertex2.screen
51	13411	195		syscall 15, __GL_glDrawLine
51	13413	198		add __GL_j, __GL_j, __constVal1
51	13414	202		brcmp 0, __GL_nbc_gl_render_lines, __GL_j, __GL_polygon.lastLine
51	13415	206		jmp __GL_nbc_gl_cull_polygon
51	13420	208		set __GL_glDrawPoint.Options, 0
51	13421	211		mov __GL_j, __GL_polygon.firstVertex
51	13424	214		index __GL_vertexOffset, __GL_pvData, __GL_j
51	13425	218		index __GL_vertex0, __GL_vertexData, __GL_vertexOffset
51	13426	222		mov __GL_glDrawPoint.Location, __GL_vertex0.screen
51	13429	224		syscall 14, __GL_glDrawPoint
51	13430	227		add __GL_j, __GL_j, __constVal1
51	13431	231		brcmp 0, __GL_nbc_gl_render_points, __GL_j, __GL_polygon.lastVertex
51	13432	235		jmp __GL_nbc_gl_cull_polygon
51	13437	237		set __GL_glDrawCircle.Options, 0
51	13438	240		mov __GL_glDrawCircle.Size, __GL_object.circleSize
51	13439	243		mov __GL_j, __GL_polygon.firstVertex
51	13442	246		index __GL_vertexOffset, __GL_pvData, __GL_j
51	13443	250		index __GL_vertex0, __GL_vertexData, __GL_vertexOffset
51	13444	254		mov __GL_glDrawCircle.Center, __GL_vertex0.screen
51	13447	256		syscall 16, __GL_glDrawCircle
51	13448	259		add __GL_j, __GL_j, __constVal1
51	13449	263		brcmp 0, __GL_nbc_gl_render_circles, __GL_j, __GL_polygon.lastVertex
51	13450	267		jmp __GL_nbc_gl_cull_polygon
51	13452	269		add __GL_i, __GL_i, __constVal1
51	13453	273		brcmp 0, __GL_nbc_gl_draw_polygons, __GL_i, __GL_object.lastPolygon
51	13454	277		subret ____GL_glDrawObject_return
52	13462	0		brcmp 4, __GL_nbc_gl_render_objects_error, __GL_glErrorState, __constVal1
52	13463	4		set __GL_objectIndex, 0
52	13466	7		index __GL_object, __GL_objectData, __GL_objectIndex
52	13467	11		brcmp 4, __GL_nbc_gl_dont_render_object, __GL_object.render, __constVal0
52	13468	15		subcall __GL_glDrawObject, ____GL_glDrawObject_return
52	13470	18		add __GL_objectIndex, __GL_objectIndex, __constVal1
52	13471	22		brcmp 0, __GL_nbc_gl_render_objects, __GL_objectIndex, __GL_objectCount
52	13472	26		subret ____GL_glRenderObjects_return
52	13475	28		set __GL_glDrawData.Options, 1
52	13476	31		set __GL_glDrawData.Location.X, 0
52	13477	34		set __GL_glDrawData.Location.Y, 56
52	13478	37		mov __GL_glDrawData.Text, __constStr0005
52	13479	40		syscall 13, __GL_glDrawData
52	13480	43		set __GL_glDrawData.Options, 0
52	13481	46		set __GL_glDrawData.Location.Y, 48
52	13482	49		mov __GL_glDrawData.Text, __GL_glErrorMsg
52	13483	52		syscall 13, __GL_glDrawData
52	13484	55		subret ____GL_glRenderObjects_return
53	13502	0		div __GL_x1, __GL_sizeX, __constVal2
53	13503	4		neg __GL_x0, __GL_x1
53	13504	7		div __GL_y1, __GL_sizeY, __constVal2
53	13505	11		neg __GL_y0, __GL_y1
53	13506	14		div __GL_z1, __GL_sizeZ, __constVal2
53	13507	18		neg __GL_z0, __GL_z1
53	13508	21	#pragma macro 4
53	13508	21		mov __GL_object.firstVertex, __GL_vertexCount
53	13508	24		mov __GL_object.lastVertex, __GL_vertexCount
53	13508	27		mov __GL_object.firstPolygon, __GL_polygonCount
53	13508	30		mov __GL_tmpId, __GL_objectCount
53	13508	33	#line 13508 "NXTDefs.h"
53	13509	33	#pragma macro 3
53	13509	33		mov __GL_polygon.beginMode, __GL_mode
53	13509	36		mov __GL_polygon.firstVertex, __GL_pvDataCount
53	13509	39		mov __GL_polygon.lastVertex, __GL_pvDataCount
53	13509	42	#line 13509 "NXTDefs.h"
53	13510	42	#pragma macro 4
53	13510	42		mov __GL_vertex0.orig.x, __GL_x0
53	13510	45		mov __GL_vertex0.orig.y, __GL_y0
53	13510	48		mov __GL_vertex0.orig.z, __GL_z0
53	13510	51		subcall __GL_glAddVertex, ____GL_glAddVertex_return
53	13510	54	#line 13510 "NXTDefs.h"
53	13511	54	#pragma macro 4
53	13511	54		mov __GL_vertex0.orig.x, __GL_x1
53	13511	57		mov __GL_vertex0.orig.y, __GL_y0
53	13511	60		mov __GL_vertex0.orig.z, __GL_z0
53	13511	63		subcall __GL_glAddVertex, ____GL_glAddVertex_return
53	13511	66	#line 13511 "NXTDefs.h"
53	13512	66	#pragma macro 4
53	13512	66		mov __GL_vertex0.orig.x, __GL_x1
53	13512	69		mov __GL_vertex0.orig.y, __GL_y1
53	13512	72		mov __GL_vertex0.orig.z, __GL_z0
53	13512	75		subcall __GL_glAddVertex, ____GL_glAddVertex_return
53	13512	78	#line 13512 "NXTDefs.h"
53	13513	78	#pragma macro 4
53	13513	78		mov __GL_vertex0.orig.x, __GL_x0
53	13513	81		mov __GL_vertex0.orig.y, __GL_y1
53	13513	84		mov __GL_vertex0.orig.z, __GL_z0
53	13513	87		subcall __GL_glAddVertex, ____GL_glAddVertex_return
53	13513	90	#line 13513 "NXTDefs.h"
53	13514	90		subcall __GL_glEnd, ____GL_glEnd_return
53	13515	93	#pragma macro 3
53	13515	93		mov __GL_polygon.beginMode, __GL_mode
53	13515	96		mov __GL_polygon.firstVertex, __GL_pvDataCount
53	13515	99		mov __GL_polygon.lastVertex, __GL_pvDataCount
53	13515	102	#line 13515 "NXTDefs.h"
53	13516	102	#pragma macro 4
53	13516	102		mov __GL_vertex0.orig.x, __GL_x0
53	13516	105		mov __GL_vertex0.orig.y, __GL_y1
53	13516	108		mov __GL_vertex0.orig.z, __GL_z1
53	13516	111		subcall __GL_glAddVertex, ____GL_glAddVertex_return
53	13516	114	#line 13516 "NXTDefs.h"
53	13517	114	#pragma macro 4
53	13517	114		mov __GL_vertex0.orig.x, __GL_x1
53	13517	117		mov __GL_vertex0.orig.y, __GL_y1
53	13517	120		mov __GL_vertex0.orig.z, __GL_z1
53	13517	123		subcall __GL_glAddVertex, ____GL_glAddVertex_return
53	13517	126	#line 13517 "NXTDefs.h"
53	13518	126	#pragma macro 4
53	13518	126		mov __GL_vertex0.orig.x, __GL_x1
53	13518	129		mov __GL_vertex0.orig.y, __GL_y0
53	13518	132		mov __GL_vertex0.orig.z, __GL_z1
53	13518	135		subcall __GL_glAddVertex, ____GL_glAddVertex_return
53	13518	138	#line 13518 "NXTDefs.h"
53	13519	138	#pragma macro 4
53	13519	138		mov __GL_vertex0.orig.x, __GL_x0
53	13519	141		mov __GL_vertex0.orig.y, __GL_y0
53	13519	144		mov __GL_vertex0.orig.z, __GL_z1
53	13519	147		subcall __GL_glAddVertex, ____GL_glAddVertex_return
53	13519	150	#line 13519 "NXTDefs.h"
53	13520	150		subcall __GL_glEnd, ____GL_glEnd_return
53	13522	153	#pragma macro 3
53	13522	153		mov __GL_polygon.beginMode, __GL_mode
53	13522	156		mov __GL_polygon.firstVertex, __GL_pvDataCount
53	13522	159		mov __GL_polygon.lastVertex, __GL_pvDataCount
53	13522	162	#line 13522 "NXTDefs.h"
53	13523	162	#pragma macro 4
53	13523	162		mov __GL_vertex0.orig.x, __GL_x0
53	13523	165		mov __GL_vertex0.orig.y, __GL_y1
53	13523	168		mov __GL_vertex0.orig.z, __GL_z0
53	13523	171		subcall __GL_glAddVertex, ____GL_glAddVertex_return
53	13523	174	#line 13523 "NXTDefs.h"
53	13524	174	#pragma macro 4
53	13524	174		mov __GL_vertex0.orig.x, __GL_x0
53	13524	177		mov __GL_vertex0.orig.y, __GL_y1
53	13524	180		mov __GL_vertex0.orig.z, __GL_z1
53	13524	183		subcall __GL_glAddVertex, ____GL_glAddVertex_return
53	13524	186	#line 13524 "NXTDefs.h"
53	13525	186	#pragma macro 4
53	13525	186		mov __GL_vertex0.orig.x, __GL_x0
53	13525	189		mov __GL_vertex0.orig.y, __GL_y0
53	13525	192		mov __GL_vertex0.orig.z, __GL_z1
53	13525	195		subcall __GL_glAddVertex, ____GL_glAddVertex_return
53	13525	198	#line 13525 "NXTDefs.h"
53	13526	198	#pragma macro 4
53	13526	198		mov __GL_vertex0.orig.x, __GL_x0
53	13526	201		mov __GL_vertex0.orig.y, __GL_y0
53	13526	204		mov __GL_vertex0.orig.z, __GL_z0
53	13526	207		subcall __GL_glAddVertex, ____GL_glAddVertex_return
53	13526	210	#line 13526 "NXTDefs.h"
53	13527	210		subcall __GL_glEnd, ____GL_glEnd_return
53	13528	213	#pragma macro 3
53	13528	213		mov __GL_polygon.beginMode, __GL_mode
53	13528	216		mov __GL_polygon.firstVertex, __GL_pvDataCount
53	13528	219		mov __GL_polygon.lastVertex, __GL_pvDataCount
53	13528	222	#line 13528 "NXTDefs.h"
53	13529	222	#pragma macro 4
53	13529	222		mov __GL_vertex0.orig.x, __GL_x1
53	13529	225		mov __GL_vertex0.orig.y, __GL_y0
53	13529	228		mov __GL_vertex0.orig.z, __GL_z0
53	13529	231		subcall __GL_glAddVertex, ____GL_glAddVertex_return
53	13529	234	#line 13529 "NXTDefs.h"
53	13530	234	#pragma macro 4
53	13530	234		mov __GL_vertex0.orig.x, __GL_x1
53	13530	237		mov __GL_vertex0.orig.y, __GL_y0
53	13530	240		mov __GL_vertex0.orig.z, __GL_z1
53	13530	243		subcall __GL_glAddVertex, ____GL_glAddVertex_return
53	13530	246	#line 13530 "NXTDefs.h"
53	13531	246	#pragma macro 4
53	13531	246		mov __GL_vertex0.orig.x, __GL_x1
53	13531	249		mov __GL_vertex0.orig.y, __GL_y1
53	13531	252		mov __GL_vertex0.orig.z, __GL_z1
53	13531	255		subcall __GL_glAddVertex, ____GL_glAddVertex_return
53	13531	258	#line 13531 "NXTDefs.h"
53	13532	258	#pragma macro 4
53	13532	258		mov __GL_vertex0.orig.x, __GL_x1
53	13532	261		mov __GL_vertex0.orig.y, __GL_y1
53	13532	264		mov __GL_vertex0.orig.z, __GL_z0
53	13532	267		subcall __GL_glAddVertex, ____GL_glAddVertex_return
53	13532	270	#line 13532 "NXTDefs.h"
53	13533	270		subcall __GL_glEnd, ____GL_glEnd_return
53	13535	273	#pragma macro 3
53	13535	273		mov __GL_polygon.beginMode, __GL_mode
53	13535	276		mov __GL_polygon.firstVertex, __GL_pvDataCount
53	13535	279		mov __GL_polygon.lastVertex, __GL_pvDataCount
53	13535	282	#line 13535 "NXTDefs.h"
53	13536	282	#pragma macro 4
53	13536	282		mov __GL_vertex0.orig.x, __GL_x0
53	13536	285		mov __GL_vertex0.orig.y, __GL_y0
53	13536	288		mov __GL_vertex0.orig.z, __GL_z0
53	13536	291		subcall __GL_glAddVertex, ____GL_glAddVertex_return
53	13536	294	#line 13536 "NXTDefs.h"
53	13537	294	#pragma macro 4
53	13537	294		mov __GL_vertex0.orig.x, __GL_x0
53	13537	297		mov __GL_vertex0.orig.y, __GL_y0
53	13537	300		mov __GL_vertex0.orig.z, __GL_z1
53	13537	303		subcall __GL_glAddVertex, ____GL_glAddVertex_return
53	13537	306	#line 13537 "NXTDefs.h"
53	13538	306	#pragma macro 4
53	13538	306		mov __GL_vertex0.orig.x, __GL_x1
53	13538	309		mov __GL_vertex0.orig.y, __GL_y0
53	13538	312		mov __GL_vertex0.orig.z, __GL_z1
53	13538	315		subcall __GL_glAddVertex, ____GL_glAddVertex_return
53	13538	318	#line 13538 "NXTDefs.h"
53	13539	318	#pragma macro 4
53	13539	318		mov __GL_vertex0.orig.x, __GL_x1
53	13539	321		mov __GL_vertex0.orig.y, __GL_y0
53	13539	324		mov __GL_vertex0.orig.z, __GL_z0
53	13539	327		subcall __GL_glAddVertex, ____GL_glAddVertex_return
53	13539	330	#line 13539 "NXTDefs.h"
53	13540	330		subcall __GL_glEnd, ____GL_glEnd_return
53	13541	333	#pragma macro 3
53	13541	333		mov __GL_polygon.beginMode, __GL_mode
53	13541	336		mov __GL_polygon.firstVertex, __GL_pvDataCount
53	13541	339		mov __GL_polygon.lastVertex, __GL_pvDataCount
53	13541	342	#line 13541 "NXTDefs.h"
53	13542	342	#pragma macro 4
53	13542	342		mov __GL_vertex0.orig.x, __GL_x1
53	13542	345		mov __GL_vertex0.orig.y, __GL_y1
53	13542	348		mov __GL_vertex0.orig.z, __GL_z0
53	13542	351		subcall __GL_glAddVertex, ____GL_glAddVertex_return
53	13542	354	#line 13542 "NXTDefs.h"
53	13543	354	#pragma macro 4
53	13543	354		mov __GL_vertex0.orig.x, __GL_x1
53	13543	357		mov __GL_vertex0.orig.y, __GL_y1
53	13543	360		mov __GL_vertex0.orig.z, __GL_z1
53	13543	363		subcall __GL_glAddVertex, ____GL_glAddVertex_return
53	13543	366	#line 13543 "NXTDefs.h"
53	13544	366	#pragma macro 4
53	13544	366		mov __GL_vertex0.orig.x, __GL_x0
53	13544	369		mov __GL_vertex0.orig.y, __GL_y1
53	13544	372		mov __GL_vertex0.orig.z, __GL_z1
53	13544	375		subcall __GL_glAddVertex, ____GL_glAddVertex_return
53	13544	378	#line 13544 "NXTDefs.h"
53	13545	378	#pragma macro 4
53	13545	378		mov __GL_vertex0.orig.x, __GL_x0
53	13545	381		mov __GL_vertex0.orig.y, __GL_y1
53	13545	384		mov __GL_vertex0.orig.z, __GL_z0
53	13545	387		subcall __GL_glAddVertex, ____GL_glAddVertex_return
53	13545	390	#line 13545 "NXTDefs.h"
53	13546	390		subcall __GL_glEnd, ____GL_glEnd_return
53	13547	393		subcall __GL_glEndObject, ____GL_glEndObject_return
53	13548	396		subret ____GL_glBox_return
54	13557	0		div __GL_x1, __GL_sizeX, __constVal2
54	13558	4		neg __GL_x0, __GL_x1
54	13559	7		div __GL_z1, __GL_sizeZ, __constVal2
54	13560	11		neg __GL_z0, __GL_z1
54	13561	14		neg __GL_y0, __GL_sizeY
54	13562	17	#pragma macro 4
54	13562	17		mov __GL_object.firstVertex, __GL_vertexCount
54	13562	20		mov __GL_object.lastVertex, __GL_vertexCount
54	13562	23		mov __GL_object.firstPolygon, __GL_polygonCount
54	13562	26		mov __GL_tmpId, __GL_objectCount
54	13562	29	#line 13562 "NXTDefs.h"
54	13563	29	#pragma macro 3
54	13563	29		mov __GL_polygon.beginMode, __GL_mode
54	13563	32		mov __GL_polygon.firstVertex, __GL_pvDataCount
54	13563	35		mov __GL_polygon.lastVertex, __GL_pvDataCount
54	13563	38	#line 13563 "NXTDefs.h"
54	13564	38	#pragma macro 4
54	13564	38		mov __GL_vertex0.orig.x, __GL_x1
54	13564	41		mov __GL_vertex0.orig.y, __constVal0
54	13564	44		mov __GL_vertex0.orig.z, __GL_z0
54	13564	47		subcall __GL_glAddVertex, ____GL_glAddVertex_return
54	13564	50	#line 13564 "NXTDefs.h"
54	13565	50	#pragma macro 4
54	13565	50		mov __GL_vertex0.orig.x, __GL_x1
54	13565	53		mov __GL_vertex0.orig.y, __constVal0
54	13565	56		mov __GL_vertex0.orig.z, __GL_z1
54	13565	59		subcall __GL_glAddVertex, ____GL_glAddVertex_return
54	13565	62	#line 13565 "NXTDefs.h"
54	13566	62	#pragma macro 4
54	13566	62		mov __GL_vertex0.orig.x, __GL_x0
54	13566	65		mov __GL_vertex0.orig.y, __constVal0
54	13566	68		mov __GL_vertex0.orig.z, __GL_z1
54	13566	71		subcall __GL_glAddVertex, ____GL_glAddVertex_return
54	13566	74	#line 13566 "NXTDefs.h"
54	13567	74	#pragma macro 4
54	13567	74		mov __GL_vertex0.orig.x, __GL_x0
54	13567	77		mov __GL_vertex0.orig.y, __constVal0
54	13567	80		mov __GL_vertex0.orig.z, __GL_z0
54	13567	83		subcall __GL_glAddVertex, ____GL_glAddVertex_return
54	13567	86	#line 13567 "NXTDefs.h"
54	13568	86		subcall __GL_glEnd, ____GL_glEnd_return
54	13570	89	#pragma macro 3
54	13570	89		mov __GL_polygon.beginMode, __GL_mode
54	13570	92		mov __GL_polygon.firstVertex, __GL_pvDataCount
54	13570	95		mov __GL_polygon.lastVertex, __GL_pvDataCount
54	13570	98	#line 13570 "NXTDefs.h"
54	13571	98	#pragma macro 4
54	13571	98		mov __GL_vertex0.orig.x, __GL_x0
54	13571	101		mov __GL_vertex0.orig.y, __constVal0
54	13571	104		mov __GL_vertex0.orig.z, __GL_z0
54	13571	107		subcall __GL_glAddVertex, ____GL_glAddVertex_return
54	13571	110	#line 13571 "NXTDefs.h"
54	13572	110	#pragma macro 4
54	13572	110		mov __GL_vertex0.orig.x, __GL_x0
54	13572	113		mov __GL_vertex0.orig.y, __constVal0
54	13572	116		mov __GL_vertex0.orig.z, __GL_z1
54	13572	119		subcall __GL_glAddVertex, ____GL_glAddVertex_return
54	13572	122	#line 13572 "NXTDefs.h"
54	13573	122	#pragma macro 4
54	13573	122		mov __GL_vertex0.orig.x, __constVal0
54	13573	125		mov __GL_vertex0.orig.y, __GL_y0
54	13573	128		mov __GL_vertex0.orig.z, __constVal0
54	13573	131		subcall __GL_glAddVertex, ____GL_glAddVertex_return
54	13573	134	#line 13573 "NXTDefs.h"
54	13574	134		subcall __GL_glEnd, ____GL_glEnd_return
54	13575	137	#pragma macro 3
54	13575	137		mov __GL_polygon.beginMode, __GL_mode
54	13575	140		mov __GL_polygon.firstVertex, __GL_pvDataCount
54	13575	143		mov __GL_polygon.lastVertex, __GL_pvDataCount
54	13575	146	#line 13575 "NXTDefs.h"
54	13576	146	#pragma macro 4
54	13576	146		mov __GL_vertex0.orig.x, __GL_x1
54	13576	149		mov __GL_vertex0.orig.y, __constVal0
54	13576	152		mov __GL_vertex0.orig.z, __GL_z1
54	13576	155		subcall __GL_glAddVertex, ____GL_glAddVertex_return
54	13576	158	#line 13576 "NXTDefs.h"
54	13577	158	#pragma macro 4
54	13577	158		mov __GL_vertex0.orig.x, __GL_x1
54	13577	161		mov __GL_vertex0.orig.y, __constVal0
54	13577	164		mov __GL_vertex0.orig.z, __GL_z0
54	13577	167		subcall __GL_glAddVertex, ____GL_glAddVertex_return
54	13577	170	#line 13577 "NXTDefs.h"
54	13578	170	#pragma macro 4
54	13578	170		mov __GL_vertex0.orig.x, __constVal0
54	13578	173		mov __GL_vertex0.orig.y, __GL_y0
54	13578	176		mov __GL_vertex0.orig.z, __constVal0
54	13578	179		subcall __GL_glAddVertex, ____GL_glAddVertex_return
54	13578	182	#line 13578 "NXTDefs.h"
54	13579	182		subcall __GL_glEnd, ____GL_glEnd_return
54	13580	185	#pragma macro 3
54	13580	185		mov __GL_polygon.beginMode, __GL_mode
54	13580	188		mov __GL_polygon.firstVertex, __GL_pvDataCount
54	13580	191		mov __GL_polygon.lastVertex, __GL_pvDataCount
54	13580	194	#line 13580 "NXTDefs.h"
54	13581	194	#pragma macro 4
54	13581	194		mov __GL_vertex0.orig.x, __GL_x1
54	13581	197		mov __GL_vertex0.orig.y, __constVal0
54	13581	200		mov __GL_vertex0.orig.z, __GL_z0
54	13581	203		subcall __GL_glAddVertex, ____GL_glAddVertex_return
54	13581	206	#line 13581 "NXTDefs.h"
54	13582	206	#pragma macro 4
54	13582	206		mov __GL_vertex0.orig.x, __GL_x0
54	13582	209		mov __GL_vertex0.orig.y, __constVal0
54	13582	212		mov __GL_vertex0.orig.z, __GL_z0
54	13582	215		subcall __GL_glAddVertex, ____GL_glAddVertex_return
54	13582	218	#line 13582 "NXTDefs.h"
54	13583	218	#pragma macro 4
54	13583	218		mov __GL_vertex0.orig.x, __constVal0
54	13583	221		mov __GL_vertex0.orig.y, __GL_y0
54	13583	224		mov __GL_vertex0.orig.z, __constVal0
54	13583	227		subcall __GL_glAddVertex, ____GL_glAddVertex_return
54	13583	230	#line 13583 "NXTDefs.h"
54	13584	230		subcall __GL_glEnd, ____GL_glEnd_return
54	13585	233	#pragma macro 3
54	13585	233		mov __GL_polygon.beginMode, __GL_mode
54	13585	236		mov __GL_polygon.firstVertex, __GL_pvDataCount
54	13585	239		mov __GL_polygon.lastVertex, __GL_pvDataCount
54	13585	242	#line 13585 "NXTDefs.h"
54	13586	242	#pragma macro 4
54	13586	242		mov __GL_vertex0.orig.x, __GL_x0
54	13586	245		mov __GL_vertex0.orig.y, __constVal0
54	13586	248		mov __GL_vertex0.orig.z, __GL_z1
54	13586	251		subcall __GL_glAddVertex, ____GL_glAddVertex_return
54	13586	254	#line 13586 "NXTDefs.h"
54	13587	254	#pragma macro 4
54	13587	254		mov __GL_vertex0.orig.x, __GL_x1
54	13587	257		mov __GL_vertex0.orig.y, __constVal0
54	13587	260		mov __GL_vertex0.orig.z, __GL_z1
54	13587	263		subcall __GL_glAddVertex, ____GL_glAddVertex_return
54	13587	266	#line 13587 "NXTDefs.h"
54	13588	266	#pragma macro 4
54	13588	266		mov __GL_vertex0.orig.x, __constVal0
54	13588	269		mov __GL_vertex0.orig.y, __GL_y0
54	13588	272		mov __GL_vertex0.orig.z, __constVal0
54	13588	275		subcall __GL_glAddVertex, ____GL_glAddVertex_return
54	13588	278	#line 13588 "NXTDefs.h"
54	13589	278		subcall __GL_glEnd, ____GL_glEnd_return
54	13590	281		subcall __GL_glEndObject, ____GL_glEndObject_return
54	13591	284		subret ____GL_glPyramid_return
55	13669	0		arrsize __Pos_l1, __Pos_s1
55	13670	3		sub __Pos_l1, __Pos_l1, __constVal1
55	13671	7		arrsize __Pos_lDelta, __Pos_s2
55	13672	10		sub __Pos_lDelta, __Pos_lDelta, __Pos_l1
55	13673	14		set __Pos_i, 0
55	13675	17		sub __Pos_lDelta, __Pos_lDelta, __constVal1
55	13676	21		brtst 0, __Pos_RepeatEnd, __Pos_lDelta
55	13677	24		strsubset __Pos_tmpstr, __Pos_s2, __Pos_i, __Pos_l1
55	13678	29		cmp 4, __Pos_Result, __Pos_s1, __Pos_tmpstr
55	13679	33		brtst 4, __Pos_RepeatAgain, __Pos_Result
55	13680	36		mov __Pos_Result, __Pos_i
55	13681	38		subret ____PosSubroutine_return
55	13683	40		add __Pos_i, __Pos_i, __constVal1
55	13684	44		jmp __Pos_Repeat
55	13686	46		set __Pos_Result, -1
55	13687	49		subret ____PosSubroutine_return
56	6518	0	#line 6518 "NXCDefs.h"
56	6519	0		mov __D0PlaySound, __PlaySound_7qG2_aCode_7qG2_000
56	6518	3	#line 6518 "NXCDefs.h"
56	6519	3		mov __signed_stack_001PlaySound, __D0PlaySound
56	6519	6	#line 6519 "NXCDefs.h"
56	6520	6		set __D0PlaySound, 0
56	6519	9	#line 6519 "NXCDefs.h"
56	6520	9		cmp 4, __zfPlaySound, __signed_stack_001PlaySound, __D0PlaySound
56	6519	13	#line 6519 "NXCDefs.h"
56	6520	13		mov __D0PlaySound, __zfPlaySound
56	6519	16	#line 6519 "NXCDefs.h"
56	6520	16		brtst 4, __NXC_Label_56, __zfPlaySound
56	6519	19	#line 6519 "NXCDefs.h"
56	6520	19		set __D0PlaySound, 600
56	6519	22	#line 6519 "NXCDefs.h"
56	6520	22		mov __signed_stack_001PlaySound, __D0PlaySound
56	6519	25	#line 6519 "NXCDefs.h"
56	6520	25		set __D0PlaySound, 200
56	6519	28	#line 6519 "NXCDefs.h"
56	6520	28		mov __signed_stack_002PlaySound, __D0PlaySound
56	6519	31	#line 6519 "NXCDefs.h"
56	6520	31		set __D0PlaySound, 4
56	6519	34	#line 6519 "NXCDefs.h"
56	6520	34		mov __signed_stack_003PlaySound, __D0PlaySound
56	6519	36	#line 6519 "NXCDefs.h"
56	6520	36		set __D0PlaySound, 0
56	6520	39	#line 6520 "NXCDefs.h"
56	6521	39		acquire __SPTArgsMutex
56	6520	40	#line 6520 "NXCDefs.h"
56	6521	40		mov __SPTArgs.Frequency, __signed_stack_001PlaySound
56	6520	43	#line 6520 "NXCDefs.h"
56	6521	43		mov __SPTArgs.Duration, __signed_stack_002PlaySound
56	6520	46	#line 6520 "NXCDefs.h"
56	6521	46		mov __SPTArgs.Volume, __signed_stack_003PlaySound
56	6520	49	#line 6520 "NXCDefs.h"
56	6521	49		mov __SPTArgs.Loop, __D0PlaySound
56	6520	52	#line 6520 "NXCDefs.h"
56	6521	52		syscall 10, __SPTArgs
56	6520	55	#line 6520 "NXCDefs.h"
56	6521	55		mov __D0PlaySound, __SPTArgs.Result
56	6520	58	#line 6520 "NXCDefs.h"
56	6521	58		release __SPTArgsMutex
56	6520	59	#line 6520 "NXCDefs.h"
56	6520	59	#line 6520 "NXCDefs.h"
56	6521	59		jmp __NXC_Label_65
56	6520	61	#line 6520 "NXCDefs.h"
56	6521	61		mov __D0PlaySound, __PlaySound_7qG2_aCode_7qG2_000
56	6520	64	#line 6520 "NXCDefs.h"
56	6521	64		mov __signed_stack_001PlaySound, __D0PlaySound
56	6521	67	#line 6521 "NXCDefs.h"
56	6522	67		set __D0PlaySound, 1
56	6521	70	#line 6521 "NXCDefs.h"
56	6522	70		cmp 4, __zfPlaySound, __signed_stack_001PlaySound, __D0PlaySound
56	6521	74	#line 6521 "NXCDefs.h"
56	6522	74		mov __D0PlaySound, __zfPlaySound
56	6522	77	#line 6522 "NXCDefs.h"
56	6523	77		brtst 4, __NXC_Label_68, __zfPlaySound
56	6522	80	#line 6522 "NXCDefs.h"
56	6523	80		set __D0PlaySound, 600
56	6522	83	#line 6522 "NXCDefs.h"
56	6523	83		mov __signed_stack_001PlaySound, __D0PlaySound
56	6522	86	#line 6522 "NXCDefs.h"
56	6523	86		set __D0PlaySound, 150
56	6522	89	#line 6522 "NXCDefs.h"
56	6523	89		mov __signed_stack_002PlaySound, __D0PlaySound
56	6522	92	#line 6522 "NXCDefs.h"
56	6523	92		set __D0PlaySound, 4
56	6522	95	#line 6522 "NXCDefs.h"
56	6523	95		mov __signed_stack_003PlaySound, __D0PlaySound
56	6522	97	#line 6522 "NXCDefs.h"
56	6523	97		set __D0PlaySound, 0
56	6523	100	#line 6523 "NXCDefs.h"
56	6524	100		acquire __SPTArgsMutex
56	6523	101	#line 6523 "NXCDefs.h"
56	6524	101		mov __SPTArgs.Frequency, __signed_stack_001PlaySound
56	6523	104	#line 6523 "NXCDefs.h"
56	6524	104		mov __SPTArgs.Duration, __signed_stack_002PlaySound
56	6523	107	#line 6523 "NXCDefs.h"
56	6524	107		mov __SPTArgs.Volume, __signed_stack_003PlaySound
56	6523	110	#line 6523 "NXCDefs.h"
56	6524	110		mov __SPTArgs.Loop, __D0PlaySound
56	6523	113	#line 6523 "NXCDefs.h"
56	6524	113		syscall 10, __SPTArgs
56	6523	116	#line 6523 "NXCDefs.h"
56	6524	116		mov __D0PlaySound, __SPTArgs.Result
56	6523	119	#line 6523 "NXCDefs.h"
56	6524	119		release __SPTArgsMutex
56	6523	120	#line 6523 "NXCDefs.h"
56	6523	120	#line 6523 "NXCDefs.h"
56	6524	120		wait2 NA, __constVal200
56	6523	123	#line 6523 "NXCDefs.h"
56	6523	123	#line 6523 "NXCDefs.h"
56	6524	123	#line 6524 "NXCDefs.h"
56	6525	123		set __D0PlaySound, 600
56	6524	126	#line 6524 "NXCDefs.h"
56	6525	126		mov __signed_stack_001PlaySound, __D0PlaySound
56	6524	129	#line 6524 "NXCDefs.h"
56	6525	129		set __D0PlaySound, 150
56	6524	132	#line 6524 "NXCDefs.h"
56	6525	132		mov __signed_stack_002PlaySound, __D0PlaySound
56	6524	135	#line 6524 "NXCDefs.h"
56	6525	135		set __D0PlaySound, 4
56	6524	138	#line 6524 "NXCDefs.h"
56	6525	138		mov __signed_stack_003PlaySound, __D0PlaySound
56	6524	140	#line 6524 "NXCDefs.h"
56	6525	140		set __D0PlaySound, 0
56	6525	143	#line 6525 "NXCDefs.h"
56	6526	143		acquire __SPTArgsMutex
56	6525	144	#line 6525 "NXCDefs.h"
56	6526	144		mov __SPTArgs.Frequency, __signed_stack_001PlaySound
56	6525	147	#line 6525 "NXCDefs.h"
56	6526	147		mov __SPTArgs.Duration, __signed_stack_002PlaySound
56	6525	150	#line 6525 "NXCDefs.h"
56	6526	150		mov __SPTArgs.Volume, __signed_stack_003PlaySound
56	6525	153	#line 6525 "NXCDefs.h"
56	6526	153		mov __SPTArgs.Loop, __D0PlaySound
56	6525	156	#line 6525 "NXCDefs.h"
56	6526	156		syscall 10, __SPTArgs
56	6525	159	#line 6525 "NXCDefs.h"
56	6526	159		mov __D0PlaySound, __SPTArgs.Result
56	6525	162	#line 6525 "NXCDefs.h"
56	6526	162		release __SPTArgsMutex
56	6525	163	#line 6525 "NXCDefs.h"
56	6525	163	#line 6525 "NXCDefs.h"
56	6526	163		wait2 NA, __constVal150
56	6525	166	#line 6525 "NXCDefs.h"
56	6525	166	#line 6525 "NXCDefs.h"
56	6527	166	#line 6527 "NXCDefs.h"
56	6528	166		jmp __NXC_Label_85
56	6527	168	#line 6527 "NXCDefs.h"
56	6528	168		mov __D0PlaySound, __PlaySound_7qG2_aCode_7qG2_000
56	6527	171	#line 6527 "NXCDefs.h"
56	6528	171		mov __signed_stack_001PlaySound, __D0PlaySound
56	6528	174	#line 6528 "NXCDefs.h"
56	6529	174		set __D0PlaySound, 3
56	6528	177	#line 6528 "NXCDefs.h"
56	6529	177		cmp 4, __zfPlaySound, __signed_stack_001PlaySound, __D0PlaySound
56	6528	181	#line 6528 "NXCDefs.h"
56	6529	181		mov __D0PlaySound, __zfPlaySound
56	6528	184	#line 6528 "NXCDefs.h"
56	6529	184		brtst 4, __NXC_Label_88, __zfPlaySound
56	6528	187	#line 6528 "NXCDefs.h"
56	6529	187		set __D0PlaySound, 4
56	6528	190	#line 6528 "NXCDefs.h"
56	6529	190		mov __PlaySound_7qG2_i_7qG2_001, __D0PlaySound
56	6528	193	#line 6528 "NXCDefs.h"
56	6529	193		mov __D0PlaySound, __PlaySound_7qG2_i_7qG2_001
56	6528	196	#line 6528 "NXCDefs.h"
56	6529	196		mov __signed_stack_001PlaySound, __D0PlaySound
56	6528	199	#line 6528 "NXCDefs.h"
56	6529	199		set __D0PlaySound, 8
56	6528	202	#line 6528 "NXCDefs.h"
56	6529	202		cmp 0, __zfPlaySound, __signed_stack_001PlaySound, __D0PlaySound
56	6528	206	#line 6528 "NXCDefs.h"
56	6529	206		mov __D0PlaySound, __zfPlaySound
56	6528	209	#line 6528 "NXCDefs.h"
56	6529	209		brtst 4, __NXC_Label_90, __zfPlaySound
56	6528	212	#line 6528 "NXCDefs.h"
56	6529	212		jmp __NXC_Label_91
56	6529	214	#line 6529 "NXCDefs.h"
56	6530	214		add __PlaySound_7qG2_i_7qG2_001, __PlaySound_7qG2_i_7qG2_001, __constVal1
56	6530	218	#line 6530 "NXCDefs.h"
56	6531	218		jmp __NXC_Label_89
56	6530	220	#line 6530 "NXCDefs.h"
56	6531	220		set __D0PlaySound, 523
56	6530	223	#line 6530 "NXCDefs.h"
56	6531	223		mov __signed_stack_001PlaySound, __D0PlaySound
56	6530	226	#line 6530 "NXCDefs.h"
56	6531	226		mov __D0PlaySound, __PlaySound_7qG2_i_7qG2_001
56	6530	229	#line 6530 "NXCDefs.h"
56	6531	229		mul __D0PlaySound, __signed_stack_001PlaySound, __D0PlaySound
56	6530	233	#line 6530 "NXCDefs.h"
56	6531	233		mov __signed_stack_001PlaySound, __D0PlaySound
56	6530	236	#line 6530 "NXCDefs.h"
56	6531	236		set __D0PlaySound, 4
56	6530	239	#line 6530 "NXCDefs.h"
56	6531	239		div __D0PlaySound, __signed_stack_001PlaySound, __D0PlaySound
56	6530	243	#line 6530 "NXCDefs.h"
56	6531	243		mov __signed_stack_001PlaySound, __D0PlaySound
56	6530	246	#line 6530 "NXCDefs.h"
56	6531	246		set __D0PlaySound, 100
56	6530	249	#line 6530 "NXCDefs.h"
56	6531	249		mov __signed_stack_002PlaySound, __D0PlaySound
56	6530	252	#line 6530 "NXCDefs.h"
56	6531	252		set __D0PlaySound, 4
56	6530	255	#line 6530 "NXCDefs.h"
56	6531	255		mov __signed_stack_003PlaySound, __D0PlaySound
56	6530	257	#line 6530 "NXCDefs.h"
56	6531	257		set __D0PlaySound, 0
56	6531	260	#line 6531 "NXCDefs.h"
56	6532	260		acquire __SPTArgsMutex
56	6531	261	#line 6531 "NXCDefs.h"
56	6532	261		mov __SPTArgs.Frequency, __signed_stack_001PlaySound
56	6531	264	#line 6531 "NXCDefs.h"
56	6532	264		mov __SPTArgs.Duration, __signed_stack_002PlaySound
56	6531	267	#line 6531 "NXCDefs.h"
56	6532	267		mov __SPTArgs.Volume, __signed_stack_003PlaySound
56	6531	270	#line 6531 "NXCDefs.h"
56	6532	270		mov __SPTArgs.Loop, __D0PlaySound
56	6531	273	#line 6531 "NXCDefs.h"
56	6532	273		syscall 10, __SPTArgs
56	6531	276	#line 6531 "NXCDefs.h"
56	6532	276		mov __D0PlaySound, __SPTArgs.Result
56	6531	279	#line 6531 "NXCDefs.h"
56	6532	279		release __SPTArgsMutex
56	6531	280	#line 6531 "NXCDefs.h"
56	6531	280	#line 6531 "NXCDefs.h"
56	6532	280		wait2 NA, __constVal100
56	6531	283	#line 6531 "NXCDefs.h"
56	6531	283	#line 6531 "NXCDefs.h"
56	6533	283	#line 6533 "NXCDefs.h"
56	6534	283		jmp __NXC_Label_92
56	6533	285	#line 6533 "NXCDefs.h"
56	6533	285	#line 6533 "NXCDefs.h"
56	6534	285		jmp __NXC_Label_105
56	6533	287	#line 6533 "NXCDefs.h"
56	6534	287		mov __D0PlaySound, __PlaySound_7qG2_aCode_7qG2_000
56	6533	290	#line 6533 "NXCDefs.h"
56	6534	290		mov __signed_stack_001PlaySound, __D0PlaySound
56	6534	293	#line 6534 "NXCDefs.h"
56	6535	293		set __D0PlaySound, 2
56	6534	296	#line 6534 "NXCDefs.h"
56	6535	296		cmp 4, __zfPlaySound, __signed_stack_001PlaySound, __D0PlaySound
56	6534	300	#line 6534 "NXCDefs.h"
56	6535	300		mov __D0PlaySound, __zfPlaySound
56	6534	303	#line 6534 "NXCDefs.h"
56	6535	303		brtst 4, __NXC_Label_108, __zfPlaySound
56	6534	306	#line 6534 "NXCDefs.h"
56	6535	306		set __D0PlaySound, 7
56	6534	309	#line 6534 "NXCDefs.h"
56	6535	309		mov __PlaySound_7qG2_i_7qG2_001, __D0PlaySound
56	6534	312	#line 6534 "NXCDefs.h"
56	6535	312		mov __D0PlaySound, __PlaySound_7qG2_i_7qG2_001
56	6534	315	#line 6534 "NXCDefs.h"
56	6535	315		mov __signed_stack_001PlaySound, __D0PlaySound
56	6534	318	#line 6534 "NXCDefs.h"
56	6535	318		set __D0PlaySound, 3
56	6534	321	#line 6534 "NXCDefs.h"
56	6535	321		cmp 1, __zfPlaySound, __signed_stack_001PlaySound, __D0PlaySound
56	6534	325	#line 6534 "NXCDefs.h"
56	6535	325		mov __D0PlaySound, __zfPlaySound
56	6534	328	#line 6534 "NXCDefs.h"
56	6535	328		brtst 4, __NXC_Label_110, __zfPlaySound
56	6534	331	#line 6534 "NXCDefs.h"
56	6535	331		jmp __NXC_Label_111
56	6535	333	#line 6535 "NXCDefs.h"
56	6536	333		sub __PlaySound_7qG2_i_7qG2_001, __PlaySound_7qG2_i_7qG2_001, __constVal1
56	6536	337	#line 6536 "NXCDefs.h"
56	6537	337		jmp __NXC_Label_109
56	6536	339	#line 6536 "NXCDefs.h"
56	6537	339		set __D0PlaySound, 523
56	6536	342	#line 6536 "NXCDefs.h"
56	6537	342		mov __signed_stack_001PlaySound, __D0PlaySound
56	6536	345	#line 6536 "NXCDefs.h"
56	6537	345		mov __D0PlaySound, __PlaySound_7qG2_i_7qG2_001
56	6536	348	#line 6536 "NXCDefs.h"
56	6537	348		mul __D0PlaySound, __signed_stack_001PlaySound, __D0PlaySound
56	6536	352	#line 6536 "NXCDefs.h"
56	6537	352		mov __signed_stack_001PlaySound, __D0PlaySound
56	6536	355	#line 6536 "NXCDefs.h"
56	6537	355		set __D0PlaySound, 4
56	6536	358	#line 6536 "NXCDefs.h"
56	6537	358		div __D0PlaySound, __signed_stack_001PlaySound, __D0PlaySound
56	6536	362	#line 6536 "NXCDefs.h"
56	6537	362		mov __signed_stack_001PlaySound, __D0PlaySound
56	6536	365	#line 6536 "NXCDefs.h"
56	6537	365		set __D0PlaySound, 100
56	6536	368	#line 6536 "NXCDefs.h"
56	6537	368		mov __signed_stack_002PlaySound, __D0PlaySound
56	6536	371	#line 6536 "NXCDefs.h"
56	6537	371		set __D0PlaySound, 4
56	6536	374	#line 6536 "NXCDefs.h"
56	6537	374		mov __signed_stack_003PlaySound, __D0PlaySound
56	6536	376	#line 6536 "NXCDefs.h"
56	6537	376		set __D0PlaySound, 0
56	6537	379	#line 6537 "NXCDefs.h"
56	6538	379		acquire __SPTArgsMutex
56	6537	380	#line 6537 "NXCDefs.h"
56	6538	380		mov __SPTArgs.Frequency, __signed_stack_001PlaySound
56	6537	383	#line 6537 "NXCDefs.h"
56	6538	383		mov __SPTArgs.Duration, __signed_stack_002PlaySound
56	6537	386	#line 6537 "NXCDefs.h"
56	6538	386		mov __SPTArgs.Volume, __signed_stack_003PlaySound
56	6537	389	#line 6537 "NXCDefs.h"
56	6538	389		mov __SPTArgs.Loop, __D0PlaySound
56	6537	392	#line 6537 "NXCDefs.h"
56	6538	392		syscall 10, __SPTArgs
56	6537	395	#line 6537 "NXCDefs.h"
56	6538	395		mov __D0PlaySound, __SPTArgs.Result
56	6537	398	#line 6537 "NXCDefs.h"
56	6538	398		release __SPTArgsMutex
56	6537	399	#line 6537 "NXCDefs.h"
56	6537	399	#line 6537 "NXCDefs.h"
56	6538	399		wait2 NA, __constVal100
56	6537	402	#line 6537 "NXCDefs.h"
56	6537	402	#line 6537 "NXCDefs.h"
56	6539	402	#line 6539 "NXCDefs.h"
56	6540	402		jmp __NXC_Label_112
56	6539	404	#line 6539 "NXCDefs.h"
56	6539	404	#line 6539 "NXCDefs.h"
56	6540	404		jmp __NXC_Label_125
56	6539	406	#line 6539 "NXCDefs.h"
56	6540	406		mov __D0PlaySound, __PlaySound_7qG2_aCode_7qG2_000
56	6539	409	#line 6539 "NXCDefs.h"
56	6540	409		mov __signed_stack_001PlaySound, __D0PlaySound
56	6540	412	#line 6540 "NXCDefs.h"
56	6541	412		set __D0PlaySound, 4
56	6540	415	#line 6540 "NXCDefs.h"
56	6541	415		cmp 4, __zfPlaySound, __signed_stack_001PlaySound, __D0PlaySound
56	6540	419	#line 6540 "NXCDefs.h"
56	6541	419		mov __D0PlaySound, __zfPlaySound
56	6541	422	#line 6541 "NXCDefs.h"
56	6542	422		brtst 4, __NXC_Label_128, __zfPlaySound
56	6541	425	#line 6541 "NXCDefs.h"
56	6542	425		set __D0PlaySound, 100
56	6541	428	#line 6541 "NXCDefs.h"
56	6542	428		mov __signed_stack_001PlaySound, __D0PlaySound
56	6541	431	#line 6541 "NXCDefs.h"
56	6542	431		set __D0PlaySound, 500
56	6541	434	#line 6541 "NXCDefs.h"
56	6542	434		mov __signed_stack_002PlaySound, __D0PlaySound
56	6541	437	#line 6541 "NXCDefs.h"
56	6542	437		set __D0PlaySound, 4
56	6541	440	#line 6541 "NXCDefs.h"
56	6542	440		mov __signed_stack_003PlaySound, __D0PlaySound
56	6541	442	#line 6541 "NXCDefs.h"
56	6542	442		set __D0PlaySound, 0
56	6542	445	#line 6542 "NXCDefs.h"
56	6543	445		acquire __SPTArgsMutex
56	6542	446	#line 6542 "NXCDefs.h"
56	6543	446		mov __SPTArgs.Frequency, __signed_stack_001PlaySound
56	6542	449	#line 6542 "NXCDefs.h"
56	6543	449		mov __SPTArgs.Duration, __signed_stack_002PlaySound
56	6542	452	#line 6542 "NXCDefs.h"
56	6543	452		mov __SPTArgs.Volume, __signed_stack_003PlaySound
56	6542	455	#line 6542 "NXCDefs.h"
56	6543	455		mov __SPTArgs.Loop, __D0PlaySound
56	6542	458	#line 6542 "NXCDefs.h"
56	6543	458		syscall 10, __SPTArgs
56	6542	461	#line 6542 "NXCDefs.h"
56	6543	461		mov __D0PlaySound, __SPTArgs.Result
56	6542	464	#line 6542 "NXCDefs.h"
56	6543	464		release __SPTArgsMutex
56	6542	465	#line 6542 "NXCDefs.h"
56	6542	465	#line 6542 "NXCDefs.h"
56	6543	465		wait2 NA, __constVal500
56	6542	468	#line 6542 "NXCDefs.h"
56	6542	468	#line 6542 "NXCDefs.h"
56	6544	468	#line 6544 "NXCDefs.h"
56	6545	468		jmp __NXC_Label_137
56	6544	470	#line 6544 "NXCDefs.h"
56	6545	470		mov __D0PlaySound, __PlaySound_7qG2_aCode_7qG2_000
56	6544	473	#line 6544 "NXCDefs.h"
56	6545	473		mov __signed_stack_001PlaySound, __D0PlaySound
56	6545	476	#line 6545 "NXCDefs.h"
56	6546	476		set __D0PlaySound, 5
56	6545	479	#line 6545 "NXCDefs.h"
56	6546	479		cmp 4, __zfPlaySound, __signed_stack_001PlaySound, __D0PlaySound
56	6545	483	#line 6545 "NXCDefs.h"
56	6546	483		mov __D0PlaySound, __zfPlaySound
56	6545	486	#line 6545 "NXCDefs.h"
56	6546	486		brtst 4, __NXC_Label_140, __zfPlaySound
56	6545	489	#line 6545 "NXCDefs.h"
56	6546	489		set __D0PlaySound, 4
56	6545	492	#line 6545 "NXCDefs.h"
56	6546	492		mov __PlaySound_7qG2_i_7qG2_001, __D0PlaySound
56	6545	495	#line 6545 "NXCDefs.h"
56	6546	495		mov __D0PlaySound, __PlaySound_7qG2_i_7qG2_001
56	6545	498	#line 6545 "NXCDefs.h"
56	6546	498		mov __signed_stack_001PlaySound, __D0PlaySound
56	6545	501	#line 6545 "NXCDefs.h"
56	6546	501		set __D0PlaySound, 8
56	6545	504	#line 6545 "NXCDefs.h"
56	6546	504		cmp 0, __zfPlaySound, __signed_stack_001PlaySound, __D0PlaySound
56	6545	508	#line 6545 "NXCDefs.h"
56	6546	508		mov __D0PlaySound, __zfPlaySound
56	6545	511	#line 6545 "NXCDefs.h"
56	6546	511		brtst 4, __NXC_Label_142, __zfPlaySound
56	6545	514	#line 6545 "NXCDefs.h"
56	6546	514		jmp __NXC_Label_143
56	6546	516	#line 6546 "NXCDefs.h"
56	6547	516		add __PlaySound_7qG2_i_7qG2_001, __PlaySound_7qG2_i_7qG2_001, __constVal1
56	6547	520	#line 6547 "NXCDefs.h"
56	6548	520		jmp __NXC_Label_141
56	6547	522	#line 6547 "NXCDefs.h"
56	6548	522		set __D0PlaySound, 523
56	6547	525	#line 6547 "NXCDefs.h"
56	6548	525		mov __signed_stack_001PlaySound, __D0PlaySound
56	6547	528	#line 6547 "NXCDefs.h"
56	6548	528		mov __D0PlaySound, __PlaySound_7qG2_i_7qG2_001
56	6547	531	#line 6547 "NXCDefs.h"
56	6548	531		mul __D0PlaySound, __signed_stack_001PlaySound, __D0PlaySound
56	6547	535	#line 6547 "NXCDefs.h"
56	6548	535		mov __signed_stack_001PlaySound, __D0PlaySound
56	6547	538	#line 6547 "NXCDefs.h"
56	6548	538		set __D0PlaySound, 4
56	6547	541	#line 6547 "NXCDefs.h"
56	6548	541		div __D0PlaySound, __signed_stack_001PlaySound, __D0PlaySound
56	6547	545	#line 6547 "NXCDefs.h"
56	6548	545		mov __signed_stack_001PlaySound, __D0PlaySound
56	6547	548	#line 6547 "NXCDefs.h"
56	6548	548		set __D0PlaySound, 50
56	6547	551	#line 6547 "NXCDefs.h"
56	6548	551		mov __signed_stack_002PlaySound, __D0PlaySound
56	6547	554	#line 6547 "NXCDefs.h"
56	6548	554		set __D0PlaySound, 4
56	6547	557	#line 6547 "NXCDefs.h"
56	6548	557		mov __signed_stack_003PlaySound, __D0PlaySound
56	6547	559	#line 6547 "NXCDefs.h"
56	6548	559		set __D0PlaySound, 0
56	6548	562	#line 6548 "NXCDefs.h"
56	6549	562		acquire __SPTArgsMutex
56	6548	563	#line 6548 "NXCDefs.h"
56	6549	563		mov __SPTArgs.Frequency, __signed_stack_001PlaySound
56	6548	566	#line 6548 "NXCDefs.h"
56	6549	566		mov __SPTArgs.Duration, __signed_stack_002PlaySound
56	6548	569	#line 6548 "NXCDefs.h"
56	6549	569		mov __SPTArgs.Volume, __signed_stack_003PlaySound
56	6548	572	#line 6548 "NXCDefs.h"
56	6549	572		mov __SPTArgs.Loop, __D0PlaySound
56	6548	575	#line 6548 "NXCDefs.h"
56	6549	575		syscall 10, __SPTArgs
56	6548	578	#line 6548 "NXCDefs.h"
56	6549	578		mov __D0PlaySound, __SPTArgs.Result
56	6548	581	#line 6548 "NXCDefs.h"
56	6549	581		release __SPTArgsMutex
56	6548	582	#line 6548 "NXCDefs.h"
56	6548	582	#line 6548 "NXCDefs.h"
56	6549	582		wait2 NA, __constVal50
56	6548	585	#line 6548 "NXCDefs.h"
56	6548	585	#line 6548 "NXCDefs.h"
56	6560	585	#line 6560 "NXCDefs.h"
56	6561	585		jmp __NXC_Label_144
56	6560	587	#line 6560 "NXCDefs.h"
56	6560	587	#line 6560 "NXCDefs.h"
56	6560	587	#line 6560 "NXCDefs.h"
56	6560	587	#line 6560 "NXCDefs.h"
56	6560	587	#line 6560 "NXCDefs.h"
56	6560	587	#line 6560 "NXCDefs.h"
56	6560	587	#line 6560 "NXCDefs.h"
56	6560	587	#line 6560 "NXCDefs.h"
56	6561	587		subret __PlaySound_return
57	6562	0	#line 6562 "NXCDefs.h"
57	6563	0		set __D0PlayTones, 0
57	6562	3	#line 6562 "NXCDefs.h"
57	6563	3		mov __PlayTones_7qG2_i_7qG2_001, __D0PlayTones
57	6562	6	#line 6562 "NXCDefs.h"
57	6563	6		mov __D0PlayTones, __PlayTones_7qG2_i_7qG2_001
57	6562	9	#line 6562 "NXCDefs.h"
57	6563	9		mov __signed_stack_001PlayTones, __D0PlayTones
57	6562	11	#line 6562 "NXCDefs.h"
57	6563	11		arrsize __D0PlayTones, __PlayTones_7qG2_tones_7qG2_000
57	6562	14	#line 6562 "NXCDefs.h"
57	6563	14		cmp 0, __zfPlayTones, __signed_stack_001PlayTones, __D0PlayTones
57	6562	18	#line 6562 "NXCDefs.h"
57	6563	18		mov __D0PlayTones, __zfPlayTones
57	6562	21	#line 6562 "NXCDefs.h"
57	6563	21		brtst 4, __NXC_Label_158, __zfPlayTones
57	6562	24	#line 6562 "NXCDefs.h"
57	6563	24		jmp __NXC_Label_159
57	6562	26	#line 6562 "NXCDefs.h"
57	6563	26		add __PlayTones_7qG2_i_7qG2_001, __PlayTones_7qG2_i_7qG2_001, __constVal1
57	6563	30	#line 6563 "NXCDefs.h"
57	6564	30		jmp __NXC_Label_157
57	6563	32	#line 6563 "NXCDefs.h"
57	6564	32		mov __D0PlayTones, __PlayTones_7qG2_i_7qG2_001
57	6563	35	#line 6563 "NXCDefs.h"
57	6564	35		mov __signed_stack_001PlayTones, __D0PlayTones
57	6563	37	#line 6563 "NXCDefs.h"
57	6564	37		index __ArrHelper__PlayTonesTone_219_0, __PlayTones_7qG2_tones_7qG2_000, __signed_stack_001PlayTones
57	6563	41	#line 6563 "NXCDefs.h"
57	6564	41		mov __PlayTones_7qG2_tmp_7qG2_002, __ArrHelper__PlayTonesTone_219_0
57	6564	44	#line 6564 "NXCDefs.h"
57	6565	44		mov __DU0PlayTones, __PlayTones_7qG2_tmp_7qG2_002.Frequency
57	6564	47	#line 6564 "NXCDefs.h"
57	6565	47		mov __unsigned_stack_001PlayTones, __DU0PlayTones
57	6564	49	#line 6564 "NXCDefs.h"
57	6565	49		mov __DU0PlayTones, __PlayTones_7qG2_tmp_7qG2_002.Duration
57	6564	52	#line 6564 "NXCDefs.h"
57	6565	52		mov __unsigned_stack_002PlayTones, __DU0PlayTones
57	6564	54	#line 6564 "NXCDefs.h"
57	6565	54		set __D0PlayTones, 4
57	6564	57	#line 6564 "NXCDefs.h"
57	6565	57		mov __signed_stack_003PlayTones, __D0PlayTones
57	6564	59	#line 6564 "NXCDefs.h"
57	6565	59		set __D0PlayTones, 0
57	6565	62	#line 6565 "NXCDefs.h"
57	6566	62		acquire __SPTArgsMutex
57	6565	63	#line 6565 "NXCDefs.h"
57	6566	63		mov __SPTArgs.Frequency, __unsigned_stack_001PlayTones
57	6565	66	#line 6565 "NXCDefs.h"
57	6566	66		mov __SPTArgs.Duration, __unsigned_stack_002PlayTones
57	6565	69	#line 6565 "NXCDefs.h"
57	6566	69		mov __SPTArgs.Volume, __signed_stack_003PlayTones
57	6565	72	#line 6565 "NXCDefs.h"
57	6566	72		mov __SPTArgs.Loop, __D0PlayTones
57	6565	75	#line 6565 "NXCDefs.h"
57	6566	75		syscall 10, __SPTArgs
57	6565	78	#line 6565 "NXCDefs.h"
57	6566	78		mov __D0PlayTones, __SPTArgs.Result
57	6565	81	#line 6565 "NXCDefs.h"
57	6566	81		release __SPTArgsMutex
57	6565	82	#line 6565 "NXCDefs.h"
57	6565	82	#line 6565 "NXCDefs.h"
57	6566	82		wait2 NA, __PlayTones_7qG2_tmp_7qG2_002.Duration
57	6565	85	#line 6565 "NXCDefs.h"
57	6565	85	#line 6565 "NXCDefs.h"
57	6595	85	#line 6595 "NXCDefs.h"
57	6596	85		jmp __NXC_Label_160
57	6595	87	#line 6595 "NXCDefs.h"
57	6595	87	#line 6595 "NXCDefs.h"
57	6596	87		subret __PlayTones_return
58	14260	0	#line 14260 "NXCDefs.h"
58	14261	0		getin __SensorNXTSumoEyes_7qG2_value_7qG2_000, __SensorNXTSumoEyes_7qG2_port_7qG2_000, 3
58	14262	4		mul __SensorNXTSumoEyes_7qG2_value_7qG2_000, __SensorNXTSumoEyes_7qG2_value_7qG2_000, __constVal100
58	14263	8		div __SensorNXTSumoEyes_7qG2_value_7qG2_000, __SensorNXTSumoEyes_7qG2_value_7qG2_000, __constVal1023
58	14264	12	#line 14264 "NXCDefs.h"
58	14264	12	#line 14264 "NXCDefs.h"
58	14265	12		mov __D0SensorNXTSumoEyes, __SensorNXTSumoEyes_7qG2_value_7qG2_000
58	14264	15	#line 14264 "NXCDefs.h"
58	14265	15		mov __signed_stack_001SensorNXTSumoEyes, __D0SensorNXTSumoEyes
58	14264	17	#line 14264 "NXCDefs.h"
58	14265	17		set __D0SensorNXTSumoEyes, 30
58	14264	20	#line 14264 "NXCDefs.h"
58	14265	20		cmp 1, __zfSensorNXTSumoEyes, __signed_stack_001SensorNXTSumoEyes, __D0SensorNXTSumoEyes
58	14264	24	#line 14264 "NXCDefs.h"
58	14265	24		mov __D0SensorNXTSumoEyes, __zfSensorNXTSumoEyes
58	14264	27	#line 14264 "NXCDefs.h"
58	14265	27		brtst 4, __NXC_Label_262, __zfSensorNXTSumoEyes
58	14264	30	#line 14264 "NXCDefs.h"
58	14265	30		mov __signed_stack_001SensorNXTSumoEyes, __D0SensorNXTSumoEyes
58	14264	32	#line 14264 "NXCDefs.h"
58	14265	32		mov __D0SensorNXTSumoEyes, __SensorNXTSumoEyes_7qG2_value_7qG2_000
58	14264	35	#line 14264 "NXCDefs.h"
58	14265	35		mov __signed_stack_002SensorNXTSumoEyes, __D0SensorNXTSumoEyes
58	14265	37	#line 14265 "NXCDefs.h"
58	14266	37		set __D0SensorNXTSumoEyes, 36
58	14265	40	#line 14265 "NXCDefs.h"
58	14266	40		cmp 0, __zfSensorNXTSumoEyes, __signed_stack_002SensorNXTSumoEyes, __D0SensorNXTSumoEyes
58	14265	44	#line 14265 "NXCDefs.h"
58	14266	44		mov __D0SensorNXTSumoEyes, __zfSensorNXTSumoEyes
58	14265	47	#line 14265 "NXCDefs.h"
58	14266	47		and __D0SensorNXTSumoEyes, __signed_stack_001SensorNXTSumoEyes, __D0SensorNXTSumoEyes
58	14265	51	#line 14265 "NXCDefs.h"
58	14266	51		tst 5, __zfSensorNXTSumoEyes, __D0SensorNXTSumoEyes
58	14265	54	#line 14265 "NXCDefs.h"
58	14266	54		brtst 4, __NXC_Label_263, __zfSensorNXTSumoEyes
58	14266	57	#line 14266 "NXCDefs.h"
58	14267	57		set __D0SensorNXTSumoEyes, 2
58	14266	60	#line 14266 "NXCDefs.h"
58	14267	60		subret __SensorNXTSumoEyes_return
58	14266	62	#line 14266 "NXCDefs.h"
58	14266	62	#line 14266 "NXCDefs.h"
58	14266	62	#line 14266 "NXCDefs.h"
58	14267	62		mov __D0SensorNXTSumoEyes, __SensorNXTSumoEyes_7qG2_value_7qG2_000
58	14266	65	#line 14266 "NXCDefs.h"
58	14267	65		mov __signed_stack_001SensorNXTSumoEyes, __D0SensorNXTSumoEyes
58	14266	67	#line 14266 "NXCDefs.h"
58	14267	67		set __D0SensorNXTSumoEyes, 63
58	14266	70	#line 14266 "NXCDefs.h"
58	14267	70		cmp 1, __zfSensorNXTSumoEyes, __signed_stack_001SensorNXTSumoEyes, __D0SensorNXTSumoEyes
58	14266	74	#line 14266 "NXCDefs.h"
58	14267	74		mov __D0SensorNXTSumoEyes, __zfSensorNXTSumoEyes
58	14266	77	#line 14266 "NXCDefs.h"
58	14267	77		brtst 4, __NXC_Label_267, __zfSensorNXTSumoEyes
58	14266	80	#line 14266 "NXCDefs.h"
58	14267	80		mov __signed_stack_001SensorNXTSumoEyes, __D0SensorNXTSumoEyes
58	14266	82	#line 14266 "NXCDefs.h"
58	14267	82		mov __D0SensorNXTSumoEyes, __SensorNXTSumoEyes_7qG2_value_7qG2_000
58	14266	85	#line 14266 "NXCDefs.h"
58	14267	85		mov __signed_stack_002SensorNXTSumoEyes, __D0SensorNXTSumoEyes
58	14267	87	#line 14267 "NXCDefs.h"
58	14268	87		set __D0SensorNXTSumoEyes, 69
58	14267	90	#line 14267 "NXCDefs.h"
58	14268	90		cmp 0, __zfSensorNXTSumoEyes, __signed_stack_002SensorNXTSumoEyes, __D0SensorNXTSumoEyes
58	14267	94	#line 14267 "NXCDefs.h"
58	14268	94		mov __D0SensorNXTSumoEyes, __zfSensorNXTSumoEyes
58	14267	97	#line 14267 "NXCDefs.h"
58	14268	97		and __D0SensorNXTSumoEyes, __signed_stack_001SensorNXTSumoEyes, __D0SensorNXTSumoEyes
58	14267	101	#line 14267 "NXCDefs.h"
58	14268	101		tst 5, __zfSensorNXTSumoEyes, __D0SensorNXTSumoEyes
58	14267	104	#line 14267 "NXCDefs.h"
58	14268	104		brtst 4, __NXC_Label_268, __zfSensorNXTSumoEyes
58	14268	107	#line 14268 "NXCDefs.h"
58	14269	107		set __D0SensorNXTSumoEyes, 3
58	14268	110	#line 14268 "NXCDefs.h"
58	14269	110		subret __SensorNXTSumoEyes_return
58	14268	112	#line 14268 "NXCDefs.h"
58	14268	112	#line 14268 "NXCDefs.h"
58	14268	112	#line 14268 "NXCDefs.h"
58	14269	112		mov __D0SensorNXTSumoEyes, __SensorNXTSumoEyes_7qG2_value_7qG2_000
58	14268	115	#line 14268 "NXCDefs.h"
58	14269	115		mov __signed_stack_001SensorNXTSumoEyes, __D0SensorNXTSumoEyes
58	14268	117	#line 14268 "NXCDefs.h"
58	14269	117		set __D0SensorNXTSumoEyes, 74
58	14268	120	#line 14268 "NXCDefs.h"
58	14269	120		cmp 1, __zfSensorNXTSumoEyes, __signed_stack_001SensorNXTSumoEyes, __D0SensorNXTSumoEyes
58	14268	124	#line 14268 "NXCDefs.h"
58	14269	124		mov __D0SensorNXTSumoEyes, __zfSensorNXTSumoEyes
58	14268	127	#line 14268 "NXCDefs.h"
58	14269	127		brtst 4, __NXC_Label_272, __zfSensorNXTSumoEyes
58	14268	130	#line 14268 "NXCDefs.h"
58	14269	130		mov __signed_stack_001SensorNXTSumoEyes, __D0SensorNXTSumoEyes
58	14268	132	#line 14268 "NXCDefs.h"
58	14269	132		mov __D0SensorNXTSumoEyes, __SensorNXTSumoEyes_7qG2_value_7qG2_000
58	14268	135	#line 14268 "NXCDefs.h"
58	14269	135		mov __signed_stack_002SensorNXTSumoEyes, __D0SensorNXTSumoEyes
58	14269	137	#line 14269 "NXCDefs.h"
58	14270	137		set __D0SensorNXTSumoEyes, 80
58	14269	140	#line 14269 "NXCDefs.h"
58	14270	140		cmp 2, __zfSensorNXTSumoEyes, __signed_stack_002SensorNXTSumoEyes, __D0SensorNXTSumoEyes
58	14269	144	#line 14269 "NXCDefs.h"
58	14270	144		mov __D0SensorNXTSumoEyes, __zfSensorNXTSumoEyes
58	14269	147	#line 14269 "NXCDefs.h"
58	14270	147		and __D0SensorNXTSumoEyes, __signed_stack_001SensorNXTSumoEyes, __D0SensorNXTSumoEyes
58	14269	151	#line 14269 "NXCDefs.h"
58	14270	151		tst 5, __zfSensorNXTSumoEyes, __D0SensorNXTSumoEyes
58	14269	154	#line 14269 "NXCDefs.h"
58	14270	154		brtst 4, __NXC_Label_273, __zfSensorNXTSumoEyes
58	14270	157	#line 14270 "NXCDefs.h"
58	14271	157		set __D0SensorNXTSumoEyes, 1
58	14270	160	#line 14270 "NXCDefs.h"
58	14271	160		subret __SensorNXTSumoEyes_return
58	14270	162	#line 14270 "NXCDefs.h"
58	14270	162	#line 14270 "NXCDefs.h"
58	14271	162	#line 14271 "NXCDefs.h"
58	14272	162		set __D0SensorNXTSumoEyes, 0
58	14271	165	#line 14271 "NXCDefs.h"
58	14272	165		subret __SensorNXTSumoEyes_return
58	14271	167	#line 14271 "NXCDefs.h"
58	16821	167	#line 16821 "NXCDefs.h"
58	16822	167		subret __SensorNXTSumoEyes_return
59	17699	0	#line 17699 "NXCDefs.h"
59	17700	0		mov __D0fopen, __constVal37632
59	17699	2	#line 17699 "NXCDefs.h"
59	17700	2		mov __fopen_7qG2_result_7qG2_000, __D0fopen
59	17700	5	#line 17700 "NXCDefs.h"
59	17701	5		strcat __strbuffopen, __fopen_7qG2_mode_7qG2_000
59	17702	9		brcmp 4, __NXC_Label_291, __constStr0006, __strbuffopen
59	17703	13		brcmp 4, __NXC_Label_294, __constStr0007, __strbuffopen
59	17704	17		brcmp 4, __NXC_Label_299, __constStr0008, __strbuffopen
59	17705	21		jmp __NXC_Label_290
59	17702	23	#line 17702 "NXCDefs.h"
59	17702	23	#line 17702 "NXCDefs.h"
59	17703	23	#pragma macro 7
59	17703	23		acquire __FOMutex
59	17703	24		mov __FOArgs.Filename, __fopen_7qG2_filename_7qG2_000
59	17703	27		syscall 0, __FOArgs
59	17703	30		mov __fopen_7qG2_fsize_7qG2_000, __FOArgs.Length
59	17703	33		mov __fopen_7qG2_handle_7qG2_000, __FOArgs.FileHandle
59	17703	36		mov __D0fopen, __FOArgs.Result
59	17703	39		release __FOMutex
59	5156	40	#line 5156 "NXCDefs.h"
59	17702	40	#line 17702 "NXCDefs.h"
59	17703	40		mov __fopen_7qG2_result_7qG2_000, __D0fopen
59	17702	43	#line 17702 "NXCDefs.h"
59	17702	43	#line 17702 "NXCDefs.h"
59	17704	43	#line 17704 "NXCDefs.h"
59	17705	43		jmp __NXC_Label_290
59	17704	45	#line 17704 "NXCDefs.h"
59	17705	45	#line 17705 "NXCDefs.h"
59	17706	45	#line 17706 "NXCDefs.h"
59	17707	45		mov __DU0fopen, __fopen_default_size
59	17706	47	#line 17706 "NXCDefs.h"
59	17707	47		mov __fopen_7qG2_fsize_7qG2_000, __DU0fopen
59	17706	49	#line 17706 "NXCDefs.h"
59	17706	49	#line 17706 "NXCDefs.h"
59	17707	49	#pragma macro 7
59	17707	49		acquire __FOMutex
59	17707	50		mov __FOArgs.Filename, __fopen_7qG2_filename_7qG2_000
59	17707	53		mov __FOArgs.Length, __fopen_7qG2_fsize_7qG2_000
59	17707	56		syscall 1, __FOArgs
59	17707	59		mov __fopen_7qG2_handle_7qG2_000, __FOArgs.FileHandle
59	17707	62		mov __D0fopen, __FOArgs.Result
59	17707	65		release __FOMutex
59	5176	66	#line 5176 "NXCDefs.h"
59	17706	66	#line 17706 "NXCDefs.h"
59	17707	66		mov __fopen_7qG2_result_7qG2_000, __D0fopen
59	17706	69	#line 17706 "NXCDefs.h"
59	17706	69	#line 17706 "NXCDefs.h"
59	17708	69	#line 17708 "NXCDefs.h"
59	17709	69		jmp __NXC_Label_290
59	17708	71	#line 17708 "NXCDefs.h"
59	17709	71	#line 17709 "NXCDefs.h"
59	17709	71	#line 17709 "NXCDefs.h"
59	17710	71	#pragma macro 7
59	17710	71		acquire __FOMutex
59	17710	72		mov __FOArgs.Filename, __fopen_7qG2_filename_7qG2_000
59	17710	75		syscall 2, __FOArgs
59	17710	78		mov __fopen_7qG2_fsize_7qG2_000, __FOArgs.Length
59	17710	81		mov __fopen_7qG2_handle_7qG2_000, __FOArgs.FileHandle
59	17710	84		mov __D0fopen, __FOArgs.Result
59	17710	87		release __FOMutex
59	5189	88	#line 5189 "NXCDefs.h"
59	17709	88	#line 17709 "NXCDefs.h"
59	17710	88		mov __fopen_7qG2_result_7qG2_000, __D0fopen
59	17709	91	#line 17709 "NXCDefs.h"
59	17709	91	#line 17709 "NXCDefs.h"
59	17711	91	#line 17711 "NXCDefs.h"
59	17712	91		jmp __NXC_Label_290
59	17711	93	#line 17711 "NXCDefs.h"
59	17712	93	#line 17712 "NXCDefs.h"
59	17712	93	#line 17712 "NXCDefs.h"
59	17713	93		mov __D0fopen, __fopen_7qG2_result_7qG2_000
59	17712	96	#line 17712 "NXCDefs.h"
59	17713	96		mov __signed_stack_001fopen, __D0fopen
59	17713	98	#line 17713 "NXCDefs.h"
59	17714	98		set __D0fopen, 0
59	17713	101	#line 17713 "NXCDefs.h"
59	17714	101		cmp 5, __zffopen, __signed_stack_001fopen, __D0fopen
59	17713	105	#line 17713 "NXCDefs.h"
59	17714	105		mov __D0fopen, __zffopen
59	17713	108	#line 17713 "NXCDefs.h"
59	17714	108		brtst 4, __NXC_Label_304, __zffopen
59	17714	111	#line 17714 "NXCDefs.h"
59	17715	111		set __D0fopen, 0
59	17714	114	#line 17714 "NXCDefs.h"
59	17715	114		mov __fopen_7qG2_handle_7qG2_000, __D0fopen
59	17714	117	#line 17714 "NXCDefs.h"
59	17714	117	#line 17714 "NXCDefs.h"
59	17715	117	#line 17715 "NXCDefs.h"
59	17716	117		mov __DU0fopen, __fopen_7qG2_handle_7qG2_000
59	17715	120	#line 17715 "NXCDefs.h"
59	17716	120		subret __fopen_return
59	17715	122	#line 17715 "NXCDefs.h"
59	17724	122	#line 17724 "NXCDefs.h"
59	17725	122		subret __fopen_return
60	108	0	#line 108 "C:\Users\ken\Desktop\C85\pfilter prob.nxc"
60	109	0		set __D0colour, 5
60	108	3	#line 108 "C:\Users\ken\Desktop\C85\pfilter prob.nxc"
60	109	3		mov __colour_7qG2_n_7qG2_000, __D0colour
60	110	6	#line 110 "C:\Users\ken\Desktop\C85\pfilter prob.nxc"
60	111	6		arrbuild __colour_7qG2_scans_7qG2_000, __constVal0, __constVal0, __constVal0, __constVal0, __constVal0, __constVal0, __constVal0
60	114	16	#line 114 "C:\Users\ken\Desktop\C85\pfilter prob.nxc"
60	115	16		arrbuild __colour_7qG2_pitch_7qG2_000, __constVal233, __constVal466, __constVal932, __constVal1865, __constVal3729, __constVal7458, __constVal233
60	114	26	#line 114 "C:\Users\ken\Desktop\C85\pfilter prob.nxc"
60	115	26		set __D0colour, 2
60	114	29	#line 114 "C:\Users\ken\Desktop\C85\pfilter prob.nxc"
60	115	29		mov __SetSensorColorFull_7qG2_port_7qG2_000_inline_colour, __D0colour
60	3802	32	#line 3802 "NXCDefs.h"
60	3803	32	#pragma macro 6
60	3803	32		setin __constVal13, __SetSensorColorFull_7qG2_port_7qG2_000_inline_colour, 0
60	3803	36		setin __constVal0, __SetSensorColorFull_7qG2_port_7qG2_000_inline_colour, 1
60	3803	40		acquire __ResetSensorMutex
60	3803	42		mov __ResetSensorPort, __SetSensorColorFull_7qG2_port_7qG2_000_inline_colour
60	3803	45		subcall __ResetSensorSubroutine, ____ResetSensorSubroutine_return
60	3803	48		release __ResetSensorMutex
60	5361	50	#line 5361 "NXCDefs.h"
60	3802	50	#line 3802 "NXCDefs.h"
60	116	50	#line 116 "C:\Users\ken\Desktop\C85\pfilter prob.nxc"
60	116	50	#line 116 "C:\Users\ken\Desktop\C85\pfilter prob.nxc"
60	117	50		set __D0colour, 0
60	116	53	#line 116 "C:\Users\ken\Desktop\C85\pfilter prob.nxc"
60	117	53		mov __colour_7qG2_i_7qG2_001, __D0colour
60	116	56	#line 116 "C:\Users\ken\Desktop\C85\pfilter prob.nxc"
60	117	56		mov __D0colour, __colour_7qG2_i_7qG2_001
60	116	59	#line 116 "C:\Users\ken\Desktop\C85\pfilter prob.nxc"
60	117	59		mov __signed_stack_001colour, __D0colour
60	116	61	#line 116 "C:\Users\ken\Desktop\C85\pfilter prob.nxc"
60	117	61		mov __D0colour, __colour_7qG2_n_7qG2_000
60	116	64	#line 116 "C:\Users\ken\Desktop\C85\pfilter prob.nxc"
60	117	64		cmp 0, __zfcolour, __signed_stack_001colour, __D0colour
60	116	68	#line 116 "C:\Users\ken\Desktop\C85\pfilter prob.nxc"
60	117	68		mov __D0colour, __zfcolour
60	116	71	#line 116 "C:\Users\ken\Desktop\C85\pfilter prob.nxc"
60	117	71		brtst 4, __NXC_Label_494, __zfcolour
60	116	74	#line 116 "C:\Users\ken\Desktop\C85\pfilter prob.nxc"
60	117	74		jmp __NXC_Label_495
60	116	76	#line 116 "C:\Users\ken\Desktop\C85\pfilter prob.nxc"
60	117	76		add __colour_7qG2_i_7qG2_001, __colour_7qG2_i_7qG2_001, __constVal1
60	117	80	#line 117 "C:\Users\ken\Desktop\C85\pfilter prob.nxc"
60	118	80		jmp __NXC_Label_493
60	117	82	#line 117 "C:\Users\ken\Desktop\C85\pfilter prob.nxc"
60	118	82		getin __D0colour, __constVal2, 4
60	117	86	#line 117 "C:\Users\ken\Desktop\C85\pfilter prob.nxc"
60	118	86		mov __colour_7qG2_p_7qG2_000, __D0colour
60	117	89	#line 117 "C:\Users\ken\Desktop\C85\pfilter prob.nxc"
60	117	89	#line 117 "C:\Users\ken\Desktop\C85\pfilter prob.nxc"
60	119	89	#line 119 "C:\Users\ken\Desktop\C85\pfilter prob.nxc"
60	120	89		mov __D0colour, __colour_7qG2_p_7qG2_000
60	119	92	#line 119 "C:\Users\ken\Desktop\C85\pfilter prob.nxc"
60	120	92		mov __signed_stack_001colour, __D0colour
60	119	94	#line 119 "C:\Users\ken\Desktop\C85\pfilter prob.nxc"
60	120	94		index __signed_stack_002colour, __colour_7qG2_scans_7qG2_000, __signed_stack_001colour
60	120	98	#line 120 "C:\Users\ken\Desktop\C85\pfilter prob.nxc"
60	121	98		set __D0colour, 1
60	120	101	#line 120 "C:\Users\ken\Desktop\C85\pfilter prob.nxc"
60	121	101		add __signed_stack_002colour, __signed_stack_002colour, __D0colour
60	120	105	#line 120 "C:\Users\ken\Desktop\C85\pfilter prob.nxc"
60	121	105		replace __colour_7qG2_scans_7qG2_000, __colour_7qG2_scans_7qG2_000, __signed_stack_001colour, __signed_stack_002colour
60	120	110	#line 120 "C:\Users\ken\Desktop\C85\pfilter prob.nxc"
60	122	110	#line 122 "C:\Users\ken\Desktop\C85\pfilter prob.nxc"
60	123	110		jmp __NXC_Label_496
60	122	112	#line 122 "C:\Users\ken\Desktop\C85\pfilter prob.nxc"
60	123	112	#line 123 "C:\Users\ken\Desktop\C85\pfilter prob.nxc"
60	124	112		set __D0colour, 0
60	123	115	#line 123 "C:\Users\ken\Desktop\C85\pfilter prob.nxc"
60	124	115		mov __colour_7qG2_max_i_7qG2_000, __D0colour
60	124	118	#line 124 "C:\Users\ken\Desktop\C85\pfilter prob.nxc"
60	125	118		set __D0colour, 0
60	124	121	#line 124 "C:\Users\ken\Desktop\C85\pfilter prob.nxc"
60	125	121		mov __colour_7qG2_max_7qG2_000, __D0colour
60	124	124	#line 124 "C:\Users\ken\Desktop\C85\pfilter prob.nxc"
60	125	124		set __D0colour, 0
60	124	127	#line 124 "C:\Users\ken\Desktop\C85\pfilter prob.nxc"
60	125	127		mov __colour_7qG2_i_7qG2_001, __D0colour
60	124	130	#line 124 "C:\Users\ken\Desktop\C85\pfilter prob.nxc"
60	125	130		mov __D0colour, __colour_7qG2_i_7qG2_001
60	124	133	#line 124 "C:\Users\ken\Desktop\C85\pfilter prob.nxc"
60	125	133		mov __signed_stack_001colour, __D0colour
60	124	135	#line 124 "C:\Users\ken\Desktop\C85\pfilter prob.nxc"
60	125	135		set __D0colour, 7
60	124	138	#line 124 "C:\Users\ken\Desktop\C85\pfilter prob.nxc"
60	125	138		cmp 0, __zfcolour, __signed_stack_001colour, __D0colour
60	124	142	#line 124 "C:\Users\ken\Desktop\C85\pfilter prob.nxc"
60	125	142		mov __D0colour, __zfcolour
60	124	145	#line 124 "C:\Users\ken\Desktop\C85\pfilter prob.nxc"
60	125	145		brtst 4, __NXC_Label_512, __zfcolour
60	124	148	#line 124 "C:\Users\ken\Desktop\C85\pfilter prob.nxc"
60	125	148		jmp __NXC_Label_513
60	124	150	#line 124 "C:\Users\ken\Desktop\C85\pfilter prob.nxc"
60	125	150		add __colour_7qG2_i_7qG2_001, __colour_7qG2_i_7qG2_001, __constVal1
60	125	154	#line 125 "C:\Users\ken\Desktop\C85\pfilter prob.nxc"
60	126	154		jmp __NXC_Label_511
60	125	156	#line 125 "C:\Users\ken\Desktop\C85\pfilter prob.nxc"
60	126	156		mov __D0colour, __colour_7qG2_i_7qG2_001
60	125	159	#line 125 "C:\Users\ken\Desktop\C85\pfilter prob.nxc"
60	126	159		mov __signed_stack_001colour, __D0colour
60	125	161	#line 125 "C:\Users\ken\Desktop\C85\pfilter prob.nxc"
60	126	161		index __ArrHelper__colour_73_0, __colour_7qG2_scans_7qG2_000, __signed_stack_001colour
60	125	165	#line 125 "C:\Users\ken\Desktop\C85\pfilter prob.nxc"
60	126	165		mov __D0colour, __ArrHelper__colour_73_0
60	125	168	#line 125 "C:\Users\ken\Desktop\C85\pfilter prob.nxc"
60	126	168		mov __signed_stack_001colour, __D0colour
60	125	170	#line 125 "C:\Users\ken\Desktop\C85\pfilter prob.nxc"
60	126	170		mov __D0colour, __colour_7qG2_max_7qG2_000
60	125	173	#line 125 "C:\Users\ken\Desktop\C85\pfilter prob.nxc"
60	126	173		cmp 1, __zfcolour, __signed_stack_001colour, __D0colour
60	125	177	#line 125 "C:\Users\ken\Desktop\C85\pfilter prob.nxc"
60	126	177		mov __D0colour, __zfcolour
60	126	180	#line 126 "C:\Users\ken\Desktop\C85\pfilter prob.nxc"
60	127	180		brtst 4, __NXC_Label_523, __zfcolour
60	127	183	#line 127 "C:\Users\ken\Desktop\C85\pfilter prob.nxc"
60	128	183		mov __D0colour, __colour_7qG2_i_7qG2_001
60	127	186	#line 127 "C:\Users\ken\Desktop\C85\pfilter prob.nxc"
60	128	186		mov __colour_7qG2_max_i_7qG2_000, __D0colour
60	127	189	#line 127 "C:\Users\ken\Desktop\C85\pfilter prob.nxc"
60	127	189	#line 127 "C:\Users\ken\Desktop\C85\pfilter prob.nxc"
60	128	189		mov __D0colour, __colour_7qG2_i_7qG2_001
60	127	192	#line 127 "C:\Users\ken\Desktop\C85\pfilter prob.nxc"
60	128	192		mov __signed_stack_001colour, __D0colour
60	127	194	#line 127 "C:\Users\ken\Desktop\C85\pfilter prob.nxc"
60	128	194		index __ArrHelper__colour_73_0, __colour_7qG2_scans_7qG2_000, __signed_stack_001colour
60	127	198	#line 127 "C:\Users\ken\Desktop\C85\pfilter prob.nxc"
60	128	198		mov __D0colour, __ArrHelper__colour_73_0
60	128	201	#line 128 "C:\Users\ken\Desktop\C85\pfilter prob.nxc"
60	129	201		mov __colour_7qG2_max_7qG2_000, __D0colour
60	128	204	#line 128 "C:\Users\ken\Desktop\C85\pfilter prob.nxc"
60	131	204	#line 131 "C:\Users\ken\Desktop\C85\pfilter prob.nxc"
60	131	204	#line 131 "C:\Users\ken\Desktop\C85\pfilter prob.nxc"
60	132	204		jmp __NXC_Label_514
60	131	206	#line 131 "C:\Users\ken\Desktop\C85\pfilter prob.nxc"
60	132	206	#line 132 "C:\Users\ken\Desktop\C85\pfilter prob.nxc"
60	133	206		mov __D0colour, __colour_7qG2_max_i_7qG2_000
60	132	209	#line 132 "C:\Users\ken\Desktop\C85\pfilter prob.nxc"
60	133	209		mov __colour_7qG2_col_7qG2_000, __D0colour
60	132	212	#line 132 "C:\Users\ken\Desktop\C85\pfilter prob.nxc"
60	132	212	#line 132 "C:\Users\ken\Desktop\C85\pfilter prob.nxc"
60	133	212		mov __D0colour, __colour_7qG2_col_7qG2_000
60	132	215	#line 132 "C:\Users\ken\Desktop\C85\pfilter prob.nxc"
60	133	215		mov __signed_stack_001colour, __D0colour
60	132	217	#line 132 "C:\Users\ken\Desktop\C85\pfilter prob.nxc"
60	133	217		index __ArrHelper__colour_73_0, __colour_7qG2_pitch_7qG2_000, __signed_stack_001colour
60	132	221	#line 132 "C:\Users\ken\Desktop\C85\pfilter prob.nxc"
60	133	221		mov __D0colour, __ArrHelper__colour_73_0
60	132	224	#line 132 "C:\Users\ken\Desktop\C85\pfilter prob.nxc"
60	133	224		mov __signed_stack_001colour, __D0colour
60	132	226	#line 132 "C:\Users\ken\Desktop\C85\pfilter prob.nxc"
60	133	226		set __D0colour, 400
60	132	229	#line 132 "C:\Users\ken\Desktop\C85\pfilter prob.nxc"
60	133	229		mov __signed_stack_002colour, __D0colour
60	132	231	#line 132 "C:\Users\ken\Desktop\C85\pfilter prob.nxc"
60	133	231		set __D0colour, 1
60	132	234	#line 132 "C:\Users\ken\Desktop\C85\pfilter prob.nxc"
60	133	234		mov __signed_stack_003colour, __D0colour
60	132	236	#line 132 "C:\Users\ken\Desktop\C85\pfilter prob.nxc"
60	133	236		set __D0colour, 0
60	133	239	#line 133 "C:\Users\ken\Desktop\C85\pfilter prob.nxc"
60	134	239		acquire __SPTArgsMutex
60	133	240	#line 133 "C:\Users\ken\Desktop\C85\pfilter prob.nxc"
60	134	240		mov __SPTArgs.Frequency, __signed_stack_001colour
60	133	243	#line 133 "C:\Users\ken\Desktop\C85\pfilter prob.nxc"
60	134	243		mov __SPTArgs.Duration, __signed_stack_002colour
60	133	246	#line 133 "C:\Users\ken\Desktop\C85\pfilter prob.nxc"
60	134	246		mov __SPTArgs.Volume, __signed_stack_003colour
60	133	249	#line 133 "C:\Users\ken\Desktop\C85\pfilter prob.nxc"
60	134	249		mov __SPTArgs.Loop, __D0colour
60	133	252	#line 133 "C:\Users\ken\Desktop\C85\pfilter prob.nxc"
60	134	252		syscall 10, __SPTArgs
60	133	255	#line 133 "C:\Users\ken\Desktop\C85\pfilter prob.nxc"
60	134	255		mov __D0colour, __SPTArgs.Result
60	133	258	#line 133 "C:\Users\ken\Desktop\C85\pfilter prob.nxc"
60	134	258		release __SPTArgsMutex
60	133	259	#line 133 "C:\Users\ken\Desktop\C85\pfilter prob.nxc"
60	134	259	#line 134 "C:\Users\ken\Desktop\C85\pfilter prob.nxc"
60	135	259		mov __D0colour, __colour_7qG2_col_7qG2_000
60	134	262	#line 134 "C:\Users\ken\Desktop\C85\pfilter prob.nxc"
60	135	262		subret __colour_return
60	134	264	#line 134 "C:\Users\ken\Desktop\C85\pfilter prob.nxc"
60	146	264	#line 146 "C:\Users\ken\Desktop\C85\pfilter prob.nxc"
60	147	264		subret __colour_return
61	149	0	#line 149 "C:\Users\ken\Desktop\C85\pfilter prob.nxc"
61	150	0		mov __D0drive, __drive_7qG2_left_7qG2_000
61	149	3	#line 149 "C:\Users\ken\Desktop\C85\pfilter prob.nxc"
61	150	3		mov __signed_stack_001drive, __D0drive
61	149	5	#line 149 "C:\Users\ken\Desktop\C85\pfilter prob.nxc"
61	150	5		set __D0drive, 0
61	149	8	#line 149 "C:\Users\ken\Desktop\C85\pfilter prob.nxc"
61	150	8		cmp 1, __zfdrive, __signed_stack_001drive, __D0drive
61	149	12	#line 149 "C:\Users\ken\Desktop\C85\pfilter prob.nxc"
61	150	12		mov __D0drive, __zfdrive
61	149	15	#line 149 "C:\Users\ken\Desktop\C85\pfilter prob.nxc"
61	150	15		brtst 4, __NXC_Label_545, __zfdrive
61	149	18	#line 149 "C:\Users\ken\Desktop\C85\pfilter prob.nxc"
61	150	18		mov __signed_stack_001drive, __D0drive
61	149	20	#line 149 "C:\Users\ken\Desktop\C85\pfilter prob.nxc"
61	150	20		mov __D0drive, __drive_7qG2_right_7qG2_000
61	149	23	#line 149 "C:\Users\ken\Desktop\C85\pfilter prob.nxc"
61	150	23		mov __signed_stack_002drive, __D0drive
61	149	25	#line 149 "C:\Users\ken\Desktop\C85\pfilter prob.nxc"
61	150	25		set __D0drive, 0
61	149	28	#line 149 "C:\Users\ken\Desktop\C85\pfilter prob.nxc"
61	150	28		cmp 1, __zfdrive, __signed_stack_002drive, __D0drive
61	149	32	#line 149 "C:\Users\ken\Desktop\C85\pfilter prob.nxc"
61	150	32		mov __D0drive, __zfdrive
61	150	35	#line 150 "C:\Users\ken\Desktop\C85\pfilter prob.nxc"
61	151	35		and __D0drive, __signed_stack_001drive, __D0drive
61	150	39	#line 150 "C:\Users\ken\Desktop\C85\pfilter prob.nxc"
61	151	39		tst 5, __zfdrive, __D0drive
61	150	42	#line 150 "C:\Users\ken\Desktop\C85\pfilter prob.nxc"
61	151	42		brtst 4, __NXC_Label_550, __zfdrive
61	150	45	#line 150 "C:\Users\ken\Desktop\C85\pfilter prob.nxc"
61	151	45		set __D0drive, 30
61	150	48	#line 150 "C:\Users\ken\Desktop\C85\pfilter prob.nxc"
61	151	48		mov __signed_stack_001drive, __D0drive
61	150	50	#line 150 "C:\Users\ken\Desktop\C85\pfilter prob.nxc"
61	151	50		mov __D0drive, __drive_7qG2_distance_7qG2_000
61	150	52	#line 150 "C:\Users\ken\Desktop\C85\pfilter prob.nxc"
61	151	52		mov __signed_stack_002drive, __D0drive
61	150	54	#line 150 "C:\Users\ken\Desktop\C85\pfilter prob.nxc"
61	151	54		mov __DF0drive, __constValf0P3799
61	150	56	#line 150 "C:\Users\ken\Desktop\C85\pfilter prob.nxc"
61	151	56		div __DF0drive, __signed_stack_002drive, __DF0drive
61	150	60	#line 150 "C:\Users\ken\Desktop\C85\pfilter prob.nxc"
61	151	60		mov __float_stack_002drive, __DF0drive
61	150	62	#line 150 "C:\Users\ken\Desktop\C85\pfilter prob.nxc"
61	151	62		mov __DF0drive, __constVal0
61	150	65	#line 150 "C:\Users\ken\Desktop\C85\pfilter prob.nxc"
61	151	65		mov __float_stack_003drive, __DF0drive
61	150	67	#line 150 "C:\Users\ken\Desktop\C85\pfilter prob.nxc"
61	151	67		mov __DF0drive, __constVal1
61	150	70	#line 150 "C:\Users\ken\Desktop\C85\pfilter prob.nxc"
61	151	70		mov __float_stack_004drive, __DF0drive
61	150	72	#line 150 "C:\Users\ken\Desktop\C85\pfilter prob.nxc"
61	151	72		mov __DU0drive, __drive_7qG2_brake_7qG2_000
61	153	75	#line 153 "C:\Users\ken\Desktop\C85\pfilter prob.nxc"
61	154	75	#pragma macro 35
61	154	75		acquire __rotateMutex1
61	154	77		acquire __rotateMutex2
61	154	79		mov __rotate_ports5, __OUT_BC
61	154	82		mov __rotate_power5, __signed_stack_001drive
61	154	85		mov __rotate_angle5, __float_stack_002drive
61	154	88		mov __rotate_turnpct5, __float_stack_003drive
61	154	91		mov __rotate_sync5, __float_stack_004drive
61	154	94		mov __rotate_stop5, __DU0drive
61	154	97		mov __rotate_theRVP5, __constVal32
61	154	99		mov __rotate_theRVI5, __constVal0
61	154	101		mov __rotate_theRVD5, __constVal96
61	154	103		subcall __RotateMotor5, ____RotateMotor5_return
61	154	106		release __rotateMutex2
61	154	108		release __rotateMutex1
61	5678	110	#line 5678 "C:\Users\ken\Desktop\C85\pfilter prob.nxc"
61	153	110	#line 153 "C:\Users\ken\Desktop\C85\pfilter prob.nxc"
61	153	110	#line 153 "C:\Users\ken\Desktop\C85\pfilter prob.nxc"
61	154	110		jmp __NXC_Label_561
61	153	112	#line 153 "C:\Users\ken\Desktop\C85\pfilter prob.nxc"
61	154	112		mov __D0drive, __drive_7qG2_left_7qG2_000
61	153	115	#line 153 "C:\Users\ken\Desktop\C85\pfilter prob.nxc"
61	154	115		mov __signed_stack_001drive, __D0drive
61	153	117	#line 153 "C:\Users\ken\Desktop\C85\pfilter prob.nxc"
61	154	117		set __D0drive, 0
61	153	120	#line 153 "C:\Users\ken\Desktop\C85\pfilter prob.nxc"
61	154	120		cmp 0, __zfdrive, __signed_stack_001drive, __D0drive
61	153	124	#line 153 "C:\Users\ken\Desktop\C85\pfilter prob.nxc"
61	154	124		mov __D0drive, __zfdrive
61	153	127	#line 153 "C:\Users\ken\Desktop\C85\pfilter prob.nxc"
61	154	127		brtst 4, __NXC_Label_563, __zfdrive
61	153	130	#line 153 "C:\Users\ken\Desktop\C85\pfilter prob.nxc"
61	154	130		mov __signed_stack_001drive, __D0drive
61	153	132	#line 153 "C:\Users\ken\Desktop\C85\pfilter prob.nxc"
61	154	132		mov __D0drive, __drive_7qG2_right_7qG2_000
61	153	135	#line 153 "C:\Users\ken\Desktop\C85\pfilter prob.nxc"
61	154	135		mov __signed_stack_002drive, __D0drive
61	153	137	#line 153 "C:\Users\ken\Desktop\C85\pfilter prob.nxc"
61	154	137		set __D0drive, 0
61	153	140	#line 153 "C:\Users\ken\Desktop\C85\pfilter prob.nxc"
61	154	140		cmp 0, __zfdrive, __signed_stack_002drive, __D0drive
61	153	144	#line 153 "C:\Users\ken\Desktop\C85\pfilter prob.nxc"
61	154	144		mov __D0drive, __zfdrive
61	154	147	#line 154 "C:\Users\ken\Desktop\C85\pfilter prob.nxc"
61	155	147		and __D0drive, __signed_stack_001drive, __D0drive
61	154	151	#line 154 "C:\Users\ken\Desktop\C85\pfilter prob.nxc"
61	155	151		tst 5, __zfdrive, __D0drive
61	154	154	#line 154 "C:\Users\ken\Desktop\C85\pfilter prob.nxc"
61	155	154		brtst 4, __NXC_Label_568, __zfdrive
61	154	157	#line 154 "C:\Users\ken\Desktop\C85\pfilter prob.nxc"
61	155	157		set __D0drive, 30
61	154	160	#line 154 "C:\Users\ken\Desktop\C85\pfilter prob.nxc"
61	155	160		mov __signed_stack_001drive, __D0drive
61	154	162	#line 154 "C:\Users\ken\Desktop\C85\pfilter prob.nxc"
61	155	162		mov __D0drive, __drive_7qG2_distance_7qG2_000
61	154	164	#line 154 "C:\Users\ken\Desktop\C85\pfilter prob.nxc"
61	155	164		mov __signed_stack_002drive, __D0drive
61	154	166	#line 154 "C:\Users\ken\Desktop\C85\pfilter prob.nxc"
61	155	166		mov __DF0drive, __constValf0P3799
61	154	168	#line 154 "C:\Users\ken\Desktop\C85\pfilter prob.nxc"
61	155	168		div __DF0drive, __signed_stack_002drive, __DF0drive
61	154	172	#line 154 "C:\Users\ken\Desktop\C85\pfilter prob.nxc"
61	155	172		mov __float_stack_002drive, __DF0drive
61	154	174	#line 154 "C:\Users\ken\Desktop\C85\pfilter prob.nxc"
61	155	174		mov __DF0drive, __constVal0
61	154	177	#line 154 "C:\Users\ken\Desktop\C85\pfilter prob.nxc"
61	155	177		mov __float_stack_003drive, __DF0drive
61	154	179	#line 154 "C:\Users\ken\Desktop\C85\pfilter prob.nxc"
61	155	179		mov __DF0drive, __constVal1
61	154	182	#line 154 "C:\Users\ken\Desktop\C85\pfilter prob.nxc"
61	155	182		mov __float_stack_004drive, __DF0drive
61	154	184	#line 154 "C:\Users\ken\Desktop\C85\pfilter prob.nxc"
61	155	184		mov __DU0drive, __drive_7qG2_brake_7qG2_000
61	157	187	#line 157 "C:\Users\ken\Desktop\C85\pfilter prob.nxc"
61	158	187	#pragma macro 35
61	158	187		acquire __rotateMutex1
61	158	189		acquire __rotateMutex2
61	158	191		mov __rotate_ports5, __OUT_BC
61	158	194		mov __rotate_power5, __signed_stack_001drive
61	158	197		mov __rotate_angle5, __float_stack_002drive
61	158	200		mov __rotate_turnpct5, __float_stack_003drive
61	158	203		mov __rotate_sync5, __float_stack_004drive
61	158	206		mov __rotate_stop5, __DU0drive
61	158	209		mov __rotate_theRVP5, __constVal32
61	158	211		mov __rotate_theRVI5, __constVal0
61	158	213		mov __rotate_theRVD5, __constVal96
61	158	215		subcall __RotateMotor5, ____RotateMotor5_return
61	158	218		release __rotateMutex2
61	158	220		release __rotateMutex1
61	5754	222	#line 5754 "C:\Users\ken\Desktop\C85\pfilter prob.nxc"
61	157	222	#line 157 "C:\Users\ken\Desktop\C85\pfilter prob.nxc"
61	157	222	#line 157 "C:\Users\ken\Desktop\C85\pfilter prob.nxc"
61	158	222		jmp __NXC_Label_579
61	157	224	#line 157 "C:\Users\ken\Desktop\C85\pfilter prob.nxc"
61	158	224		mov __D0drive, __drive_7qG2_left_7qG2_000
61	157	227	#line 157 "C:\Users\ken\Desktop\C85\pfilter prob.nxc"
61	158	227		mov __signed_stack_001drive, __D0drive
61	157	229	#line 157 "C:\Users\ken\Desktop\C85\pfilter prob.nxc"
61	158	229		set __D0drive, 0
61	157	232	#line 157 "C:\Users\ken\Desktop\C85\pfilter prob.nxc"
61	158	232		cmp 1, __zfdrive, __signed_stack_001drive, __D0drive
61	157	236	#line 157 "C:\Users\ken\Desktop\C85\pfilter prob.nxc"
61	158	236		mov __D0drive, __zfdrive
61	157	239	#line 157 "C:\Users\ken\Desktop\C85\pfilter prob.nxc"
61	158	239		brtst 4, __NXC_Label_581, __zfdrive
61	157	242	#line 157 "C:\Users\ken\Desktop\C85\pfilter prob.nxc"
61	158	242		mov __signed_stack_001drive, __D0drive
61	157	244	#line 157 "C:\Users\ken\Desktop\C85\pfilter prob.nxc"
61	158	244		mov __D0drive, __drive_7qG2_right_7qG2_000
61	157	247	#line 157 "C:\Users\ken\Desktop\C85\pfilter prob.nxc"
61	158	247		mov __signed_stack_002drive, __D0drive
61	157	249	#line 157 "C:\Users\ken\Desktop\C85\pfilter prob.nxc"
61	158	249		set __D0drive, 0
61	157	252	#line 157 "C:\Users\ken\Desktop\C85\pfilter prob.nxc"
61	158	252		cmp 0, __zfdrive, __signed_stack_002drive, __D0drive
61	157	256	#line 157 "C:\Users\ken\Desktop\C85\pfilter prob.nxc"
61	158	256		mov __D0drive, __zfdrive
61	158	259	#line 158 "C:\Users\ken\Desktop\C85\pfilter prob.nxc"
61	159	259		and __D0drive, __signed_stack_001drive, __D0drive
61	158	263	#line 158 "C:\Users\ken\Desktop\C85\pfilter prob.nxc"
61	159	263		tst 5, __zfdrive, __D0drive
61	158	266	#line 158 "C:\Users\ken\Desktop\C85\pfilter prob.nxc"
61	159	266		brtst 4, __NXC_Label_586, __zfdrive
61	158	269	#line 158 "C:\Users\ken\Desktop\C85\pfilter prob.nxc"
61	159	269		set __D0drive, 30
61	158	272	#line 158 "C:\Users\ken\Desktop\C85\pfilter prob.nxc"
61	159	272		mov __signed_stack_001drive, __D0drive
61	158	274	#line 158 "C:\Users\ken\Desktop\C85\pfilter prob.nxc"
61	159	274		mov __D0drive, __drive_7qG2_distance_7qG2_000
61	158	276	#line 158 "C:\Users\ken\Desktop\C85\pfilter prob.nxc"
61	159	276		mov __signed_stack_002drive, __D0drive
61	158	278	#line 158 "C:\Users\ken\Desktop\C85\pfilter prob.nxc"
61	159	278		mov __DF0drive, __constValf0P3799
61	158	280	#line 158 "C:\Users\ken\Desktop\C85\pfilter prob.nxc"
61	159	280		div __DF0drive, __signed_stack_002drive, __DF0drive
61	158	284	#line 158 "C:\Users\ken\Desktop\C85\pfilter prob.nxc"
61	159	284		mov __float_stack_002drive, __DF0drive
61	158	286	#line 158 "C:\Users\ken\Desktop\C85\pfilter prob.nxc"
61	159	286		mov __DF0drive, __constVal100
61	158	289	#line 158 "C:\Users\ken\Desktop\C85\pfilter prob.nxc"
61	159	289		mov __float_stack_003drive, __DF0drive
61	158	291	#line 158 "C:\Users\ken\Desktop\C85\pfilter prob.nxc"
61	159	291		mov __DF0drive, __constVal1
61	158	294	#line 158 "C:\Users\ken\Desktop\C85\pfilter prob.nxc"
61	159	294		mov __float_stack_004drive, __DF0drive
61	158	296	#line 158 "C:\Users\ken\Desktop\C85\pfilter prob.nxc"
61	159	296		mov __DU0drive, __drive_7qG2_brake_7qG2_000
61	161	299	#line 161 "C:\Users\ken\Desktop\C85\pfilter prob.nxc"
61	162	299	#pragma macro 35
61	162	299		acquire __rotateMutex1
61	162	301		acquire __rotateMutex2
61	162	303		mov __rotate_ports5, __OUT_BC
61	162	306		mov __rotate_power5, __signed_stack_001drive
61	162	309		mov __rotate_angle5, __float_stack_002drive
61	162	312		mov __rotate_turnpct5, __float_stack_003drive
61	162	315		mov __rotate_sync5, __float_stack_004drive
61	162	318		mov __rotate_stop5, __DU0drive
61	162	321		mov __rotate_theRVP5, __constVal32
61	162	323		mov __rotate_theRVI5, __constVal0
61	162	325		mov __rotate_theRVD5, __constVal96
61	162	327		subcall __RotateMotor5, ____RotateMotor5_return
61	162	330		release __rotateMutex2
61	162	332		release __rotateMutex1
61	5830	334	#line 5830 "C:\Users\ken\Desktop\C85\pfilter prob.nxc"
61	161	334	#line 161 "C:\Users\ken\Desktop\C85\pfilter prob.nxc"
61	161	334	#line 161 "C:\Users\ken\Desktop\C85\pfilter prob.nxc"
61	162	334		jmp __NXC_Label_597
61	161	336	#line 161 "C:\Users\ken\Desktop\C85\pfilter prob.nxc"
61	162	336		mov __D0drive, __drive_7qG2_left_7qG2_000
61	161	339	#line 161 "C:\Users\ken\Desktop\C85\pfilter prob.nxc"
61	162	339		mov __signed_stack_001drive, __D0drive
61	161	341	#line 161 "C:\Users\ken\Desktop\C85\pfilter prob.nxc"
61	162	341		set __D0drive, 0
61	161	344	#line 161 "C:\Users\ken\Desktop\C85\pfilter prob.nxc"
61	162	344		cmp 0, __zfdrive, __signed_stack_001drive, __D0drive
61	161	348	#line 161 "C:\Users\ken\Desktop\C85\pfilter prob.nxc"
61	162	348		mov __D0drive, __zfdrive
61	161	351	#line 161 "C:\Users\ken\Desktop\C85\pfilter prob.nxc"
61	162	351		brtst 4, __NXC_Label_599, __zfdrive
61	161	354	#line 161 "C:\Users\ken\Desktop\C85\pfilter prob.nxc"
61	162	354		mov __signed_stack_001drive, __D0drive
61	161	356	#line 161 "C:\Users\ken\Desktop\C85\pfilter prob.nxc"
61	162	356		mov __D0drive, __drive_7qG2_right_7qG2_000
61	161	359	#line 161 "C:\Users\ken\Desktop\C85\pfilter prob.nxc"
61	162	359		mov __signed_stack_002drive, __D0drive
61	161	361	#line 161 "C:\Users\ken\Desktop\C85\pfilter prob.nxc"
61	162	361		set __D0drive, 0
61	161	364	#line 161 "C:\Users\ken\Desktop\C85\pfilter prob.nxc"
61	162	364		cmp 1, __zfdrive, __signed_stack_002drive, __D0drive
61	161	368	#line 161 "C:\Users\ken\Desktop\C85\pfilter prob.nxc"
61	162	368		mov __D0drive, __zfdrive
61	162	371	#line 162 "C:\Users\ken\Desktop\C85\pfilter prob.nxc"
61	163	371		and __D0drive, __signed_stack_001drive, __D0drive
61	162	375	#line 162 "C:\Users\ken\Desktop\C85\pfilter prob.nxc"
61	163	375		tst 5, __zfdrive, __D0drive
61	162	378	#line 162 "C:\Users\ken\Desktop\C85\pfilter prob.nxc"
61	163	378		brtst 4, __NXC_Label_604, __zfdrive
61	162	381	#line 162 "C:\Users\ken\Desktop\C85\pfilter prob.nxc"
61	163	381		set __D0drive, 30
61	162	384	#line 162 "C:\Users\ken\Desktop\C85\pfilter prob.nxc"
61	163	384		mov __signed_stack_001drive, __D0drive
61	162	386	#line 162 "C:\Users\ken\Desktop\C85\pfilter prob.nxc"
61	163	386		mov __D0drive, __drive_7qG2_distance_7qG2_000
61	162	388	#line 162 "C:\Users\ken\Desktop\C85\pfilter prob.nxc"
61	163	388		mov __signed_stack_002drive, __D0drive
61	162	390	#line 162 "C:\Users\ken\Desktop\C85\pfilter prob.nxc"
61	163	390		mov __DF0drive, __constValf0P3799
61	162	392	#line 162 "C:\Users\ken\Desktop\C85\pfilter prob.nxc"
61	163	392		div __DF0drive, __signed_stack_002drive, __DF0drive
61	162	396	#line 162 "C:\Users\ken\Desktop\C85\pfilter prob.nxc"
61	163	396		mov __float_stack_002drive, __DF0drive
61	162	398	#line 162 "C:\Users\ken\Desktop\C85\pfilter prob.nxc"
61	163	398		mov __DF0drive, __constVal0
61	162	401	#line 162 "C:\Users\ken\Desktop\C85\pfilter prob.nxc"
61	163	401		mov __float_stack_003drive, __DF0drive
61	162	403	#line 162 "C:\Users\ken\Desktop\C85\pfilter prob.nxc"
61	163	403		mov __DF0drive, __constVal100
61	162	406	#line 162 "C:\Users\ken\Desktop\C85\pfilter prob.nxc"
61	163	406		sub __DF0drive, __float_stack_003drive, __DF0drive
61	162	410	#line 162 "C:\Users\ken\Desktop\C85\pfilter prob.nxc"
61	163	410		mov __float_stack_003drive, __DF0drive
61	162	412	#line 162 "C:\Users\ken\Desktop\C85\pfilter prob.nxc"
61	163	412		mov __DF0drive, __constVal1
61	162	415	#line 162 "C:\Users\ken\Desktop\C85\pfilter prob.nxc"
61	163	415		mov __float_stack_004drive, __DF0drive
61	162	417	#line 162 "C:\Users\ken\Desktop\C85\pfilter prob.nxc"
61	163	417		mov __DU0drive, __drive_7qG2_brake_7qG2_000
61	165	420	#line 165 "C:\Users\ken\Desktop\C85\pfilter prob.nxc"
61	166	420	#pragma macro 35
61	166	420		acquire __rotateMutex1
61	166	422		acquire __rotateMutex2
61	166	424		mov __rotate_ports5, __OUT_BC
61	166	427		mov __rotate_power5, __signed_stack_001drive
61	166	430		mov __rotate_angle5, __float_stack_002drive
61	166	433		mov __rotate_turnpct5, __float_stack_003drive
61	166	436		mov __rotate_sync5, __float_stack_004drive
61	166	439		mov __rotate_stop5, __DU0drive
61	166	442		mov __rotate_theRVP5, __constVal32
61	166	444		mov __rotate_theRVI5, __constVal0
61	166	446		mov __rotate_theRVD5, __constVal96
61	166	448		subcall __RotateMotor5, ____RotateMotor5_return
61	166	451		release __rotateMutex2
61	166	453		release __rotateMutex1
61	5912	455	#line 5912 "C:\Users\ken\Desktop\C85\pfilter prob.nxc"
61	165	455	#line 165 "C:\Users\ken\Desktop\C85\pfilter prob.nxc"
61	165	455	#line 165 "C:\Users\ken\Desktop\C85\pfilter prob.nxc"
61	166	455		jmp __NXC_Label_615
61	165	457	#line 165 "C:\Users\ken\Desktop\C85\pfilter prob.nxc"
61	166	457		mov __D0drive, __drive_7qG2_left_7qG2_000
61	165	460	#line 165 "C:\Users\ken\Desktop\C85\pfilter prob.nxc"
61	166	460		mov __signed_stack_001drive, __D0drive
61	166	462	#line 166 "C:\Users\ken\Desktop\C85\pfilter prob.nxc"
61	167	462		set __D0drive, 0
61	166	465	#line 166 "C:\Users\ken\Desktop\C85\pfilter prob.nxc"
61	167	465		cmp 1, __zfdrive, __signed_stack_001drive, __D0drive
61	166	469	#line 166 "C:\Users\ken\Desktop\C85\pfilter prob.nxc"
61	167	469		mov __D0drive, __zfdrive
61	166	472	#line 166 "C:\Users\ken\Desktop\C85\pfilter prob.nxc"
61	167	472		brtst 4, __NXC_Label_618, __zfdrive
61	166	475	#line 166 "C:\Users\ken\Desktop\C85\pfilter prob.nxc"
61	167	475		set __D0drive, 30
61	166	478	#line 166 "C:\Users\ken\Desktop\C85\pfilter prob.nxc"
61	167	478		mov __signed_stack_001drive, __D0drive
61	166	480	#line 166 "C:\Users\ken\Desktop\C85\pfilter prob.nxc"
61	167	480		mov __D0drive, __drive_7qG2_distance_7qG2_000
61	166	482	#line 166 "C:\Users\ken\Desktop\C85\pfilter prob.nxc"
61	167	482		mov __signed_stack_002drive, __D0drive
61	166	484	#line 166 "C:\Users\ken\Desktop\C85\pfilter prob.nxc"
61	167	484		mov __DF0drive, __constValf0P3799
61	166	486	#line 166 "C:\Users\ken\Desktop\C85\pfilter prob.nxc"
61	167	486		div __DF0drive, __signed_stack_002drive, __DF0drive
61	166	490	#line 166 "C:\Users\ken\Desktop\C85\pfilter prob.nxc"
61	167	490		mov __float_stack_002drive, __DF0drive
61	166	492	#line 166 "C:\Users\ken\Desktop\C85\pfilter prob.nxc"
61	167	492		mov __DF0drive, __constVal0
61	166	495	#line 166 "C:\Users\ken\Desktop\C85\pfilter prob.nxc"
61	167	495		mov __float_stack_003drive, __DF0drive
61	166	497	#line 166 "C:\Users\ken\Desktop\C85\pfilter prob.nxc"
61	167	497		mov __DF0drive, __constVal0
61	166	500	#line 166 "C:\Users\ken\Desktop\C85\pfilter prob.nxc"
61	167	500		mov __float_stack_004drive, __DF0drive
61	166	502	#line 166 "C:\Users\ken\Desktop\C85\pfilter prob.nxc"
61	167	502		mov __DU0drive, __drive_7qG2_brake_7qG2_000
61	169	505	#line 169 "C:\Users\ken\Desktop\C85\pfilter prob.nxc"
61	170	505	#pragma macro 33
61	170	505		acquire __rotateMutex2
61	170	507		arrbuild __rotate_ports2, __constVal2
61	170	511		mov __rotate_power2, __signed_stack_001drive
61	170	514		mov __rotate_angle2, __float_stack_002drive
61	170	517		mov __rotate_turnpct2, __float_stack_003drive
61	170	520		mov __rotate_sync2, __float_stack_004drive
61	170	523		mov __rotate_stop2, __DU0drive
61	170	526		mov __rotate_theRVP2, __constVal32
61	170	528		mov __rotate_theRVI2, __constVal0
61	170	530		mov __rotate_theRVD2, __constVal96
61	170	533		subcall __RotateMotor2, ____RotateMotor2_return
61	170	536		release __rotateMutex2
61	5966	538	#line 5966 "C:\Users\ken\Desktop\C85\pfilter prob.nxc"
61	169	538	#line 169 "C:\Users\ken\Desktop\C85\pfilter prob.nxc"
61	169	538	#line 169 "C:\Users\ken\Desktop\C85\pfilter prob.nxc"
61	170	538		jmp __NXC_Label_629
61	169	540	#line 169 "C:\Users\ken\Desktop\C85\pfilter prob.nxc"
61	170	540		mov __D0drive, __drive_7qG2_left_7qG2_000
61	169	543	#line 169 "C:\Users\ken\Desktop\C85\pfilter prob.nxc"
61	170	543		mov __signed_stack_001drive, __D0drive
61	170	545	#line 170 "C:\Users\ken\Desktop\C85\pfilter prob.nxc"
61	171	545		set __D0drive, 0
61	170	548	#line 170 "C:\Users\ken\Desktop\C85\pfilter prob.nxc"
61	171	548		cmp 0, __zfdrive, __signed_stack_001drive, __D0drive
61	170	552	#line 170 "C:\Users\ken\Desktop\C85\pfilter prob.nxc"
61	171	552		mov __D0drive, __zfdrive
61	170	555	#line 170 "C:\Users\ken\Desktop\C85\pfilter prob.nxc"
61	171	555		brtst 4, __NXC_Label_632, __zfdrive
61	170	558	#line 170 "C:\Users\ken\Desktop\C85\pfilter prob.nxc"
61	171	558		set __D0drive, 30
61	170	561	#line 170 "C:\Users\ken\Desktop\C85\pfilter prob.nxc"
61	171	561		mov __signed_stack_001drive, __D0drive
61	170	563	#line 170 "C:\Users\ken\Desktop\C85\pfilter prob.nxc"
61	171	563		mov __D0drive, __drive_7qG2_left_7qG2_000
61	170	566	#line 170 "C:\Users\ken\Desktop\C85\pfilter prob.nxc"
61	171	566		mov __signed_stack_002drive, __D0drive
61	170	568	#line 170 "C:\Users\ken\Desktop\C85\pfilter prob.nxc"
61	171	568		mov __D0drive, __drive_7qG2_distance_7qG2_000
61	170	570	#line 170 "C:\Users\ken\Desktop\C85\pfilter prob.nxc"
61	171	570		mul __D0drive, __signed_stack_002drive, __D0drive
61	170	574	#line 170 "C:\Users\ken\Desktop\C85\pfilter prob.nxc"
61	171	574		mov __signed_stack_002drive, __D0drive
61	170	576	#line 170 "C:\Users\ken\Desktop\C85\pfilter prob.nxc"
61	171	576		mov __DF0drive, __constValf0P3799
61	170	578	#line 170 "C:\Users\ken\Desktop\C85\pfilter prob.nxc"
61	171	578		div __DF0drive, __signed_stack_002drive, __DF0drive
61	170	582	#line 170 "C:\Users\ken\Desktop\C85\pfilter prob.nxc"
61	171	582		mov __float_stack_002drive, __DF0drive
61	170	584	#line 170 "C:\Users\ken\Desktop\C85\pfilter prob.nxc"
61	171	584		mov __DF0drive, __constVal0
61	170	587	#line 170 "C:\Users\ken\Desktop\C85\pfilter prob.nxc"
61	171	587		mov __float_stack_003drive, __DF0drive
61	170	589	#line 170 "C:\Users\ken\Desktop\C85\pfilter prob.nxc"
61	171	589		mov __DF0drive, __constVal0
61	170	592	#line 170 "C:\Users\ken\Desktop\C85\pfilter prob.nxc"
61	171	592		mov __float_stack_004drive, __DF0drive
61	170	594	#line 170 "C:\Users\ken\Desktop\C85\pfilter prob.nxc"
61	171	594		mov __DU0drive, __drive_7qG2_brake_7qG2_000
61	173	597	#line 173 "C:\Users\ken\Desktop\C85\pfilter prob.nxc"
61	174	597	#pragma macro 33
61	174	597		acquire __rotateMutex2
61	174	599		arrbuild __rotate_ports2, __constVal2
61	174	603		mov __rotate_power2, __signed_stack_001drive
61	174	606		mov __rotate_angle2, __float_stack_002drive
61	174	609		mov __rotate_turnpct2, __float_stack_003drive
61	174	612		mov __rotate_sync2, __float_stack_004drive
61	174	615		mov __rotate_stop2, __DU0drive
61	174	618		mov __rotate_theRVP2, __constVal32
61	174	620		mov __rotate_theRVI2, __constVal0
61	174	622		mov __rotate_theRVD2, __constVal96
61	174	625		subcall __RotateMotor2, ____RotateMotor2_return
61	174	628		release __rotateMutex2
61	6026	630	#line 6026 "C:\Users\ken\Desktop\C85\pfilter prob.nxc"
61	173	630	#line 173 "C:\Users\ken\Desktop\C85\pfilter prob.nxc"
61	173	630	#line 173 "C:\Users\ken\Desktop\C85\pfilter prob.nxc"
61	174	630		jmp __NXC_Label_643
61	173	632	#line 173 "C:\Users\ken\Desktop\C85\pfilter prob.nxc"
61	174	632		mov __D0drive, __drive_7qG2_right_7qG2_000
61	173	635	#line 173 "C:\Users\ken\Desktop\C85\pfilter prob.nxc"
61	174	635		mov __signed_stack_001drive, __D0drive
61	174	637	#line 174 "C:\Users\ken\Desktop\C85\pfilter prob.nxc"
61	175	637		set __D0drive, 0
61	174	640	#line 174 "C:\Users\ken\Desktop\C85\pfilter prob.nxc"
61	175	640		cmp 1, __zfdrive, __signed_stack_001drive, __D0drive
61	174	644	#line 174 "C:\Users\ken\Desktop\C85\pfilter prob.nxc"
61	175	644		mov __D0drive, __zfdrive
61	174	647	#line 174 "C:\Users\ken\Desktop\C85\pfilter prob.nxc"
61	175	647		brtst 4, __NXC_Label_646, __zfdrive
61	174	650	#line 174 "C:\Users\ken\Desktop\C85\pfilter prob.nxc"
61	175	650		set __D0drive, 30
61	174	653	#line 174 "C:\Users\ken\Desktop\C85\pfilter prob.nxc"
61	175	653		mov __signed_stack_001drive, __D0drive
61	174	655	#line 174 "C:\Users\ken\Desktop\C85\pfilter prob.nxc"
61	175	655		mov __D0drive, __drive_7qG2_distance_7qG2_000
61	174	657	#line 174 "C:\Users\ken\Desktop\C85\pfilter prob.nxc"
61	175	657		mov __signed_stack_002drive, __D0drive
61	174	659	#line 174 "C:\Users\ken\Desktop\C85\pfilter prob.nxc"
61	175	659		mov __DF0drive, __constValf0P3799
61	174	661	#line 174 "C:\Users\ken\Desktop\C85\pfilter prob.nxc"
61	175	661		div __DF0drive, __signed_stack_002drive, __DF0drive
61	174	665	#line 174 "C:\Users\ken\Desktop\C85\pfilter prob.nxc"
61	175	665		mov __float_stack_002drive, __DF0drive
61	174	667	#line 174 "C:\Users\ken\Desktop\C85\pfilter prob.nxc"
61	175	667		mov __DF0drive, __constVal0
61	174	670	#line 174 "C:\Users\ken\Desktop\C85\pfilter prob.nxc"
61	175	670		mov __float_stack_003drive, __DF0drive
61	174	672	#line 174 "C:\Users\ken\Desktop\C85\pfilter prob.nxc"
61	175	672		mov __DF0drive, __constVal0
61	174	675	#line 174 "C:\Users\ken\Desktop\C85\pfilter prob.nxc"
61	175	675		mov __float_stack_004drive, __DF0drive
61	174	677	#line 174 "C:\Users\ken\Desktop\C85\pfilter prob.nxc"
61	175	677		mov __DU0drive, __drive_7qG2_brake_7qG2_000
61	177	680	#line 177 "C:\Users\ken\Desktop\C85\pfilter prob.nxc"
61	178	680	#pragma macro 33
61	178	680		acquire __rotateMutex1
61	178	682		arrbuild __rotate_ports1, __constVal1
61	178	686		mov __rotate_power1, __signed_stack_001drive
61	178	689		mov __rotate_angle1, __float_stack_002drive
61	178	692		mov __rotate_turnpct1, __float_stack_003drive
61	178	695		mov __rotate_sync1, __float_stack_004drive
61	178	698		mov __rotate_stop1, __DU0drive
61	178	701		mov __rotate_theRVP1, __constVal32
61	178	703		mov __rotate_theRVI1, __constVal0
61	178	705		mov __rotate_theRVD1, __constVal96
61	178	707		subcall __RotateMotor1, ____RotateMotor1_return
61	178	710		release __rotateMutex1
61	6080	712	#line 6080 "C:\Users\ken\Desktop\C85\pfilter prob.nxc"
61	177	712	#line 177 "C:\Users\ken\Desktop\C85\pfilter prob.nxc"
61	177	712	#line 177 "C:\Users\ken\Desktop\C85\pfilter prob.nxc"
61	178	712		jmp __NXC_Label_657
61	177	714	#line 177 "C:\Users\ken\Desktop\C85\pfilter prob.nxc"
61	178	714		mov __D0drive, __drive_7qG2_right_7qG2_000
61	177	717	#line 177 "C:\Users\ken\Desktop\C85\pfilter prob.nxc"
61	178	717		mov __signed_stack_001drive, __D0drive
61	178	719	#line 178 "C:\Users\ken\Desktop\C85\pfilter prob.nxc"
61	179	719		set __D0drive, 0
61	178	722	#line 178 "C:\Users\ken\Desktop\C85\pfilter prob.nxc"
61	179	722		cmp 0, __zfdrive, __signed_stack_001drive, __D0drive
61	178	726	#line 178 "C:\Users\ken\Desktop\C85\pfilter prob.nxc"
61	179	726		mov __D0drive, __zfdrive
61	178	729	#line 178 "C:\Users\ken\Desktop\C85\pfilter prob.nxc"
61	179	729		brtst 4, __NXC_Label_660, __zfdrive
61	178	732	#line 178 "C:\Users\ken\Desktop\C85\pfilter prob.nxc"
61	179	732		set __D0drive, 30
61	178	735	#line 178 "C:\Users\ken\Desktop\C85\pfilter prob.nxc"
61	179	735		mov __signed_stack_001drive, __D0drive
61	178	737	#line 178 "C:\Users\ken\Desktop\C85\pfilter prob.nxc"
61	179	737		mov __D0drive, __drive_7qG2_right_7qG2_000
61	178	740	#line 178 "C:\Users\ken\Desktop\C85\pfilter prob.nxc"
61	179	740		mov __signed_stack_002drive, __D0drive
61	178	742	#line 178 "C:\Users\ken\Desktop\C85\pfilter prob.nxc"
61	179	742		mov __D0drive, __drive_7qG2_distance_7qG2_000
61	178	744	#line 178 "C:\Users\ken\Desktop\C85\pfilter prob.nxc"
61	179	744		mul __D0drive, __signed_stack_002drive, __D0drive
61	178	748	#line 178 "C:\Users\ken\Desktop\C85\pfilter prob.nxc"
61	179	748		mov __signed_stack_002drive, __D0drive
61	178	750	#line 178 "C:\Users\ken\Desktop\C85\pfilter prob.nxc"
61	179	750		mov __DF0drive, __constValf0P3799
61	178	752	#line 178 "C:\Users\ken\Desktop\C85\pfilter prob.nxc"
61	179	752		div __DF0drive, __signed_stack_002drive, __DF0drive
61	178	756	#line 178 "C:\Users\ken\Desktop\C85\pfilter prob.nxc"
61	179	756		mov __float_stack_002drive, __DF0drive
61	178	758	#line 178 "C:\Users\ken\Desktop\C85\pfilter prob.nxc"
61	179	758		mov __DF0drive, __constVal0
61	178	761	#line 178 "C:\Users\ken\Desktop\C85\pfilter prob.nxc"
61	179	761		mov __float_stack_003drive, __DF0drive
61	178	763	#line 178 "C:\Users\ken\Desktop\C85\pfilter prob.nxc"
61	179	763		mov __DF0drive, __constVal0
61	178	766	#line 178 "C:\Users\ken\Desktop\C85\pfilter prob.nxc"
61	179	766		mov __float_stack_004drive, __DF0drive
61	178	768	#line 178 "C:\Users\ken\Desktop\C85\pfilter prob.nxc"
61	179	768		mov __DU0drive, __drive_7qG2_brake_7qG2_000
61	179	771	#line 179 "C:\Users\ken\Desktop\C85\pfilter prob.nxc"
61	180	771	#pragma macro 33
61	180	771		acquire __rotateMutex1
61	180	773		arrbuild __rotate_ports1, __constVal1
61	180	777		mov __rotate_power1, __signed_stack_001drive
61	180	780		mov __rotate_angle1, __float_stack_002drive
61	180	783		mov __rotate_turnpct1, __float_stack_003drive
61	180	786		mov __rotate_sync1, __float_stack_004drive
61	180	789		mov __rotate_stop1, __DU0drive
61	180	792		mov __rotate_theRVP1, __constVal32
61	180	794		mov __rotate_theRVI1, __constVal0
61	180	796		mov __rotate_theRVD1, __constVal96
61	180	798		subcall __RotateMotor1, ____RotateMotor1_return
61	180	801		release __rotateMutex1
61	6140	803	#line 6140 "C:\Users\ken\Desktop\C85\pfilter prob.nxc"
61	179	803	#line 179 "C:\Users\ken\Desktop\C85\pfilter prob.nxc"
61	189	803	#line 189 "C:\Users\ken\Desktop\C85\pfilter prob.nxc"
61	189	803	#line 189 "C:\Users\ken\Desktop\C85\pfilter prob.nxc"
61	189	803	#line 189 "C:\Users\ken\Desktop\C85\pfilter prob.nxc"
61	189	803	#line 189 "C:\Users\ken\Desktop\C85\pfilter prob.nxc"
61	189	803	#line 189 "C:\Users\ken\Desktop\C85\pfilter prob.nxc"
61	189	803	#line 189 "C:\Users\ken\Desktop\C85\pfilter prob.nxc"
61	189	803	#line 189 "C:\Users\ken\Desktop\C85\pfilter prob.nxc"
61	189	803	#line 189 "C:\Users\ken\Desktop\C85\pfilter prob.nxc"
61	189	803	#line 189 "C:\Users\ken\Desktop\C85\pfilter prob.nxc"
61	190	803		subret __drive_return
62	192	0	#line 192 "C:\Users\ken\Desktop\C85\pfilter prob.nxc"
62	193	0		mov __D0rotate, __rotate_7qG2_degrees_7qG2_000
62	192	2	#line 192 "C:\Users\ken\Desktop\C85\pfilter prob.nxc"
62	193	2		mov __signed_stack_001rotate, __D0rotate
62	192	4	#line 192 "C:\Users\ken\Desktop\C85\pfilter prob.nxc"
62	193	4		set __D0rotate, 0
62	192	7	#line 192 "C:\Users\ken\Desktop\C85\pfilter prob.nxc"
62	193	7		cmp 1, __zfrotate, __signed_stack_001rotate, __D0rotate
62	192	11	#line 192 "C:\Users\ken\Desktop\C85\pfilter prob.nxc"
62	193	11		mov __D0rotate, __zfrotate
62	192	14	#line 192 "C:\Users\ken\Desktop\C85\pfilter prob.nxc"
62	193	14		brtst 4, __NXC_Label_672, __zfrotate
62	192	17	#line 192 "C:\Users\ken\Desktop\C85\pfilter prob.nxc"
62	193	17		mov __signed_stack_001rotate, __D0rotate
62	192	19	#line 192 "C:\Users\ken\Desktop\C85\pfilter prob.nxc"
62	193	19		mov __D0rotate, __rotate_7qG2_mode_7qG2_000
62	192	22	#line 192 "C:\Users\ken\Desktop\C85\pfilter prob.nxc"
62	193	22		mov __signed_stack_002rotate, __D0rotate
62	192	24	#line 192 "C:\Users\ken\Desktop\C85\pfilter prob.nxc"
62	193	24		set __D0rotate, 0
62	192	27	#line 192 "C:\Users\ken\Desktop\C85\pfilter prob.nxc"
62	193	27		cmp 4, __zfrotate, __signed_stack_002rotate, __D0rotate
62	192	31	#line 192 "C:\Users\ken\Desktop\C85\pfilter prob.nxc"
62	193	31		mov __D0rotate, __zfrotate
62	193	34	#line 193 "C:\Users\ken\Desktop\C85\pfilter prob.nxc"
62	194	34		and __D0rotate, __signed_stack_001rotate, __D0rotate
62	193	38	#line 193 "C:\Users\ken\Desktop\C85\pfilter prob.nxc"
62	194	38		tst 5, __zfrotate, __D0rotate
62	193	41	#line 193 "C:\Users\ken\Desktop\C85\pfilter prob.nxc"
62	194	41		brtst 4, __NXC_Label_677, __zfrotate
62	193	44	#line 193 "C:\Users\ken\Desktop\C85\pfilter prob.nxc"
62	194	44		mov __D0rotate, __rotate_7qG2_degrees_7qG2_000
62	193	46	#line 193 "C:\Users\ken\Desktop\C85\pfilter prob.nxc"
62	194	46		mov __signed_stack_001rotate, __D0rotate
62	193	48	#line 193 "C:\Users\ken\Desktop\C85\pfilter prob.nxc"
62	194	48		mov __DF0rotate, __constValf0P85935
62	193	50	#line 193 "C:\Users\ken\Desktop\C85\pfilter prob.nxc"
62	194	50		mul __DF0rotate, __signed_stack_001rotate, __DF0rotate
62	193	54	#line 193 "C:\Users\ken\Desktop\C85\pfilter prob.nxc"
62	194	54		mov __drive_7qG2_distance_7qG2_000, __DF0rotate
62	193	56	#line 193 "C:\Users\ken\Desktop\C85\pfilter prob.nxc"
62	194	56		mov __DF0rotate, __constVal0
62	193	59	#line 193 "C:\Users\ken\Desktop\C85\pfilter prob.nxc"
62	194	59		mov __float_stack_001rotate, __DF0rotate
62	193	61	#line 193 "C:\Users\ken\Desktop\C85\pfilter prob.nxc"
62	194	61		mov __DF0rotate, __constVal1
62	193	64	#line 193 "C:\Users\ken\Desktop\C85\pfilter prob.nxc"
62	194	64		sub __DF0rotate, __float_stack_001rotate, __DF0rotate
62	193	68	#line 193 "C:\Users\ken\Desktop\C85\pfilter prob.nxc"
62	194	68		mov __drive_7qG2_left_7qG2_000, __DF0rotate
62	193	71	#line 193 "C:\Users\ken\Desktop\C85\pfilter prob.nxc"
62	194	71		mov __DF0rotate, __constVal1
62	193	74	#line 193 "C:\Users\ken\Desktop\C85\pfilter prob.nxc"
62	194	74		mov __drive_7qG2_right_7qG2_000, __DF0rotate
62	193	77	#line 193 "C:\Users\ken\Desktop\C85\pfilter prob.nxc"
62	194	77		mov __DF0rotate, __constVal1
62	193	80	#line 193 "C:\Users\ken\Desktop\C85\pfilter prob.nxc"
62	194	80		mov __drive_7qG2_brake_7qG2_000, __DF0rotate
62	196	83	#line 196 "C:\Users\ken\Desktop\C85\pfilter prob.nxc"
62	197	83		subcall drive, __drive_return
62	196	86	#line 196 "C:\Users\ken\Desktop\C85\pfilter prob.nxc"
62	196	86	#line 196 "C:\Users\ken\Desktop\C85\pfilter prob.nxc"
62	197	86		jmp __NXC_Label_686
62	196	88	#line 196 "C:\Users\ken\Desktop\C85\pfilter prob.nxc"
62	197	88		mov __D0rotate, __rotate_7qG2_degrees_7qG2_000
62	196	90	#line 196 "C:\Users\ken\Desktop\C85\pfilter prob.nxc"
62	197	90		mov __signed_stack_001rotate, __D0rotate
62	196	92	#line 196 "C:\Users\ken\Desktop\C85\pfilter prob.nxc"
62	197	92		set __D0rotate, 0
62	196	95	#line 196 "C:\Users\ken\Desktop\C85\pfilter prob.nxc"
62	197	95		cmp 0, __zfrotate, __signed_stack_001rotate, __D0rotate
62	196	99	#line 196 "C:\Users\ken\Desktop\C85\pfilter prob.nxc"
62	197	99		mov __D0rotate, __zfrotate
62	196	102	#line 196 "C:\Users\ken\Desktop\C85\pfilter prob.nxc"
62	197	102		brtst 4, __NXC_Label_688, __zfrotate
62	196	105	#line 196 "C:\Users\ken\Desktop\C85\pfilter prob.nxc"
62	197	105		mov __signed_stack_001rotate, __D0rotate
62	196	107	#line 196 "C:\Users\ken\Desktop\C85\pfilter prob.nxc"
62	197	107		mov __D0rotate, __rotate_7qG2_mode_7qG2_000
62	196	110	#line 196 "C:\Users\ken\Desktop\C85\pfilter prob.nxc"
62	197	110		mov __signed_stack_002rotate, __D0rotate
62	196	112	#line 196 "C:\Users\ken\Desktop\C85\pfilter prob.nxc"
62	197	112		set __D0rotate, 0
62	196	115	#line 196 "C:\Users\ken\Desktop\C85\pfilter prob.nxc"
62	197	115		cmp 4, __zfrotate, __signed_stack_002rotate, __D0rotate
62	196	119	#line 196 "C:\Users\ken\Desktop\C85\pfilter prob.nxc"
62	197	119		mov __D0rotate, __zfrotate
62	197	122	#line 197 "C:\Users\ken\Desktop\C85\pfilter prob.nxc"
62	198	122		and __D0rotate, __signed_stack_001rotate, __D0rotate
62	197	126	#line 197 "C:\Users\ken\Desktop\C85\pfilter prob.nxc"
62	198	126		tst 5, __zfrotate, __D0rotate
62	197	129	#line 197 "C:\Users\ken\Desktop\C85\pfilter prob.nxc"
62	198	129		brtst 4, __NXC_Label_693, __zfrotate
62	197	132	#line 197 "C:\Users\ken\Desktop\C85\pfilter prob.nxc"
62	198	132		mov __D0rotate, __rotate_7qG2_degrees_7qG2_000
62	197	134	#line 197 "C:\Users\ken\Desktop\C85\pfilter prob.nxc"
62	198	134		mov __signed_stack_001rotate, __D0rotate
62	197	136	#line 197 "C:\Users\ken\Desktop\C85\pfilter prob.nxc"
62	198	136		mov __DF0rotate, __constValf0P85935
62	197	138	#line 197 "C:\Users\ken\Desktop\C85\pfilter prob.nxc"
62	198	138		mul __DF0rotate, __signed_stack_001rotate, __DF0rotate
62	197	142	#line 197 "C:\Users\ken\Desktop\C85\pfilter prob.nxc"
62	198	142		mov __drive_7qG2_distance_7qG2_000, __DF0rotate
62	197	144	#line 197 "C:\Users\ken\Desktop\C85\pfilter prob.nxc"
62	198	144		mov __DF0rotate, __constVal1
62	197	147	#line 197 "C:\Users\ken\Desktop\C85\pfilter prob.nxc"
62	198	147		mov __drive_7qG2_left_7qG2_000, __DF0rotate
62	197	150	#line 197 "C:\Users\ken\Desktop\C85\pfilter prob.nxc"
62	198	150		mov __DF0rotate, __constVal0
62	197	153	#line 197 "C:\Users\ken\Desktop\C85\pfilter prob.nxc"
62	198	153		mov __float_stack_001rotate, __DF0rotate
62	197	155	#line 197 "C:\Users\ken\Desktop\C85\pfilter prob.nxc"
62	198	155		mov __DF0rotate, __constVal1
62	197	158	#line 197 "C:\Users\ken\Desktop\C85\pfilter prob.nxc"
62	198	158		sub __DF0rotate, __float_stack_001rotate, __DF0rotate
62	197	162	#line 197 "C:\Users\ken\Desktop\C85\pfilter prob.nxc"
62	198	162		mov __drive_7qG2_right_7qG2_000, __DF0rotate
62	197	165	#line 197 "C:\Users\ken\Desktop\C85\pfilter prob.nxc"
62	198	165		mov __DF0rotate, __constVal1
62	197	168	#line 197 "C:\Users\ken\Desktop\C85\pfilter prob.nxc"
62	198	168		mov __drive_7qG2_brake_7qG2_000, __DF0rotate
62	200	171	#line 200 "C:\Users\ken\Desktop\C85\pfilter prob.nxc"
62	201	171		subcall drive, __drive_return
62	200	174	#line 200 "C:\Users\ken\Desktop\C85\pfilter prob.nxc"
62	200	174	#line 200 "C:\Users\ken\Desktop\C85\pfilter prob.nxc"
62	201	174		jmp __NXC_Label_702
62	200	176	#line 200 "C:\Users\ken\Desktop\C85\pfilter prob.nxc"
62	201	176		mov __D0rotate, __rotate_7qG2_degrees_7qG2_000
62	200	178	#line 200 "C:\Users\ken\Desktop\C85\pfilter prob.nxc"
62	201	178		mov __signed_stack_001rotate, __D0rotate
62	200	180	#line 200 "C:\Users\ken\Desktop\C85\pfilter prob.nxc"
62	201	180		set __D0rotate, 0
62	200	183	#line 200 "C:\Users\ken\Desktop\C85\pfilter prob.nxc"
62	201	183		cmp 1, __zfrotate, __signed_stack_001rotate, __D0rotate
62	200	187	#line 200 "C:\Users\ken\Desktop\C85\pfilter prob.nxc"
62	201	187		mov __D0rotate, __zfrotate
62	200	190	#line 200 "C:\Users\ken\Desktop\C85\pfilter prob.nxc"
62	201	190		brtst 4, __NXC_Label_704, __zfrotate
62	200	193	#line 200 "C:\Users\ken\Desktop\C85\pfilter prob.nxc"
62	201	193		mov __signed_stack_001rotate, __D0rotate
62	200	195	#line 200 "C:\Users\ken\Desktop\C85\pfilter prob.nxc"
62	201	195		mov __D0rotate, __rotate_7qG2_mode_7qG2_000
62	200	198	#line 200 "C:\Users\ken\Desktop\C85\pfilter prob.nxc"
62	201	198		mov __signed_stack_002rotate, __D0rotate
62	200	200	#line 200 "C:\Users\ken\Desktop\C85\pfilter prob.nxc"
62	201	200		set __D0rotate, 1
62	200	203	#line 200 "C:\Users\ken\Desktop\C85\pfilter prob.nxc"
62	201	203		cmp 4, __zfrotate, __signed_stack_002rotate, __D0rotate
62	200	207	#line 200 "C:\Users\ken\Desktop\C85\pfilter prob.nxc"
62	201	207		mov __D0rotate, __zfrotate
62	201	210	#line 201 "C:\Users\ken\Desktop\C85\pfilter prob.nxc"
62	202	210		and __D0rotate, __signed_stack_001rotate, __D0rotate
62	201	214	#line 201 "C:\Users\ken\Desktop\C85\pfilter prob.nxc"
62	202	214		tst 5, __zfrotate, __D0rotate
62	201	217	#line 201 "C:\Users\ken\Desktop\C85\pfilter prob.nxc"
62	202	217		brtst 4, __NXC_Label_709, __zfrotate
62	201	220	#line 201 "C:\Users\ken\Desktop\C85\pfilter prob.nxc"
62	202	220		mov __D0rotate, __rotate_7qG2_degrees_7qG2_000
62	201	222	#line 201 "C:\Users\ken\Desktop\C85\pfilter prob.nxc"
62	202	222		mov __signed_stack_001rotate, __D0rotate
62	201	224	#line 201 "C:\Users\ken\Desktop\C85\pfilter prob.nxc"
62	202	224		mov __DF0rotate, __constValf1P5271
62	201	226	#line 201 "C:\Users\ken\Desktop\C85\pfilter prob.nxc"
62	202	226		mul __DF0rotate, __signed_stack_001rotate, __DF0rotate
62	201	230	#line 201 "C:\Users\ken\Desktop\C85\pfilter prob.nxc"
62	202	230		mov __drive_7qG2_distance_7qG2_000, __DF0rotate
62	201	232	#line 201 "C:\Users\ken\Desktop\C85\pfilter prob.nxc"
62	202	232		mov __DF0rotate, __constVal0
62	201	235	#line 201 "C:\Users\ken\Desktop\C85\pfilter prob.nxc"
62	202	235		mov __drive_7qG2_left_7qG2_000, __DF0rotate
62	201	238	#line 201 "C:\Users\ken\Desktop\C85\pfilter prob.nxc"
62	202	238		mov __DF0rotate, __constVal1
62	201	241	#line 201 "C:\Users\ken\Desktop\C85\pfilter prob.nxc"
62	202	241		mov __drive_7qG2_right_7qG2_000, __DF0rotate
62	201	244	#line 201 "C:\Users\ken\Desktop\C85\pfilter prob.nxc"
62	202	244		mov __DF0rotate, __constVal1
62	201	247	#line 201 "C:\Users\ken\Desktop\C85\pfilter prob.nxc"
62	202	247		mov __drive_7qG2_brake_7qG2_000, __DF0rotate
62	204	250	#line 204 "C:\Users\ken\Desktop\C85\pfilter prob.nxc"
62	205	250		subcall drive, __drive_return
62	204	253	#line 204 "C:\Users\ken\Desktop\C85\pfilter prob.nxc"
62	204	253	#line 204 "C:\Users\ken\Desktop\C85\pfilter prob.nxc"
62	205	253		jmp __NXC_Label_718
62	204	255	#line 204 "C:\Users\ken\Desktop\C85\pfilter prob.nxc"
62	205	255		mov __D0rotate, __rotate_7qG2_degrees_7qG2_000
62	204	257	#line 204 "C:\Users\ken\Desktop\C85\pfilter prob.nxc"
62	205	257		mov __signed_stack_001rotate, __D0rotate
62	204	259	#line 204 "C:\Users\ken\Desktop\C85\pfilter prob.nxc"
62	205	259		set __D0rotate, 0
62	204	262	#line 204 "C:\Users\ken\Desktop\C85\pfilter prob.nxc"
62	205	262		cmp 0, __zfrotate, __signed_stack_001rotate, __D0rotate
62	204	266	#line 204 "C:\Users\ken\Desktop\C85\pfilter prob.nxc"
62	205	266		mov __D0rotate, __zfrotate
62	204	269	#line 204 "C:\Users\ken\Desktop\C85\pfilter prob.nxc"
62	205	269		brtst 4, __NXC_Label_720, __zfrotate
62	204	272	#line 204 "C:\Users\ken\Desktop\C85\pfilter prob.nxc"
62	205	272		mov __signed_stack_001rotate, __D0rotate
62	204	274	#line 204 "C:\Users\ken\Desktop\C85\pfilter prob.nxc"
62	205	274		mov __D0rotate, __rotate_7qG2_mode_7qG2_000
62	204	277	#line 204 "C:\Users\ken\Desktop\C85\pfilter prob.nxc"
62	205	277		mov __signed_stack_002rotate, __D0rotate
62	204	279	#line 204 "C:\Users\ken\Desktop\C85\pfilter prob.nxc"
62	205	279		set __D0rotate, 1
62	204	282	#line 204 "C:\Users\ken\Desktop\C85\pfilter prob.nxc"
62	205	282		cmp 4, __zfrotate, __signed_stack_002rotate, __D0rotate
62	204	286	#line 204 "C:\Users\ken\Desktop\C85\pfilter prob.nxc"
62	205	286		mov __D0rotate, __zfrotate
62	205	289	#line 205 "C:\Users\ken\Desktop\C85\pfilter prob.nxc"
62	206	289		and __D0rotate, __signed_stack_001rotate, __D0rotate
62	205	293	#line 205 "C:\Users\ken\Desktop\C85\pfilter prob.nxc"
62	206	293		tst 5, __zfrotate, __D0rotate
62	205	296	#line 205 "C:\Users\ken\Desktop\C85\pfilter prob.nxc"
62	206	296		brtst 4, __NXC_Label_725, __zfrotate
62	205	299	#line 205 "C:\Users\ken\Desktop\C85\pfilter prob.nxc"
62	206	299		set __D0rotate, 0
62	205	302	#line 205 "C:\Users\ken\Desktop\C85\pfilter prob.nxc"
62	206	302		mov __signed_stack_001rotate, __D0rotate
62	205	304	#line 205 "C:\Users\ken\Desktop\C85\pfilter prob.nxc"
62	206	304		set __D0rotate, 1
62	205	307	#line 205 "C:\Users\ken\Desktop\C85\pfilter prob.nxc"
62	206	307		sub __D0rotate, __signed_stack_001rotate, __D0rotate
62	205	311	#line 205 "C:\Users\ken\Desktop\C85\pfilter prob.nxc"
62	206	311		mov __signed_stack_001rotate, __D0rotate
62	205	313	#line 205 "C:\Users\ken\Desktop\C85\pfilter prob.nxc"
62	206	313		mov __D0rotate, __rotate_7qG2_degrees_7qG2_000
62	205	315	#line 205 "C:\Users\ken\Desktop\C85\pfilter prob.nxc"
62	206	315		mul __D0rotate, __signed_stack_001rotate, __D0rotate
62	205	319	#line 205 "C:\Users\ken\Desktop\C85\pfilter prob.nxc"
62	206	319		mov __signed_stack_001rotate, __D0rotate
62	205	321	#line 205 "C:\Users\ken\Desktop\C85\pfilter prob.nxc"
62	206	321		mov __DF0rotate, __constValf1P5271
62	205	323	#line 205 "C:\Users\ken\Desktop\C85\pfilter prob.nxc"
62	206	323		mul __DF0rotate, __signed_stack_001rotate, __DF0rotate
62	205	327	#line 205 "C:\Users\ken\Desktop\C85\pfilter prob.nxc"
62	206	327		mov __drive_7qG2_distance_7qG2_000, __DF0rotate
62	205	329	#line 205 "C:\Users\ken\Desktop\C85\pfilter prob.nxc"
62	206	329		mov __DF0rotate, __constVal1
62	205	332	#line 205 "C:\Users\ken\Desktop\C85\pfilter prob.nxc"
62	206	332		mov __drive_7qG2_left_7qG2_000, __DF0rotate
62	205	335	#line 205 "C:\Users\ken\Desktop\C85\pfilter prob.nxc"
62	206	335		mov __DF0rotate, __constVal0
62	205	338	#line 205 "C:\Users\ken\Desktop\C85\pfilter prob.nxc"
62	206	338		mov __drive_7qG2_right_7qG2_000, __DF0rotate
62	205	341	#line 205 "C:\Users\ken\Desktop\C85\pfilter prob.nxc"
62	206	341		mov __DF0rotate, __constVal1
62	205	344	#line 205 "C:\Users\ken\Desktop\C85\pfilter prob.nxc"
62	206	344		mov __drive_7qG2_brake_7qG2_000, __DF0rotate
62	208	347	#line 208 "C:\Users\ken\Desktop\C85\pfilter prob.nxc"
62	209	347		subcall drive, __drive_return
62	208	350	#line 208 "C:\Users\ken\Desktop\C85\pfilter prob.nxc"
62	208	350	#line 208 "C:\Users\ken\Desktop\C85\pfilter prob.nxc"
62	209	350		jmp __NXC_Label_736
62	208	352	#line 208 "C:\Users\ken\Desktop\C85\pfilter prob.nxc"
62	209	352		mov __D0rotate, __rotate_7qG2_degrees_7qG2_000
62	208	354	#line 208 "C:\Users\ken\Desktop\C85\pfilter prob.nxc"
62	209	354		mov __signed_stack_001rotate, __D0rotate
62	208	356	#line 208 "C:\Users\ken\Desktop\C85\pfilter prob.nxc"
62	209	356		set __D0rotate, 0
62	208	359	#line 208 "C:\Users\ken\Desktop\C85\pfilter prob.nxc"
62	209	359		cmp 1, __zfrotate, __signed_stack_001rotate, __D0rotate
62	208	363	#line 208 "C:\Users\ken\Desktop\C85\pfilter prob.nxc"
62	209	363		mov __D0rotate, __zfrotate
62	208	366	#line 208 "C:\Users\ken\Desktop\C85\pfilter prob.nxc"
62	209	366		brtst 4, __NXC_Label_738, __zfrotate
62	208	369	#line 208 "C:\Users\ken\Desktop\C85\pfilter prob.nxc"
62	209	369		mov __signed_stack_001rotate, __D0rotate
62	208	371	#line 208 "C:\Users\ken\Desktop\C85\pfilter prob.nxc"
62	209	371		mov __D0rotate, __rotate_7qG2_mode_7qG2_000
62	208	374	#line 208 "C:\Users\ken\Desktop\C85\pfilter prob.nxc"
62	209	374		mov __signed_stack_002rotate, __D0rotate
62	208	376	#line 208 "C:\Users\ken\Desktop\C85\pfilter prob.nxc"
62	209	376		set __D0rotate, 0
62	208	379	#line 208 "C:\Users\ken\Desktop\C85\pfilter prob.nxc"
62	209	379		mov __signed_stack_003rotate, __D0rotate
62	208	381	#line 208 "C:\Users\ken\Desktop\C85\pfilter prob.nxc"
62	209	381		set __D0rotate, 1
62	208	384	#line 208 "C:\Users\ken\Desktop\C85\pfilter prob.nxc"
62	209	384		sub __D0rotate, __signed_stack_003rotate, __D0rotate
62	208	388	#line 208 "C:\Users\ken\Desktop\C85\pfilter prob.nxc"
62	209	388		cmp 4, __zfrotate, __signed_stack_002rotate, __D0rotate
62	208	392	#line 208 "C:\Users\ken\Desktop\C85\pfilter prob.nxc"
62	209	392		mov __D0rotate, __zfrotate
62	209	395	#line 209 "C:\Users\ken\Desktop\C85\pfilter prob.nxc"
62	210	395		and __D0rotate, __signed_stack_001rotate, __D0rotate
62	209	399	#line 209 "C:\Users\ken\Desktop\C85\pfilter prob.nxc"
62	210	399		tst 5, __zfrotate, __D0rotate
62	209	402	#line 209 "C:\Users\ken\Desktop\C85\pfilter prob.nxc"
62	210	402		brtst 4, __NXC_Label_743, __zfrotate
62	209	405	#line 209 "C:\Users\ken\Desktop\C85\pfilter prob.nxc"
62	210	405		mov __D0rotate, __rotate_7qG2_degrees_7qG2_000
62	209	407	#line 209 "C:\Users\ken\Desktop\C85\pfilter prob.nxc"
62	210	407		mov __signed_stack_001rotate, __D0rotate
62	209	409	#line 209 "C:\Users\ken\Desktop\C85\pfilter prob.nxc"
62	210	409		mov __DF0rotate, __constValf1P5271
62	209	411	#line 209 "C:\Users\ken\Desktop\C85\pfilter prob.nxc"
62	210	411		mul __DF0rotate, __signed_stack_001rotate, __DF0rotate
62	209	415	#line 209 "C:\Users\ken\Desktop\C85\pfilter prob.nxc"
62	210	415		mov __drive_7qG2_distance_7qG2_000, __DF0rotate
62	209	417	#line 209 "C:\Users\ken\Desktop\C85\pfilter prob.nxc"
62	210	417		mov __DF0rotate, __constVal0
62	209	420	#line 209 "C:\Users\ken\Desktop\C85\pfilter prob.nxc"
62	210	420		mov __float_stack_001rotate, __DF0rotate
62	209	422	#line 209 "C:\Users\ken\Desktop\C85\pfilter prob.nxc"
62	210	422		mov __DF0rotate, __constVal1
62	209	425	#line 209 "C:\Users\ken\Desktop\C85\pfilter prob.nxc"
62	210	425		sub __DF0rotate, __float_stack_001rotate, __DF0rotate
62	209	429	#line 209 "C:\Users\ken\Desktop\C85\pfilter prob.nxc"
62	210	429		mov __drive_7qG2_left_7qG2_000, __DF0rotate
62	209	432	#line 209 "C:\Users\ken\Desktop\C85\pfilter prob.nxc"
62	210	432		mov __DF0rotate, __constVal0
62	209	435	#line 209 "C:\Users\ken\Desktop\C85\pfilter prob.nxc"
62	210	435		mov __drive_7qG2_right_7qG2_000, __DF0rotate
62	209	438	#line 209 "C:\Users\ken\Desktop\C85\pfilter prob.nxc"
62	210	438		mov __DF0rotate, __constVal1
62	209	441	#line 209 "C:\Users\ken\Desktop\C85\pfilter prob.nxc"
62	210	441		mov __drive_7qG2_brake_7qG2_000, __DF0rotate
62	212	444	#line 212 "C:\Users\ken\Desktop\C85\pfilter prob.nxc"
62	213	444		subcall drive, __drive_return
62	212	447	#line 212 "C:\Users\ken\Desktop\C85\pfilter prob.nxc"
62	212	447	#line 212 "C:\Users\ken\Desktop\C85\pfilter prob.nxc"
62	213	447		jmp __NXC_Label_752
62	212	449	#line 212 "C:\Users\ken\Desktop\C85\pfilter prob.nxc"
62	213	449		mov __D0rotate, __rotate_7qG2_degrees_7qG2_000
62	212	451	#line 212 "C:\Users\ken\Desktop\C85\pfilter prob.nxc"
62	213	451		mov __signed_stack_001rotate, __D0rotate
62	212	453	#line 212 "C:\Users\ken\Desktop\C85\pfilter prob.nxc"
62	213	453		set __D0rotate, 0
62	212	456	#line 212 "C:\Users\ken\Desktop\C85\pfilter prob.nxc"
62	213	456		cmp 0, __zfrotate, __signed_stack_001rotate, __D0rotate
62	212	460	#line 212 "C:\Users\ken\Desktop\C85\pfilter prob.nxc"
62	213	460		mov __D0rotate, __zfrotate
62	212	463	#line 212 "C:\Users\ken\Desktop\C85\pfilter prob.nxc"
62	213	463		brtst 4, __NXC_Label_754, __zfrotate
62	212	466	#line 212 "C:\Users\ken\Desktop\C85\pfilter prob.nxc"
62	213	466		mov __signed_stack_001rotate, __D0rotate
62	212	468	#line 212 "C:\Users\ken\Desktop\C85\pfilter prob.nxc"
62	213	468		mov __D0rotate, __rotate_7qG2_mode_7qG2_000
62	212	471	#line 212 "C:\Users\ken\Desktop\C85\pfilter prob.nxc"
62	213	471		mov __signed_stack_002rotate, __D0rotate
62	212	473	#line 212 "C:\Users\ken\Desktop\C85\pfilter prob.nxc"
62	213	473		set __D0rotate, 0
62	212	476	#line 212 "C:\Users\ken\Desktop\C85\pfilter prob.nxc"
62	213	476		mov __signed_stack_003rotate, __D0rotate
62	212	478	#line 212 "C:\Users\ken\Desktop\C85\pfilter prob.nxc"
62	213	478		set __D0rotate, 1
62	212	481	#line 212 "C:\Users\ken\Desktop\C85\pfilter prob.nxc"
62	213	481		sub __D0rotate, __signed_stack_003rotate, __D0rotate
62	212	485	#line 212 "C:\Users\ken\Desktop\C85\pfilter prob.nxc"
62	213	485		cmp 4, __zfrotate, __signed_stack_002rotate, __D0rotate
62	212	489	#line 212 "C:\Users\ken\Desktop\C85\pfilter prob.nxc"
62	213	489		mov __D0rotate, __zfrotate
62	213	492	#line 213 "C:\Users\ken\Desktop\C85\pfilter prob.nxc"
62	214	492		and __D0rotate, __signed_stack_001rotate, __D0rotate
62	213	496	#line 213 "C:\Users\ken\Desktop\C85\pfilter prob.nxc"
62	214	496		tst 5, __zfrotate, __D0rotate
62	213	499	#line 213 "C:\Users\ken\Desktop\C85\pfilter prob.nxc"
62	214	499		brtst 4, __NXC_Label_759, __zfrotate
62	213	502	#line 213 "C:\Users\ken\Desktop\C85\pfilter prob.nxc"
62	214	502		set __D0rotate, 0
62	213	505	#line 213 "C:\Users\ken\Desktop\C85\pfilter prob.nxc"
62	214	505		mov __signed_stack_001rotate, __D0rotate
62	213	507	#line 213 "C:\Users\ken\Desktop\C85\pfilter prob.nxc"
62	214	507		set __D0rotate, 1
62	213	510	#line 213 "C:\Users\ken\Desktop\C85\pfilter prob.nxc"
62	214	510		sub __D0rotate, __signed_stack_001rotate, __D0rotate
62	213	514	#line 213 "C:\Users\ken\Desktop\C85\pfilter prob.nxc"
62	214	514		mov __signed_stack_001rotate, __D0rotate
62	213	516	#line 213 "C:\Users\ken\Desktop\C85\pfilter prob.nxc"
62	214	516		mov __D0rotate, __rotate_7qG2_degrees_7qG2_000
62	213	518	#line 213 "C:\Users\ken\Desktop\C85\pfilter prob.nxc"
62	214	518		mul __D0rotate, __signed_stack_001rotate, __D0rotate
62	213	522	#line 213 "C:\Users\ken\Desktop\C85\pfilter prob.nxc"
62	214	522		mov __signed_stack_001rotate, __D0rotate
62	213	524	#line 213 "C:\Users\ken\Desktop\C85\pfilter prob.nxc"
62	214	524		mov __DF0rotate, __constValf1P5271
62	213	526	#line 213 "C:\Users\ken\Desktop\C85\pfilter prob.nxc"
62	214	526		mul __DF0rotate, __signed_stack_001rotate, __DF0rotate
62	213	530	#line 213 "C:\Users\ken\Desktop\C85\pfilter prob.nxc"
62	214	530		mov __drive_7qG2_distance_7qG2_000, __DF0rotate
62	213	532	#line 213 "C:\Users\ken\Desktop\C85\pfilter prob.nxc"
62	214	532		mov __DF0rotate, __constVal0
62	213	535	#line 213 "C:\Users\ken\Desktop\C85\pfilter prob.nxc"
62	214	535		mov __drive_7qG2_left_7qG2_000, __DF0rotate
62	213	538	#line 213 "C:\Users\ken\Desktop\C85\pfilter prob.nxc"
62	214	538		mov __DF0rotate, __constVal0
62	213	541	#line 213 "C:\Users\ken\Desktop\C85\pfilter prob.nxc"
62	214	541		mov __float_stack_001rotate, __DF0rotate
62	213	543	#line 213 "C:\Users\ken\Desktop\C85\pfilter prob.nxc"
62	214	543		mov __DF0rotate, __constVal1
62	213	546	#line 213 "C:\Users\ken\Desktop\C85\pfilter prob.nxc"
62	214	546		sub __DF0rotate, __float_stack_001rotate, __DF0rotate
62	213	550	#line 213 "C:\Users\ken\Desktop\C85\pfilter prob.nxc"
62	214	550		mov __drive_7qG2_right_7qG2_000, __DF0rotate
62	213	553	#line 213 "C:\Users\ken\Desktop\C85\pfilter prob.nxc"
62	214	553		mov __DF0rotate, __constVal1
62	213	556	#line 213 "C:\Users\ken\Desktop\C85\pfilter prob.nxc"
62	214	556		mov __drive_7qG2_brake_7qG2_000, __DF0rotate
62	216	559	#line 216 "C:\Users\ken\Desktop\C85\pfilter prob.nxc"
62	217	559		subcall drive, __drive_return
62	216	562	#line 216 "C:\Users\ken\Desktop\C85\pfilter prob.nxc"
62	216	562	#line 216 "C:\Users\ken\Desktop\C85\pfilter prob.nxc"
62	216	562	#line 216 "C:\Users\ken\Desktop\C85\pfilter prob.nxc"
62	216	562	#line 216 "C:\Users\ken\Desktop\C85\pfilter prob.nxc"
62	216	562	#line 216 "C:\Users\ken\Desktop\C85\pfilter prob.nxc"
62	216	562	#line 216 "C:\Users\ken\Desktop\C85\pfilter prob.nxc"
62	216	562	#line 216 "C:\Users\ken\Desktop\C85\pfilter prob.nxc"
62	216	562	#line 216 "C:\Users\ken\Desktop\C85\pfilter prob.nxc"
62	217	562		set __D0rotate, 2
62	216	565	#line 216 "C:\Users\ken\Desktop\C85\pfilter prob.nxc"
62	217	565		mov __Wait_7qG2_ms_7qG2_000_inline_rotate, __D0rotate
62	7921	567	#line 7921 "NXCDefs.h"
62	7922	567		wait2 NA, __Wait_7qG2_ms_7qG2_000_inline_rotate
62	7921	570	#line 7921 "NXCDefs.h"
62	217	570	#line 217 "C:\Users\ken\Desktop\C85\pfilter prob.nxc"
62	219	570	#line 219 "C:\Users\ken\Desktop\C85\pfilter prob.nxc"
62	220	570		subret __rotate_return
63	221	0	#line 221 "C:\Users\ken\Desktop\C85\pfilter prob.nxc"
63	222	0		subcall colour, __colour_return
63	221	3	#line 221 "C:\Users\ken\Desktop\C85\pfilter prob.nxc"
63	222	3		mov __D0measure, __D0colour
63	221	5	#line 221 "C:\Users\ken\Desktop\C85\pfilter prob.nxc"
63	222	5		mov __measure_7qG2_initial_7qG2_000, __D0measure
63	222	8	#line 222 "C:\Users\ken\Desktop\C85\pfilter prob.nxc"
63	223	8		mov __D0measure, __measure_7qG2_initial_7qG2_000
63	222	11	#line 222 "C:\Users\ken\Desktop\C85\pfilter prob.nxc"
63	223	11		mov __measure_7qG2_current_7qG2_000, __D0measure
63	224	14	#line 224 "C:\Users\ken\Desktop\C85\pfilter prob.nxc"
63	225	14		set __D0measure, 0
63	224	17	#line 224 "C:\Users\ken\Desktop\C85\pfilter prob.nxc"
63	225	17		mov __measure_7qG2_length_7qG2_000, __D0measure
63	224	20	#line 224 "C:\Users\ken\Desktop\C85\pfilter prob.nxc"
63	225	20		mov __D0measure, __measure_7qG2_initial_7qG2_000
63	224	23	#line 224 "C:\Users\ken\Desktop\C85\pfilter prob.nxc"
63	225	23		mov __signed_stack_001measure, __D0measure
63	224	25	#line 224 "C:\Users\ken\Desktop\C85\pfilter prob.nxc"
63	225	25		mov __D0measure, __measure_7qG2_current_7qG2_000
63	224	28	#line 224 "C:\Users\ken\Desktop\C85\pfilter prob.nxc"
63	225	28		cmp 4, __zfmeasure, __signed_stack_001measure, __D0measure
63	224	32	#line 224 "C:\Users\ken\Desktop\C85\pfilter prob.nxc"
63	225	32		mov __D0measure, __zfmeasure
63	225	35	#line 225 "C:\Users\ken\Desktop\C85\pfilter prob.nxc"
63	226	35		brtst 4, __NXC_Label_779, __zfmeasure
63	225	38	#line 225 "C:\Users\ken\Desktop\C85\pfilter prob.nxc"
63	226	38		mov __D0measure, __measure_7qG2_length_7qG2_000
63	225	41	#line 225 "C:\Users\ken\Desktop\C85\pfilter prob.nxc"
63	226	41		mov __signed_stack_001measure, __D0measure
63	226	43	#line 226 "C:\Users\ken\Desktop\C85\pfilter prob.nxc"
63	227	43		set __D0measure, 5
63	226	46	#line 226 "C:\Users\ken\Desktop\C85\pfilter prob.nxc"
63	227	46		add __D0measure, __signed_stack_001measure, __D0measure
63	226	50	#line 226 "C:\Users\ken\Desktop\C85\pfilter prob.nxc"
63	227	50		mov __measure_7qG2_length_7qG2_000, __D0measure
63	226	53	#line 226 "C:\Users\ken\Desktop\C85\pfilter prob.nxc"
63	227	53	#line 227 "C:\Users\ken\Desktop\C85\pfilter prob.nxc"
63	228	53		subcall colour, __colour_return
63	227	56	#line 227 "C:\Users\ken\Desktop\C85\pfilter prob.nxc"
63	228	56		mov __D0measure, __D0colour
63	227	58	#line 227 "C:\Users\ken\Desktop\C85\pfilter prob.nxc"
63	228	58		mov __measure_7qG2_current_7qG2_000, __D0measure
63	227	61	#line 227 "C:\Users\ken\Desktop\C85\pfilter prob.nxc"
63	227	61	#line 227 "C:\Users\ken\Desktop\C85\pfilter prob.nxc"
63	228	61		set __D0measure, 5
63	227	64	#line 227 "C:\Users\ken\Desktop\C85\pfilter prob.nxc"
63	228	64		mov __drive_7qG2_distance_7qG2_000, __D0measure
63	227	66	#line 227 "C:\Users\ken\Desktop\C85\pfilter prob.nxc"
63	228	66		set __D0measure, 1
63	227	69	#line 227 "C:\Users\ken\Desktop\C85\pfilter prob.nxc"
63	228	69		mov __drive_7qG2_left_7qG2_000, __D0measure
63	227	72	#line 227 "C:\Users\ken\Desktop\C85\pfilter prob.nxc"
63	228	72		set __D0measure, 1
63	227	75	#line 227 "C:\Users\ken\Desktop\C85\pfilter prob.nxc"
63	228	75		mov __drive_7qG2_right_7qG2_000, __D0measure
63	227	78	#line 227 "C:\Users\ken\Desktop\C85\pfilter prob.nxc"
63	228	78		set __D0measure, 0
63	227	81	#line 227 "C:\Users\ken\Desktop\C85\pfilter prob.nxc"
63	228	81		mov __drive_7qG2_brake_7qG2_000, __D0measure
63	228	84	#line 228 "C:\Users\ken\Desktop\C85\pfilter prob.nxc"
63	229	84		subcall drive, __drive_return
63	228	87	#line 228 "C:\Users\ken\Desktop\C85\pfilter prob.nxc"
63	231	87	#line 231 "C:\Users\ken\Desktop\C85\pfilter prob.nxc"
63	232	87		jmp __NXC_Label_778
63	231	89	#line 231 "C:\Users\ken\Desktop\C85\pfilter prob.nxc"
63	231	89	#line 231 "C:\Users\ken\Desktop\C85\pfilter prob.nxc"
63	232	89		mov __DU0measure, __measure_7qG2_backtrack_7qG2_000
63	231	92	#line 231 "C:\Users\ken\Desktop\C85\pfilter prob.nxc"
63	232	92		tst 5, __zfmeasure, __DU0measure
63	231	95	#line 231 "C:\Users\ken\Desktop\C85\pfilter prob.nxc"
63	232	95		brtst 4, __NXC_Label_796, __zfmeasure
63	231	98	#line 231 "C:\Users\ken\Desktop\C85\pfilter prob.nxc"
63	232	98		set __D0measure, 0
63	231	101	#line 231 "C:\Users\ken\Desktop\C85\pfilter prob.nxc"
63	232	101		mov __signed_stack_001measure, __D0measure
63	231	103	#line 231 "C:\Users\ken\Desktop\C85\pfilter prob.nxc"
63	232	103		set __D0measure, 1
63	231	106	#line 231 "C:\Users\ken\Desktop\C85\pfilter prob.nxc"
63	232	106		mov __signed_stack_002measure, __D0measure
63	231	108	#line 231 "C:\Users\ken\Desktop\C85\pfilter prob.nxc"
63	232	108		mov __D0measure, __measure_7qG2_length_7qG2_000
63	231	111	#line 231 "C:\Users\ken\Desktop\C85\pfilter prob.nxc"
63	232	111		mul __D0measure, __signed_stack_002measure, __D0measure
63	231	115	#line 231 "C:\Users\ken\Desktop\C85\pfilter prob.nxc"
63	232	115		sub __D0measure, __signed_stack_001measure, __D0measure
63	231	119	#line 231 "C:\Users\ken\Desktop\C85\pfilter prob.nxc"
63	232	119		mov __drive_7qG2_distance_7qG2_000, __D0measure
63	231	121	#line 231 "C:\Users\ken\Desktop\C85\pfilter prob.nxc"
63	232	121		set __D0measure, 1
63	231	124	#line 231 "C:\Users\ken\Desktop\C85\pfilter prob.nxc"
63	232	124		mov __drive_7qG2_left_7qG2_000, __D0measure
63	231	127	#line 231 "C:\Users\ken\Desktop\C85\pfilter prob.nxc"
63	232	127		set __D0measure, 1
63	231	130	#line 231 "C:\Users\ken\Desktop\C85\pfilter prob.nxc"
63	232	130		mov __drive_7qG2_right_7qG2_000, __D0measure
63	231	133	#line 231 "C:\Users\ken\Desktop\C85\pfilter prob.nxc"
63	232	133		set __D0measure, 1
63	231	136	#line 231 "C:\Users\ken\Desktop\C85\pfilter prob.nxc"
63	232	136		mov __drive_7qG2_brake_7qG2_000, __D0measure
63	232	139	#line 232 "C:\Users\ken\Desktop\C85\pfilter prob.nxc"
63	233	139		subcall drive, __drive_return
63	232	142	#line 232 "C:\Users\ken\Desktop\C85\pfilter prob.nxc"
63	232	142	#line 232 "C:\Users\ken\Desktop\C85\pfilter prob.nxc"
63	233	142	#line 233 "C:\Users\ken\Desktop\C85\pfilter prob.nxc"
63	234	142		mov __D0measure, __measure_7qG2_length_7qG2_000
63	233	145	#line 233 "C:\Users\ken\Desktop\C85\pfilter prob.nxc"
63	234	145		subret __measure_return
63	233	147	#line 233 "C:\Users\ken\Desktop\C85\pfilter prob.nxc"
63	241	147	#line 241 "C:\Users\ken\Desktop\C85\pfilter prob.nxc"
63	242	147		subret __measure_return
64	242	0	#line 242 "C:\Users\ken\Desktop\C85\pfilter prob.nxc"
64	243	0		mov __D0from_north_oriented, __from_north_oriented_7qG2_dir_7qG2_000
64	242	3	#line 242 "C:\Users\ken\Desktop\C85\pfilter prob.nxc"
64	243	3		mov __signed_stack_001from_north_oriented, __D0from_north_oriented
64	242	5	#line 242 "C:\Users\ken\Desktop\C85\pfilter prob.nxc"
64	243	5		mov __D0from_north_oriented, __from_north_oriented_7qG2_heading_7qG2_000
64	242	8	#line 242 "C:\Users\ken\Desktop\C85\pfilter prob.nxc"
64	243	8		sub __D0from_north_oriented, __signed_stack_001from_north_oriented, __D0from_north_oriented
64	242	12	#line 242 "C:\Users\ken\Desktop\C85\pfilter prob.nxc"
64	243	12		mov __signed_stack_001from_north_oriented, __D0from_north_oriented
64	242	14	#line 242 "C:\Users\ken\Desktop\C85\pfilter prob.nxc"
64	243	14		set __D0from_north_oriented, 3
64	242	17	#line 242 "C:\Users\ken\Desktop\C85\pfilter prob.nxc"
64	243	17		mod __D0from_north_oriented, __signed_stack_001from_north_oriented, __D0from_north_oriented
64	243	21	#line 243 "C:\Users\ken\Desktop\C85\pfilter prob.nxc"
64	244	21		subret __from_north_oriented_return
64	243	23	#line 243 "C:\Users\ken\Desktop\C85\pfilter prob.nxc"
64	256	23	#line 256 "C:\Users\ken\Desktop\C85\pfilter prob.nxc"
64	257	23		subret __from_north_oriented_return
65	257	0	#line 257 "C:\Users\ken\Desktop\C85\pfilter prob.nxc"
65	258	0		mov __D0sense, __sense_7qG2_dir_7qG2_000
65	257	2	#line 257 "C:\Users\ken\Desktop\C85\pfilter prob.nxc"
65	258	2		mov __from_north_oriented_7qG2_dir_7qG2_000, __D0sense
65	257	4	#line 257 "C:\Users\ken\Desktop\C85\pfilter prob.nxc"
65	258	4		mov __D0sense, __sense_7qG2_heading_7qG2_000
65	257	6	#line 257 "C:\Users\ken\Desktop\C85\pfilter prob.nxc"
65	258	6		mov __from_north_oriented_7qG2_heading_7qG2_000, __D0sense
65	258	8	#line 258 "C:\Users\ken\Desktop\C85\pfilter prob.nxc"
65	259	8		subcall from_north_oriented, __from_north_oriented_return
65	258	11	#line 258 "C:\Users\ken\Desktop\C85\pfilter prob.nxc"
65	259	11		mov __D0sense, __D0from_north_oriented
65	258	13	#line 258 "C:\Users\ken\Desktop\C85\pfilter prob.nxc"
65	259	13		mov __sense_7qG2_actual_dir_7qG2_000, __D0sense
65	261	16	#line 261 "C:\Users\ken\Desktop\C85\pfilter prob.nxc"
65	262	16		mov __D0sense, __sense_7qG2_actual_dir_7qG2_000
65	261	19	#line 261 "C:\Users\ken\Desktop\C85\pfilter prob.nxc"
65	262	19		mov __signed_stack_001sense, __D0sense
65	261	21	#line 261 "C:\Users\ken\Desktop\C85\pfilter prob.nxc"
65	262	21		set __D0sense, 0
65	261	24	#line 261 "C:\Users\ken\Desktop\C85\pfilter prob.nxc"
65	262	24		cmp 4, __zfsense, __signed_stack_001sense, __D0sense
65	261	28	#line 261 "C:\Users\ken\Desktop\C85\pfilter prob.nxc"
65	262	28		mov __D0sense, __zfsense
65	262	31	#line 262 "C:\Users\ken\Desktop\C85\pfilter prob.nxc"
65	263	31		brtst 4, __NXC_Label_821, __zfsense
65	262	34	#line 262 "C:\Users\ken\Desktop\C85\pfilter prob.nxc"
65	263	34		set __D0sense, 0
65	262	37	#line 262 "C:\Users\ken\Desktop\C85\pfilter prob.nxc"
65	263	37		mov __signed_stack_001sense, __D0sense
65	262	39	#line 262 "C:\Users\ken\Desktop\C85\pfilter prob.nxc"
65	263	39		set __D0sense, 90
65	262	42	#line 262 "C:\Users\ken\Desktop\C85\pfilter prob.nxc"
65	263	42		sub __D0sense, __signed_stack_001sense, __D0sense
65	262	46	#line 262 "C:\Users\ken\Desktop\C85\pfilter prob.nxc"
65	263	46		mov __rotate_7qG2_degrees_7qG2_000, __D0sense
65	262	48	#line 262 "C:\Users\ken\Desktop\C85\pfilter prob.nxc"
65	263	48		set __D0sense, 1
65	262	51	#line 262 "C:\Users\ken\Desktop\C85\pfilter prob.nxc"
65	263	51		mov __rotate_7qG2_mode_7qG2_000, __D0sense
65	263	54	#line 263 "C:\Users\ken\Desktop\C85\pfilter prob.nxc"
65	264	54		subcall rotate, __rotate_return
65	263	57	#line 263 "C:\Users\ken\Desktop\C85\pfilter prob.nxc"
65	264	57	#line 264 "C:\Users\ken\Desktop\C85\pfilter prob.nxc"
65	265	57		subcall colour, __colour_return
65	264	60	#line 264 "C:\Users\ken\Desktop\C85\pfilter prob.nxc"
65	265	60		mov __D0sense, __D0colour
65	264	62	#line 264 "C:\Users\ken\Desktop\C85\pfilter prob.nxc"
65	265	62		mov __sense_7qG2_reading_7qG2_000, __D0sense
65	264	65	#line 264 "C:\Users\ken\Desktop\C85\pfilter prob.nxc"
65	264	65	#line 264 "C:\Users\ken\Desktop\C85\pfilter prob.nxc"
65	265	65		set __D0sense, 90
65	264	68	#line 264 "C:\Users\ken\Desktop\C85\pfilter prob.nxc"
65	265	68		mov __rotate_7qG2_degrees_7qG2_000, __D0sense
65	264	70	#line 264 "C:\Users\ken\Desktop\C85\pfilter prob.nxc"
65	265	70		set __D0sense, 0
65	264	73	#line 264 "C:\Users\ken\Desktop\C85\pfilter prob.nxc"
65	265	73		mov __signed_stack_001sense, __D0sense
65	264	75	#line 264 "C:\Users\ken\Desktop\C85\pfilter prob.nxc"
65	265	75		set __D0sense, 1
65	264	78	#line 264 "C:\Users\ken\Desktop\C85\pfilter prob.nxc"
65	265	78		sub __D0sense, __signed_stack_001sense, __D0sense
65	264	82	#line 264 "C:\Users\ken\Desktop\C85\pfilter prob.nxc"
65	265	82		mov __rotate_7qG2_mode_7qG2_000, __D0sense
65	267	85	#line 267 "C:\Users\ken\Desktop\C85\pfilter prob.nxc"
65	268	85		subcall rotate, __rotate_return
65	267	88	#line 267 "C:\Users\ken\Desktop\C85\pfilter prob.nxc"
65	267	88	#line 267 "C:\Users\ken\Desktop\C85\pfilter prob.nxc"
65	268	88		jmp __NXC_Label_832
65	267	90	#line 267 "C:\Users\ken\Desktop\C85\pfilter prob.nxc"
65	268	90		mov __D0sense, __sense_7qG2_actual_dir_7qG2_000
65	267	93	#line 267 "C:\Users\ken\Desktop\C85\pfilter prob.nxc"
65	268	93		mov __signed_stack_001sense, __D0sense
65	267	95	#line 267 "C:\Users\ken\Desktop\C85\pfilter prob.nxc"
65	268	95		set __D0sense, 1
65	267	98	#line 267 "C:\Users\ken\Desktop\C85\pfilter prob.nxc"
65	268	98		cmp 4, __zfsense, __signed_stack_001sense, __D0sense
65	267	102	#line 267 "C:\Users\ken\Desktop\C85\pfilter prob.nxc"
65	268	102		mov __D0sense, __zfsense
65	268	105	#line 268 "C:\Users\ken\Desktop\C85\pfilter prob.nxc"
65	269	105		brtst 4, __NXC_Label_835, __zfsense
65	268	108	#line 268 "C:\Users\ken\Desktop\C85\pfilter prob.nxc"
65	269	108		set __D0sense, 0
65	268	111	#line 268 "C:\Users\ken\Desktop\C85\pfilter prob.nxc"
65	269	111		mov __signed_stack_001sense, __D0sense
65	268	113	#line 268 "C:\Users\ken\Desktop\C85\pfilter prob.nxc"
65	269	113		set __D0sense, 90
65	268	116	#line 268 "C:\Users\ken\Desktop\C85\pfilter prob.nxc"
65	269	116		sub __D0sense, __signed_stack_001sense, __D0sense
65	268	120	#line 268 "C:\Users\ken\Desktop\C85\pfilter prob.nxc"
65	269	120		mov __rotate_7qG2_degrees_7qG2_000, __D0sense
65	268	122	#line 268 "C:\Users\ken\Desktop\C85\pfilter prob.nxc"
65	269	122		set __D0sense, 0
65	268	125	#line 268 "C:\Users\ken\Desktop\C85\pfilter prob.nxc"
65	269	125		mov __signed_stack_001sense, __D0sense
65	268	127	#line 268 "C:\Users\ken\Desktop\C85\pfilter prob.nxc"
65	269	127		set __D0sense, 1
65	268	130	#line 268 "C:\Users\ken\Desktop\C85\pfilter prob.nxc"
65	269	130		sub __D0sense, __signed_stack_001sense, __D0sense
65	268	134	#line 268 "C:\Users\ken\Desktop\C85\pfilter prob.nxc"
65	269	134		mov __rotate_7qG2_mode_7qG2_000, __D0sense
65	269	137	#line 269 "C:\Users\ken\Desktop\C85\pfilter prob.nxc"
65	270	137		subcall rotate, __rotate_return
65	269	140	#line 269 "C:\Users\ken\Desktop\C85\pfilter prob.nxc"
65	270	140	#line 270 "C:\Users\ken\Desktop\C85\pfilter prob.nxc"
65	271	140		subcall colour, __colour_return
65	270	143	#line 270 "C:\Users\ken\Desktop\C85\pfilter prob.nxc"
65	271	143		mov __D0sense, __D0colour
65	270	145	#line 270 "C:\Users\ken\Desktop\C85\pfilter prob.nxc"
65	271	145		mov __sense_7qG2_reading_7qG2_000, __D0sense
65	270	148	#line 270 "C:\Users\ken\Desktop\C85\pfilter prob.nxc"
65	270	148	#line 270 "C:\Users\ken\Desktop\C85\pfilter prob.nxc"
65	271	148		set __D0sense, 90
65	270	151	#line 270 "C:\Users\ken\Desktop\C85\pfilter prob.nxc"
65	271	151		mov __rotate_7qG2_degrees_7qG2_000, __D0sense
65	270	153	#line 270 "C:\Users\ken\Desktop\C85\pfilter prob.nxc"
65	271	153		set __D0sense, 1
65	270	156	#line 270 "C:\Users\ken\Desktop\C85\pfilter prob.nxc"
65	271	156		mov __rotate_7qG2_mode_7qG2_000, __D0sense
65	273	159	#line 273 "C:\Users\ken\Desktop\C85\pfilter prob.nxc"
65	274	159		subcall rotate, __rotate_return
65	273	162	#line 273 "C:\Users\ken\Desktop\C85\pfilter prob.nxc"
65	273	162	#line 273 "C:\Users\ken\Desktop\C85\pfilter prob.nxc"
65	274	162		jmp __NXC_Label_846
65	273	164	#line 273 "C:\Users\ken\Desktop\C85\pfilter prob.nxc"
65	274	164		mov __D0sense, __sense_7qG2_actual_dir_7qG2_000
65	273	167	#line 273 "C:\Users\ken\Desktop\C85\pfilter prob.nxc"
65	274	167		mov __signed_stack_001sense, __D0sense
65	273	169	#line 273 "C:\Users\ken\Desktop\C85\pfilter prob.nxc"
65	274	169		set __D0sense, 2
65	273	172	#line 273 "C:\Users\ken\Desktop\C85\pfilter prob.nxc"
65	274	172		cmp 4, __zfsense, __signed_stack_001sense, __D0sense
65	273	176	#line 273 "C:\Users\ken\Desktop\C85\pfilter prob.nxc"
65	274	176		mov __D0sense, __zfsense
65	274	179	#line 274 "C:\Users\ken\Desktop\C85\pfilter prob.nxc"
65	275	179		brtst 4, __NXC_Label_849, __zfsense
65	274	182	#line 274 "C:\Users\ken\Desktop\C85\pfilter prob.nxc"
65	275	182		set __D0sense, 90
65	274	185	#line 274 "C:\Users\ken\Desktop\C85\pfilter prob.nxc"
65	275	185		mov __rotate_7qG2_degrees_7qG2_000, __D0sense
65	274	187	#line 274 "C:\Users\ken\Desktop\C85\pfilter prob.nxc"
65	275	187		set __D0sense, 0
65	274	190	#line 274 "C:\Users\ken\Desktop\C85\pfilter prob.nxc"
65	275	190		mov __signed_stack_001sense, __D0sense
65	274	192	#line 274 "C:\Users\ken\Desktop\C85\pfilter prob.nxc"
65	275	192		set __D0sense, 1
65	274	195	#line 274 "C:\Users\ken\Desktop\C85\pfilter prob.nxc"
65	275	195		sub __D0sense, __signed_stack_001sense, __D0sense
65	274	199	#line 274 "C:\Users\ken\Desktop\C85\pfilter prob.nxc"
65	275	199		mov __rotate_7qG2_mode_7qG2_000, __D0sense
65	275	202	#line 275 "C:\Users\ken\Desktop\C85\pfilter prob.nxc"
65	276	202		subcall rotate, __rotate_return
65	275	205	#line 275 "C:\Users\ken\Desktop\C85\pfilter prob.nxc"
65	276	205	#line 276 "C:\Users\ken\Desktop\C85\pfilter prob.nxc"
65	277	205		subcall colour, __colour_return
65	276	208	#line 276 "C:\Users\ken\Desktop\C85\pfilter prob.nxc"
65	277	208		mov __D0sense, __D0colour
65	276	210	#line 276 "C:\Users\ken\Desktop\C85\pfilter prob.nxc"
65	277	210		mov __sense_7qG2_reading_7qG2_000, __D0sense
65	276	213	#line 276 "C:\Users\ken\Desktop\C85\pfilter prob.nxc"
65	276	213	#line 276 "C:\Users\ken\Desktop\C85\pfilter prob.nxc"
65	277	213		set __D0sense, 0
65	276	216	#line 276 "C:\Users\ken\Desktop\C85\pfilter prob.nxc"
65	277	216		mov __signed_stack_001sense, __D0sense
65	276	218	#line 276 "C:\Users\ken\Desktop\C85\pfilter prob.nxc"
65	277	218		set __D0sense, 90
65	276	221	#line 276 "C:\Users\ken\Desktop\C85\pfilter prob.nxc"
65	277	221		sub __D0sense, __signed_stack_001sense, __D0sense
65	276	225	#line 276 "C:\Users\ken\Desktop\C85\pfilter prob.nxc"
65	277	225		mov __rotate_7qG2_degrees_7qG2_000, __D0sense
65	276	227	#line 276 "C:\Users\ken\Desktop\C85\pfilter prob.nxc"
65	277	227		set __D0sense, 1
65	276	230	#line 276 "C:\Users\ken\Desktop\C85\pfilter prob.nxc"
65	277	230		mov __rotate_7qG2_mode_7qG2_000, __D0sense
65	279	233	#line 279 "C:\Users\ken\Desktop\C85\pfilter prob.nxc"
65	280	233		subcall rotate, __rotate_return
65	279	236	#line 279 "C:\Users\ken\Desktop\C85\pfilter prob.nxc"
65	280	236	#line 280 "C:\Users\ken\Desktop\C85\pfilter prob.nxc"
65	281	236		jmp __NXC_Label_860
65	280	238	#line 280 "C:\Users\ken\Desktop\C85\pfilter prob.nxc"
65	281	238		set __D0sense, 90
65	280	241	#line 280 "C:\Users\ken\Desktop\C85\pfilter prob.nxc"
65	281	241		mov __rotate_7qG2_degrees_7qG2_000, __D0sense
65	280	243	#line 280 "C:\Users\ken\Desktop\C85\pfilter prob.nxc"
65	281	243		set __D0sense, 1
65	280	246	#line 280 "C:\Users\ken\Desktop\C85\pfilter prob.nxc"
65	281	246		mov __rotate_7qG2_mode_7qG2_000, __D0sense
65	281	249	#line 281 "C:\Users\ken\Desktop\C85\pfilter prob.nxc"
65	282	249		subcall rotate, __rotate_return
65	281	252	#line 281 "C:\Users\ken\Desktop\C85\pfilter prob.nxc"
65	282	252	#line 282 "C:\Users\ken\Desktop\C85\pfilter prob.nxc"
65	283	252		subcall colour, __colour_return
65	282	255	#line 282 "C:\Users\ken\Desktop\C85\pfilter prob.nxc"
65	283	255		mov __D0sense, __D0colour
65	282	257	#line 282 "C:\Users\ken\Desktop\C85\pfilter prob.nxc"
65	283	257		mov __sense_7qG2_reading_7qG2_000, __D0sense
65	282	260	#line 282 "C:\Users\ken\Desktop\C85\pfilter prob.nxc"
65	282	260	#line 282 "C:\Users\ken\Desktop\C85\pfilter prob.nxc"
65	283	260		set __D0sense, 0
65	282	263	#line 282 "C:\Users\ken\Desktop\C85\pfilter prob.nxc"
65	283	263		mov __signed_stack_001sense, __D0sense
65	282	265	#line 282 "C:\Users\ken\Desktop\C85\pfilter prob.nxc"
65	283	265		set __D0sense, 90
65	282	268	#line 282 "C:\Users\ken\Desktop\C85\pfilter prob.nxc"
65	283	268		sub __D0sense, __signed_stack_001sense, __D0sense
65	282	272	#line 282 "C:\Users\ken\Desktop\C85\pfilter prob.nxc"
65	283	272		mov __rotate_7qG2_degrees_7qG2_000, __D0sense
65	282	274	#line 282 "C:\Users\ken\Desktop\C85\pfilter prob.nxc"
65	283	274		set __D0sense, 0
65	282	277	#line 282 "C:\Users\ken\Desktop\C85\pfilter prob.nxc"
65	283	277		mov __signed_stack_001sense, __D0sense
65	282	279	#line 282 "C:\Users\ken\Desktop\C85\pfilter prob.nxc"
65	283	279		set __D0sense, 1
65	282	282	#line 282 "C:\Users\ken\Desktop\C85\pfilter prob.nxc"
65	283	282		sub __D0sense, __signed_stack_001sense, __D0sense
65	282	286	#line 282 "C:\Users\ken\Desktop\C85\pfilter prob.nxc"
65	283	286		mov __rotate_7qG2_mode_7qG2_000, __D0sense
65	283	289	#line 283 "C:\Users\ken\Desktop\C85\pfilter prob.nxc"
65	284	289		subcall rotate, __rotate_return
65	283	292	#line 283 "C:\Users\ken\Desktop\C85\pfilter prob.nxc"
65	285	292	#line 285 "C:\Users\ken\Desktop\C85\pfilter prob.nxc"
65	285	292	#line 285 "C:\Users\ken\Desktop\C85\pfilter prob.nxc"
65	285	292	#line 285 "C:\Users\ken\Desktop\C85\pfilter prob.nxc"
65	286	292	#line 286 "C:\Users\ken\Desktop\C85\pfilter prob.nxc"
65	287	292		mov __D0sense, __sense_7qG2_reading_7qG2_000
65	286	295	#line 286 "C:\Users\ken\Desktop\C85\pfilter prob.nxc"
65	287	295		subret __sense_return
65	286	297	#line 286 "C:\Users\ken\Desktop\C85\pfilter prob.nxc"
65	294	297	#line 294 "C:\Users\ken\Desktop\C85\pfilter prob.nxc"
65	295	297		subret __sense_return
66	297	0	#line 297 "C:\Users\ken\Desktop\C85\pfilter prob.nxc"
66	298	0		set __D0scan_surroundings, 0
66	297	3	#line 297 "C:\Users\ken\Desktop\C85\pfilter prob.nxc"
66	298	3		mov __signed_stack_001scan_surroundings, __D0scan_surroundings
66	297	5	#line 297 "C:\Users\ken\Desktop\C85\pfilter prob.nxc"
66	298	5		set __D0scan_surroundings, 90
66	297	8	#line 297 "C:\Users\ken\Desktop\C85\pfilter prob.nxc"
66	298	8		sub __D0scan_surroundings, __signed_stack_001scan_surroundings, __D0scan_surroundings
66	297	12	#line 297 "C:\Users\ken\Desktop\C85\pfilter prob.nxc"
66	298	12		mov __rotate_7qG2_degrees_7qG2_000, __D0scan_surroundings
66	297	14	#line 297 "C:\Users\ken\Desktop\C85\pfilter prob.nxc"
66	298	14		set __D0scan_surroundings, 1
66	297	17	#line 297 "C:\Users\ken\Desktop\C85\pfilter prob.nxc"
66	298	17		mov __rotate_7qG2_mode_7qG2_000, __D0scan_surroundings
66	298	20	#line 298 "C:\Users\ken\Desktop\C85\pfilter prob.nxc"
66	299	20		subcall rotate, __rotate_return
66	298	23	#line 298 "C:\Users\ken\Desktop\C85\pfilter prob.nxc"
66	299	23	#line 299 "C:\Users\ken\Desktop\C85\pfilter prob.nxc"
66	300	23		subcall colour, __colour_return
66	299	26	#line 299 "C:\Users\ken\Desktop\C85\pfilter prob.nxc"
66	300	26		mov __D0scan_surroundings, __D0colour
66	299	28	#line 299 "C:\Users\ken\Desktop\C85\pfilter prob.nxc"
66	300	28		mov __scan_surroundings_7qG2_rsense_7qG2_000.NE, __D0scan_surroundings
66	299	31	#line 299 "C:\Users\ken\Desktop\C85\pfilter prob.nxc"
66	299	31	#line 299 "C:\Users\ken\Desktop\C85\pfilter prob.nxc"
66	300	31		set __D0scan_surroundings, 90
66	299	34	#line 299 "C:\Users\ken\Desktop\C85\pfilter prob.nxc"
66	300	34		mov __rotate_7qG2_degrees_7qG2_000, __D0scan_surroundings
66	299	36	#line 299 "C:\Users\ken\Desktop\C85\pfilter prob.nxc"
66	300	36		set __D0scan_surroundings, 0
66	299	39	#line 299 "C:\Users\ken\Desktop\C85\pfilter prob.nxc"
66	300	39		mov __signed_stack_001scan_surroundings, __D0scan_surroundings
66	299	41	#line 299 "C:\Users\ken\Desktop\C85\pfilter prob.nxc"
66	300	41		set __D0scan_surroundings, 1
66	299	44	#line 299 "C:\Users\ken\Desktop\C85\pfilter prob.nxc"
66	300	44		sub __D0scan_surroundings, __signed_stack_001scan_surroundings, __D0scan_surroundings
66	299	48	#line 299 "C:\Users\ken\Desktop\C85\pfilter prob.nxc"
66	300	48		mov __rotate_7qG2_mode_7qG2_000, __D0scan_surroundings
66	300	51	#line 300 "C:\Users\ken\Desktop\C85\pfilter prob.nxc"
66	301	51		subcall rotate, __rotate_return
66	300	54	#line 300 "C:\Users\ken\Desktop\C85\pfilter prob.nxc"
66	300	54	#line 300 "C:\Users\ken\Desktop\C85\pfilter prob.nxc"
66	301	54		set __D0scan_surroundings, 0
66	300	57	#line 300 "C:\Users\ken\Desktop\C85\pfilter prob.nxc"
66	301	57		mov __signed_stack_001scan_surroundings, __D0scan_surroundings
66	300	59	#line 300 "C:\Users\ken\Desktop\C85\pfilter prob.nxc"
66	301	59		set __D0scan_surroundings, 90
66	300	62	#line 300 "C:\Users\ken\Desktop\C85\pfilter prob.nxc"
66	301	62		sub __D0scan_surroundings, __signed_stack_001scan_surroundings, __D0scan_surroundings
66	300	66	#line 300 "C:\Users\ken\Desktop\C85\pfilter prob.nxc"
66	301	66		mov __rotate_7qG2_degrees_7qG2_000, __D0scan_surroundings
66	300	68	#line 300 "C:\Users\ken\Desktop\C85\pfilter prob.nxc"
66	301	68		set __D0scan_surroundings, 0
66	300	71	#line 300 "C:\Users\ken\Desktop\C85\pfilter prob.nxc"
66	301	71		mov __signed_stack_001scan_surroundings, __D0scan_surroundings
66	300	73	#line 300 "C:\Users\ken\Desktop\C85\pfilter prob.nxc"
66	301	73		set __D0scan_surroundings, 1
66	300	76	#line 300 "C:\Users\ken\Desktop\C85\pfilter prob.nxc"
66	301	76		sub __D0scan_surroundings, __signed_stack_001scan_surroundings, __D0scan_surroundings
66	300	80	#line 300 "C:\Users\ken\Desktop\C85\pfilter prob.nxc"
66	301	80		mov __rotate_7qG2_mode_7qG2_000, __D0scan_surroundings
66	301	83	#line 301 "C:\Users\ken\Desktop\C85\pfilter prob.nxc"
66	302	83		subcall rotate, __rotate_return
66	301	86	#line 301 "C:\Users\ken\Desktop\C85\pfilter prob.nxc"
66	302	86	#line 302 "C:\Users\ken\Desktop\C85\pfilter prob.nxc"
66	303	86		subcall colour, __colour_return
66	302	89	#line 302 "C:\Users\ken\Desktop\C85\pfilter prob.nxc"
66	303	89		mov __D0scan_surroundings, __D0colour
66	302	91	#line 302 "C:\Users\ken\Desktop\C85\pfilter prob.nxc"
66	303	91		mov __scan_surroundings_7qG2_rsense_7qG2_000.SW, __D0scan_surroundings
66	302	94	#line 302 "C:\Users\ken\Desktop\C85\pfilter prob.nxc"
66	302	94	#line 302 "C:\Users\ken\Desktop\C85\pfilter prob.nxc"
66	303	94		set __D0scan_surroundings, 90
66	302	97	#line 302 "C:\Users\ken\Desktop\C85\pfilter prob.nxc"
66	303	97		mov __rotate_7qG2_degrees_7qG2_000, __D0scan_surroundings
66	302	99	#line 302 "C:\Users\ken\Desktop\C85\pfilter prob.nxc"
66	303	99		set __D0scan_surroundings, 1
66	302	102	#line 302 "C:\Users\ken\Desktop\C85\pfilter prob.nxc"
66	303	102		mov __rotate_7qG2_mode_7qG2_000, __D0scan_surroundings
66	303	105	#line 303 "C:\Users\ken\Desktop\C85\pfilter prob.nxc"
66	304	105		subcall rotate, __rotate_return
66	303	108	#line 303 "C:\Users\ken\Desktop\C85\pfilter prob.nxc"
66	303	108	#line 303 "C:\Users\ken\Desktop\C85\pfilter prob.nxc"
66	304	108		set __D0scan_surroundings, 90
66	303	111	#line 303 "C:\Users\ken\Desktop\C85\pfilter prob.nxc"
66	304	111		mov __rotate_7qG2_degrees_7qG2_000, __D0scan_surroundings
66	303	113	#line 303 "C:\Users\ken\Desktop\C85\pfilter prob.nxc"
66	304	113		set __D0scan_surroundings, 1
66	303	116	#line 303 "C:\Users\ken\Desktop\C85\pfilter prob.nxc"
66	304	116		mov __rotate_7qG2_mode_7qG2_000, __D0scan_surroundings
66	304	119	#line 304 "C:\Users\ken\Desktop\C85\pfilter prob.nxc"
66	305	119		subcall rotate, __rotate_return
66	304	122	#line 304 "C:\Users\ken\Desktop\C85\pfilter prob.nxc"
66	305	122	#line 305 "C:\Users\ken\Desktop\C85\pfilter prob.nxc"
66	306	122		subcall colour, __colour_return
66	305	125	#line 305 "C:\Users\ken\Desktop\C85\pfilter prob.nxc"
66	306	125		mov __D0scan_surroundings, __D0colour
66	305	127	#line 305 "C:\Users\ken\Desktop\C85\pfilter prob.nxc"
66	306	127		mov __scan_surroundings_7qG2_rsense_7qG2_000.NW, __D0scan_surroundings
66	305	130	#line 305 "C:\Users\ken\Desktop\C85\pfilter prob.nxc"
66	305	130	#line 305 "C:\Users\ken\Desktop\C85\pfilter prob.nxc"
66	306	130		set __D0scan_surroundings, 0
66	305	133	#line 305 "C:\Users\ken\Desktop\C85\pfilter prob.nxc"
66	306	133		mov __signed_stack_001scan_surroundings, __D0scan_surroundings
66	305	135	#line 305 "C:\Users\ken\Desktop\C85\pfilter prob.nxc"
66	306	135		set __D0scan_surroundings, 90
66	305	138	#line 305 "C:\Users\ken\Desktop\C85\pfilter prob.nxc"
66	306	138		sub __D0scan_surroundings, __signed_stack_001scan_surroundings, __D0scan_surroundings
66	305	142	#line 305 "C:\Users\ken\Desktop\C85\pfilter prob.nxc"
66	306	142		mov __rotate_7qG2_degrees_7qG2_000, __D0scan_surroundings
66	305	144	#line 305 "C:\Users\ken\Desktop\C85\pfilter prob.nxc"
66	306	144		set __D0scan_surroundings, 0
66	305	147	#line 305 "C:\Users\ken\Desktop\C85\pfilter prob.nxc"
66	306	147		mov __signed_stack_001scan_surroundings, __D0scan_surroundings
66	305	149	#line 305 "C:\Users\ken\Desktop\C85\pfilter prob.nxc"
66	306	149		set __D0scan_surroundings, 1
66	305	152	#line 305 "C:\Users\ken\Desktop\C85\pfilter prob.nxc"
66	306	152		sub __D0scan_surroundings, __signed_stack_001scan_surroundings, __D0scan_surroundings
66	305	156	#line 305 "C:\Users\ken\Desktop\C85\pfilter prob.nxc"
66	306	156		mov __rotate_7qG2_mode_7qG2_000, __D0scan_surroundings
66	306	159	#line 306 "C:\Users\ken\Desktop\C85\pfilter prob.nxc"
66	307	159		subcall rotate, __rotate_return
66	306	162	#line 306 "C:\Users\ken\Desktop\C85\pfilter prob.nxc"
66	306	162	#line 306 "C:\Users\ken\Desktop\C85\pfilter prob.nxc"
66	307	162		set __D0scan_surroundings, 90
66	306	165	#line 306 "C:\Users\ken\Desktop\C85\pfilter prob.nxc"
66	307	165		mov __rotate_7qG2_degrees_7qG2_000, __D0scan_surroundings
66	306	167	#line 306 "C:\Users\ken\Desktop\C85\pfilter prob.nxc"
66	307	167		set __D0scan_surroundings, 0
66	306	170	#line 306 "C:\Users\ken\Desktop\C85\pfilter prob.nxc"
66	307	170		mov __signed_stack_001scan_surroundings, __D0scan_surroundings
66	306	172	#line 306 "C:\Users\ken\Desktop\C85\pfilter prob.nxc"
66	307	172		set __D0scan_surroundings, 1
66	306	175	#line 306 "C:\Users\ken\Desktop\C85\pfilter prob.nxc"
66	307	175		sub __D0scan_surroundings, __signed_stack_001scan_surroundings, __D0scan_surroundings
66	306	179	#line 306 "C:\Users\ken\Desktop\C85\pfilter prob.nxc"
66	307	179		mov __rotate_7qG2_mode_7qG2_000, __D0scan_surroundings
66	307	182	#line 307 "C:\Users\ken\Desktop\C85\pfilter prob.nxc"
66	308	182		subcall rotate, __rotate_return
66	307	185	#line 307 "C:\Users\ken\Desktop\C85\pfilter prob.nxc"
66	308	185	#line 308 "C:\Users\ken\Desktop\C85\pfilter prob.nxc"
66	309	185		subcall colour, __colour_return
66	308	188	#line 308 "C:\Users\ken\Desktop\C85\pfilter prob.nxc"
66	309	188		mov __D0scan_surroundings, __D0colour
66	308	190	#line 308 "C:\Users\ken\Desktop\C85\pfilter prob.nxc"
66	309	190		mov __scan_surroundings_7qG2_rsense_7qG2_000.SE, __D0scan_surroundings
66	308	193	#line 308 "C:\Users\ken\Desktop\C85\pfilter prob.nxc"
66	308	193	#line 308 "C:\Users\ken\Desktop\C85\pfilter prob.nxc"
66	309	193		set __D0scan_surroundings, 0
66	308	196	#line 308 "C:\Users\ken\Desktop\C85\pfilter prob.nxc"
66	309	196		mov __signed_stack_001scan_surroundings, __D0scan_surroundings
66	308	198	#line 308 "C:\Users\ken\Desktop\C85\pfilter prob.nxc"
66	309	198		set __D0scan_surroundings, 90
66	308	201	#line 308 "C:\Users\ken\Desktop\C85\pfilter prob.nxc"
66	309	201		sub __D0scan_surroundings, __signed_stack_001scan_surroundings, __D0scan_surroundings
66	308	205	#line 308 "C:\Users\ken\Desktop\C85\pfilter prob.nxc"
66	309	205		mov __rotate_7qG2_degrees_7qG2_000, __D0scan_surroundings
66	308	207	#line 308 "C:\Users\ken\Desktop\C85\pfilter prob.nxc"
66	309	207		set __D0scan_surroundings, 1
66	308	210	#line 308 "C:\Users\ken\Desktop\C85\pfilter prob.nxc"
66	309	210		mov __rotate_7qG2_mode_7qG2_000, __D0scan_surroundings
66	309	213	#line 309 "C:\Users\ken\Desktop\C85\pfilter prob.nxc"
66	310	213		subcall rotate, __rotate_return
66	309	216	#line 309 "C:\Users\ken\Desktop\C85\pfilter prob.nxc"
66	310	216	#line 310 "C:\Users\ken\Desktop\C85\pfilter prob.nxc"
66	311	216		mov __result_scan_surroundings, __scan_surroundings_7qG2_rsense_7qG2_000
66	310	218	#line 310 "C:\Users\ken\Desktop\C85\pfilter prob.nxc"
66	311	218		subret __scan_surroundings_return
66	310	220	#line 310 "C:\Users\ken\Desktop\C85\pfilter prob.nxc"
66	317	220	#line 317 "C:\Users\ken\Desktop\C85\pfilter prob.nxc"
66	318	220		subret __scan_surroundings_return
67	318	0	#line 318 "C:\Users\ken\Desktop\C85\pfilter prob.nxc"
67	319	0		mov __D0change_direction, __change_direction_7qG2_new_7qG2_000
67	318	3	#line 318 "C:\Users\ken\Desktop\C85\pfilter prob.nxc"
67	319	3		mov __signed_stack_001change_direction, __D0change_direction
67	319	5	#line 319 "C:\Users\ken\Desktop\C85\pfilter prob.nxc"
67	320	5		mov __D0change_direction, __change_direction_7qG2_orig_7qG2_000
67	319	8	#line 319 "C:\Users\ken\Desktop\C85\pfilter prob.nxc"
67	320	8		sub __D0change_direction, __signed_stack_001change_direction, __D0change_direction
67	319	12	#line 319 "C:\Users\ken\Desktop\C85\pfilter prob.nxc"
67	320	12		mov __change_direction_7qG2_change_7qG2_000, __D0change_direction
67	319	15	#line 319 "C:\Users\ken\Desktop\C85\pfilter prob.nxc"
67	320	15		mov __D0change_direction, __change_direction_7qG2_change_7qG2_000
67	323	18		brcmp 4, __NXC_Label_918, __constVal3, __D0change_direction
67	324	22		brcmp 4, __NXC_Label_919, __constValNeg1, __D0change_direction
67	325	26		brcmp 4, __NXC_Label_924, __constValNeg3, __D0change_direction
67	326	30		brcmp 4, __NXC_Label_925, __constVal1, __D0change_direction
67	327	34		brcmp 4, __NXC_Label_930, __constVal2, __D0change_direction
67	328	38		jmp __NXC_Label_917
67	321	40	#line 321 "C:\Users\ken\Desktop\C85\pfilter prob.nxc"
67	324	40	#line 324 "C:\Users\ken\Desktop\C85\pfilter prob.nxc"
67	324	40	#line 324 "C:\Users\ken\Desktop\C85\pfilter prob.nxc"
67	325	40		set __D0change_direction, 90
67	324	43	#line 324 "C:\Users\ken\Desktop\C85\pfilter prob.nxc"
67	325	43		mov __rotate_7qG2_degrees_7qG2_000, __D0change_direction
67	324	45	#line 324 "C:\Users\ken\Desktop\C85\pfilter prob.nxc"
67	325	45		set __D0change_direction, 0
67	324	48	#line 324 "C:\Users\ken\Desktop\C85\pfilter prob.nxc"
67	325	48		mov __rotate_7qG2_mode_7qG2_000, __D0change_direction
67	325	51	#line 325 "C:\Users\ken\Desktop\C85\pfilter prob.nxc"
67	326	51		subcall rotate, __rotate_return
67	325	54	#line 325 "C:\Users\ken\Desktop\C85\pfilter prob.nxc"
67	327	54	#line 327 "C:\Users\ken\Desktop\C85\pfilter prob.nxc"
67	328	54		jmp __NXC_Label_917
67	327	56	#line 327 "C:\Users\ken\Desktop\C85\pfilter prob.nxc"
67	328	56	#line 328 "C:\Users\ken\Desktop\C85\pfilter prob.nxc"
67	331	56	#line 331 "C:\Users\ken\Desktop\C85\pfilter prob.nxc"
67	331	56	#line 331 "C:\Users\ken\Desktop\C85\pfilter prob.nxc"
67	332	56		set __D0change_direction, 0
67	331	59	#line 331 "C:\Users\ken\Desktop\C85\pfilter prob.nxc"
67	332	59		mov __signed_stack_001change_direction, __D0change_direction
67	331	61	#line 331 "C:\Users\ken\Desktop\C85\pfilter prob.nxc"
67	332	61		set __D0change_direction, 90
67	331	64	#line 331 "C:\Users\ken\Desktop\C85\pfilter prob.nxc"
67	332	64		sub __D0change_direction, __signed_stack_001change_direction, __D0change_direction
67	331	68	#line 331 "C:\Users\ken\Desktop\C85\pfilter prob.nxc"
67	332	68		mov __rotate_7qG2_degrees_7qG2_000, __D0change_direction
67	331	70	#line 331 "C:\Users\ken\Desktop\C85\pfilter prob.nxc"
67	332	70		set __D0change_direction, 0
67	331	73	#line 331 "C:\Users\ken\Desktop\C85\pfilter prob.nxc"
67	332	73		mov __rotate_7qG2_mode_7qG2_000, __D0change_direction
67	332	76	#line 332 "C:\Users\ken\Desktop\C85\pfilter prob.nxc"
67	333	76		subcall rotate, __rotate_return
67	332	79	#line 332 "C:\Users\ken\Desktop\C85\pfilter prob.nxc"
67	334	79	#line 334 "C:\Users\ken\Desktop\C85\pfilter prob.nxc"
67	335	79		jmp __NXC_Label_917
67	334	81	#line 334 "C:\Users\ken\Desktop\C85\pfilter prob.nxc"
67	337	81	#line 337 "C:\Users\ken\Desktop\C85\pfilter prob.nxc"
67	337	81	#line 337 "C:\Users\ken\Desktop\C85\pfilter prob.nxc"
67	338	81		set __D0change_direction, 180
67	337	84	#line 337 "C:\Users\ken\Desktop\C85\pfilter prob.nxc"
67	338	84		mov __rotate_7qG2_degrees_7qG2_000, __D0change_direction
67	337	86	#line 337 "C:\Users\ken\Desktop\C85\pfilter prob.nxc"
67	338	86		set __D0change_direction, 0
67	337	89	#line 337 "C:\Users\ken\Desktop\C85\pfilter prob.nxc"
67	338	89		mov __rotate_7qG2_mode_7qG2_000, __D0change_direction
67	338	92	#line 338 "C:\Users\ken\Desktop\C85\pfilter prob.nxc"
67	339	92		subcall rotate, __rotate_return
67	338	95	#line 338 "C:\Users\ken\Desktop\C85\pfilter prob.nxc"
67	339	95	#line 339 "C:\Users\ken\Desktop\C85\pfilter prob.nxc"
67	340	95		jmp __NXC_Label_917
67	339	97	#line 339 "C:\Users\ken\Desktop\C85\pfilter prob.nxc"
67	344	97	#line 344 "C:\Users\ken\Desktop\C85\pfilter prob.nxc"
67	344	97	#line 344 "C:\Users\ken\Desktop\C85\pfilter prob.nxc"
67	345	97		subret __change_direction_return
68	345	0	#line 345 "C:\Users\ken\Desktop\C85\pfilter prob.nxc"
68	346	0		mov __D0move_steps, __move_steps_7qG2_step_7qG2_000
68	345	3	#line 345 "C:\Users\ken\Desktop\C85\pfilter prob.nxc"
68	346	3		mov __signed_stack_001move_steps, __D0move_steps
68	345	6	#line 345 "C:\Users\ken\Desktop\C85\pfilter prob.nxc"
68	346	6		set __D0move_steps, 5
68	345	9	#line 345 "C:\Users\ken\Desktop\C85\pfilter prob.nxc"
68	346	9		mul __D0move_steps, __signed_stack_001move_steps, __D0move_steps
68	345	13	#line 345 "C:\Users\ken\Desktop\C85\pfilter prob.nxc"
68	346	13		mov __drive_7qG2_distance_7qG2_000, __D0move_steps
68	345	15	#line 345 "C:\Users\ken\Desktop\C85\pfilter prob.nxc"
68	346	15		set __D0move_steps, 1
68	345	18	#line 345 "C:\Users\ken\Desktop\C85\pfilter prob.nxc"
68	346	18		mov __drive_7qG2_left_7qG2_000, __D0move_steps
68	345	21	#line 345 "C:\Users\ken\Desktop\C85\pfilter prob.nxc"
68	346	21		set __D0move_steps, 1
68	345	24	#line 345 "C:\Users\ken\Desktop\C85\pfilter prob.nxc"
68	346	24		mov __drive_7qG2_right_7qG2_000, __D0move_steps
68	345	27	#line 345 "C:\Users\ken\Desktop\C85\pfilter prob.nxc"
68	346	27		set __D0move_steps, 1
68	345	30	#line 345 "C:\Users\ken\Desktop\C85\pfilter prob.nxc"
68	346	30		mov __drive_7qG2_brake_7qG2_000, __D0move_steps
68	346	33	#line 346 "C:\Users\ken\Desktop\C85\pfilter prob.nxc"
68	347	33		subcall drive, __drive_return
68	346	36	#line 346 "C:\Users\ken\Desktop\C85\pfilter prob.nxc"
68	351	36	#line 351 "C:\Users\ken\Desktop\C85\pfilter prob.nxc"
68	352	36		subret __move_steps_return
69	352	0	#line 352 "C:\Users\ken\Desktop\C85\pfilter prob.nxc"
69	353	0		set __D0align, 0
69	352	3	#line 352 "C:\Users\ken\Desktop\C85\pfilter prob.nxc"
69	353	3		mov __signed_stack_001align, __D0align
69	353	5	#line 353 "C:\Users\ken\Desktop\C85\pfilter prob.nxc"
69	354	5		set __D0align, 1
69	353	8	#line 353 "C:\Users\ken\Desktop\C85\pfilter prob.nxc"
69	354	8		sub __D0align, __signed_stack_001align, __D0align
69	353	12	#line 353 "C:\Users\ken\Desktop\C85\pfilter prob.nxc"
69	354	12		mov __align_7qG2_dir_7qG2_000, __D0align
69	353	15	#line 353 "C:\Users\ken\Desktop\C85\pfilter prob.nxc"
69	354	15		set __D0align, 0
69	353	18	#line 353 "C:\Users\ken\Desktop\C85\pfilter prob.nxc"
69	354	18		mov __signed_stack_001align, __D0align
69	353	20	#line 353 "C:\Users\ken\Desktop\C85\pfilter prob.nxc"
69	354	20		set __D0align, 1
69	353	23	#line 353 "C:\Users\ken\Desktop\C85\pfilter prob.nxc"
69	354	23		sub __D0align, __signed_stack_001align, __D0align
69	353	27	#line 353 "C:\Users\ken\Desktop\C85\pfilter prob.nxc"
69	354	27		mov __move_steps_7qG2_step_7qG2_000, __D0align
69	357	30	#line 357 "C:\Users\ken\Desktop\C85\pfilter prob.nxc"
69	358	30		subcall move_steps, __move_steps_return
69	357	33	#line 357 "C:\Users\ken\Desktop\C85\pfilter prob.nxc"
69	357	33	#line 357 "C:\Users\ken\Desktop\C85\pfilter prob.nxc"
69	358	33		set __D0align, 90
69	357	36	#line 357 "C:\Users\ken\Desktop\C85\pfilter prob.nxc"
69	358	36		mov __rotate_7qG2_degrees_7qG2_000, __D0align
69	357	38	#line 357 "C:\Users\ken\Desktop\C85\pfilter prob.nxc"
69	358	38		set __D0align, 0
69	357	41	#line 357 "C:\Users\ken\Desktop\C85\pfilter prob.nxc"
69	358	41		mov __rotate_7qG2_mode_7qG2_000, __D0align
69	358	44	#line 358 "C:\Users\ken\Desktop\C85\pfilter prob.nxc"
69	359	44		subcall rotate, __rotate_return
69	358	47	#line 358 "C:\Users\ken\Desktop\C85\pfilter prob.nxc"
69	358	47	#line 358 "C:\Users\ken\Desktop\C85\pfilter prob.nxc"
69	359	47		set __D0align, 2
69	358	50	#line 358 "C:\Users\ken\Desktop\C85\pfilter prob.nxc"
69	359	50		mov __move_steps_7qG2_step_7qG2_000, __D0align
69	360	53	#line 360 "C:\Users\ken\Desktop\C85\pfilter prob.nxc"
69	361	53		subcall move_steps, __move_steps_return
69	360	56	#line 360 "C:\Users\ken\Desktop\C85\pfilter prob.nxc"
69	360	56	#line 360 "C:\Users\ken\Desktop\C85\pfilter prob.nxc"
69	361	56		subcall colour, __colour_return
69	360	59	#line 360 "C:\Users\ken\Desktop\C85\pfilter prob.nxc"
69	361	59		mov __D0align, __D0colour
69	360	61	#line 360 "C:\Users\ken\Desktop\C85\pfilter prob.nxc"
69	361	61		mov __signed_stack_001align, __D0align
69	360	63	#line 360 "C:\Users\ken\Desktop\C85\pfilter prob.nxc"
69	361	63		set __D0align, 1
69	360	66	#line 360 "C:\Users\ken\Desktop\C85\pfilter prob.nxc"
69	361	66		cmp 5, __zfalign, __signed_stack_001align, __D0align
69	360	70	#line 360 "C:\Users\ken\Desktop\C85\pfilter prob.nxc"
69	361	70		mov __D0align, __zfalign
69	361	73	#line 361 "C:\Users\ken\Desktop\C85\pfilter prob.nxc"
69	362	73		brtst 4, __NXC_Label_955, __zfalign
69	361	76	#line 361 "C:\Users\ken\Desktop\C85\pfilter prob.nxc"
69	362	76		set __D0align, 0
69	361	79	#line 361 "C:\Users\ken\Desktop\C85\pfilter prob.nxc"
69	362	79		mov __signed_stack_001align, __D0align
69	361	81	#line 361 "C:\Users\ken\Desktop\C85\pfilter prob.nxc"
69	362	81		set __D0align, 4
69	361	84	#line 361 "C:\Users\ken\Desktop\C85\pfilter prob.nxc"
69	362	84		sub __D0align, __signed_stack_001align, __D0align
69	361	88	#line 361 "C:\Users\ken\Desktop\C85\pfilter prob.nxc"
69	362	88		mov __move_steps_7qG2_step_7qG2_000, __D0align
69	362	91	#line 362 "C:\Users\ken\Desktop\C85\pfilter prob.nxc"
69	363	91		subcall move_steps, __move_steps_return
69	362	94	#line 362 "C:\Users\ken\Desktop\C85\pfilter prob.nxc"
69	362	94	#line 362 "C:\Users\ken\Desktop\C85\pfilter prob.nxc"
69	363	94		set __D0align, 0
69	362	97	#line 362 "C:\Users\ken\Desktop\C85\pfilter prob.nxc"
69	363	97		mov __signed_stack_001align, __D0align
69	363	99	#line 363 "C:\Users\ken\Desktop\C85\pfilter prob.nxc"
69	364	99		set __D0align, 2
69	363	102	#line 363 "C:\Users\ken\Desktop\C85\pfilter prob.nxc"
69	364	102		sub __D0align, __signed_stack_001align, __D0align
69	363	106	#line 363 "C:\Users\ken\Desktop\C85\pfilter prob.nxc"
69	364	106		mov __align_7qG2_dir_7qG2_000, __D0align
69	363	109	#line 363 "C:\Users\ken\Desktop\C85\pfilter prob.nxc"
69	363	109	#line 363 "C:\Users\ken\Desktop\C85\pfilter prob.nxc"
69	364	109		subcall colour, __colour_return
69	363	112	#line 363 "C:\Users\ken\Desktop\C85\pfilter prob.nxc"
69	364	112		mov __D0align, __D0colour
69	363	114	#line 363 "C:\Users\ken\Desktop\C85\pfilter prob.nxc"
69	364	114		mov __signed_stack_001align, __D0align
69	363	116	#line 363 "C:\Users\ken\Desktop\C85\pfilter prob.nxc"
69	364	116		set __D0align, 1
69	363	119	#line 363 "C:\Users\ken\Desktop\C85\pfilter prob.nxc"
69	364	119		cmp 4, __zfalign, __signed_stack_001align, __D0align
69	363	123	#line 363 "C:\Users\ken\Desktop\C85\pfilter prob.nxc"
69	364	123		mov __D0align, __zfalign
69	366	126	#line 366 "C:\Users\ken\Desktop\C85\pfilter prob.nxc"
69	367	126		brtst 4, __NXC_Label_962, __zfalign
69	366	129	#line 366 "C:\Users\ken\Desktop\C85\pfilter prob.nxc"
69	367	129		set __D0align, 25
69	366	132	#line 366 "C:\Users\ken\Desktop\C85\pfilter prob.nxc"
69	367	132		mov __signed_stack_001align, __D0align
69	366	134	#line 366 "C:\Users\ken\Desktop\C85\pfilter prob.nxc"
69	367	134		mov __D0align, __align_7qG2_dist_7qG2_000
69	366	137	#line 366 "C:\Users\ken\Desktop\C85\pfilter prob.nxc"
69	367	137		div __D0align, __signed_stack_001align, __D0align
69	367	141	#line 367 "C:\Users\ken\Desktop\C85\pfilter prob.nxc"
69	368	141		mov __align_7qG2_theta_7qG2_002, __D0align
69	367	143	#line 367 "C:\Users\ken\Desktop\C85\pfilter prob.nxc"
69	368	143		set __D0align, 90
69	367	146	#line 367 "C:\Users\ken\Desktop\C85\pfilter prob.nxc"
69	368	146		mov __signed_stack_001align, __D0align
69	367	148	#line 367 "C:\Users\ken\Desktop\C85\pfilter prob.nxc"
69	368	148		mov __DF0align, __align_7qG2_theta_7qG2_002
69	367	150	#line 367 "C:\Users\ken\Desktop\C85\pfilter prob.nxc"
69	368	150		mov __float_stack_002align, __DF0align
69	367	152	#line 367 "C:\Users\ken\Desktop\C85\pfilter prob.nxc"
69	368	152		mov __DF0align, __constValf52P3
69	367	154	#line 367 "C:\Users\ken\Desktop\C85\pfilter prob.nxc"
69	368	154		mul __DF0align, __float_stack_002align, __DF0align
69	368	158	#line 368 "C:\Users\ken\Desktop\C85\pfilter prob.nxc"
69	369	158		add __DF0align, __signed_stack_001align, __DF0align
69	368	162	#line 368 "C:\Users\ken\Desktop\C85\pfilter prob.nxc"
69	369	162		mov __align_7qG2_angle_7qG2_002, __DF0align
69	368	164	#line 368 "C:\Users\ken\Desktop\C85\pfilter prob.nxc"
69	369	164		set __D0align, 0
69	368	167	#line 368 "C:\Users\ken\Desktop\C85\pfilter prob.nxc"
69	369	167		mov __signed_stack_001align, __D0align
69	368	169	#line 368 "C:\Users\ken\Desktop\C85\pfilter prob.nxc"
69	369	169		mov __DF0align, __align_7qG2_angle_7qG2_002
69	368	171	#line 368 "C:\Users\ken\Desktop\C85\pfilter prob.nxc"
69	369	171		sub __DF0align, __signed_stack_001align, __DF0align
69	368	175	#line 368 "C:\Users\ken\Desktop\C85\pfilter prob.nxc"
69	369	175		mov __rotate_7qG2_degrees_7qG2_000, __DF0align
69	368	177	#line 368 "C:\Users\ken\Desktop\C85\pfilter prob.nxc"
69	369	177		mov __DF0align, __constVal0
69	368	180	#line 368 "C:\Users\ken\Desktop\C85\pfilter prob.nxc"
69	369	180		mov __rotate_7qG2_mode_7qG2_000, __DF0align
69	369	183	#line 369 "C:\Users\ken\Desktop\C85\pfilter prob.nxc"
69	370	183		subcall rotate, __rotate_return
69	369	186	#line 369 "C:\Users\ken\Desktop\C85\pfilter prob.nxc"
69	370	186	#line 370 "C:\Users\ken\Desktop\C85\pfilter prob.nxc"
69	371	186		jmp __NXC_Label_975
69	370	188	#line 370 "C:\Users\ken\Desktop\C85\pfilter prob.nxc"
69	371	188		set __D0align, 2
69	370	191	#line 370 "C:\Users\ken\Desktop\C85\pfilter prob.nxc"
69	371	191		mov __move_steps_7qG2_step_7qG2_000, __D0align
69	371	194	#line 371 "C:\Users\ken\Desktop\C85\pfilter prob.nxc"
69	372	194		subcall move_steps, __move_steps_return
69	371	197	#line 371 "C:\Users\ken\Desktop\C85\pfilter prob.nxc"
69	371	197	#line 371 "C:\Users\ken\Desktop\C85\pfilter prob.nxc"
69	372	197		set __D0align, 45
69	371	200	#line 371 "C:\Users\ken\Desktop\C85\pfilter prob.nxc"
69	372	200		mov __rotate_7qG2_degrees_7qG2_000, __D0align
69	371	202	#line 371 "C:\Users\ken\Desktop\C85\pfilter prob.nxc"
69	372	202		set __D0align, 0
69	371	205	#line 371 "C:\Users\ken\Desktop\C85\pfilter prob.nxc"
69	372	205		mov __rotate_7qG2_mode_7qG2_000, __D0align
69	372	208	#line 372 "C:\Users\ken\Desktop\C85\pfilter prob.nxc"
69	373	208		subcall rotate, __rotate_return
69	372	211	#line 372 "C:\Users\ken\Desktop\C85\pfilter prob.nxc"
69	372	211	#line 372 "C:\Users\ken\Desktop\C85\pfilter prob.nxc"
69	373	211		set __D0align, 2
69	372	214	#line 372 "C:\Users\ken\Desktop\C85\pfilter prob.nxc"
69	373	214		mov __move_steps_7qG2_step_7qG2_000, __D0align
69	373	217	#line 373 "C:\Users\ken\Desktop\C85\pfilter prob.nxc"
69	374	217		subcall move_steps, __move_steps_return
69	373	220	#line 373 "C:\Users\ken\Desktop\C85\pfilter prob.nxc"
69	375	220	#line 375 "C:\Users\ken\Desktop\C85\pfilter prob.nxc"
69	376	220		set __D0align, 1
69	375	223	#line 375 "C:\Users\ken\Desktop\C85\pfilter prob.nxc"
69	376	223		mov __align_7qG2_dir_7qG2_000, __D0align
69	375	226	#line 375 "C:\Users\ken\Desktop\C85\pfilter prob.nxc"
69	375	226	#line 375 "C:\Users\ken\Desktop\C85\pfilter prob.nxc"
69	376	226		subcall colour, __colour_return
69	375	229	#line 375 "C:\Users\ken\Desktop\C85\pfilter prob.nxc"
69	376	229		mov __D0align, __D0colour
69	375	231	#line 375 "C:\Users\ken\Desktop\C85\pfilter prob.nxc"
69	376	231		mov __signed_stack_001align, __D0align
69	375	233	#line 375 "C:\Users\ken\Desktop\C85\pfilter prob.nxc"
69	376	233		set __D0align, 1
69	375	236	#line 375 "C:\Users\ken\Desktop\C85\pfilter prob.nxc"
69	376	236		cmp 4, __zfalign, __signed_stack_001align, __D0align
69	375	240	#line 375 "C:\Users\ken\Desktop\C85\pfilter prob.nxc"
69	376	240		mov __D0align, __zfalign
69	376	243	#line 376 "C:\Users\ken\Desktop\C85\pfilter prob.nxc"
69	377	243		brtst 4, __NXC_Label_988, __zfalign
69	376	246	#line 376 "C:\Users\ken\Desktop\C85\pfilter prob.nxc"
69	377	246		set __D0align, 5
69	376	249	#line 376 "C:\Users\ken\Desktop\C85\pfilter prob.nxc"
69	377	249		mov __drive_7qG2_distance_7qG2_000, __D0align
69	376	251	#line 376 "C:\Users\ken\Desktop\C85\pfilter prob.nxc"
69	377	251		set __D0align, 1
69	376	254	#line 376 "C:\Users\ken\Desktop\C85\pfilter prob.nxc"
69	377	254		mov __drive_7qG2_left_7qG2_000, __D0align
69	376	257	#line 376 "C:\Users\ken\Desktop\C85\pfilter prob.nxc"
69	377	257		set __D0align, 1
69	376	260	#line 376 "C:\Users\ken\Desktop\C85\pfilter prob.nxc"
69	377	260		mov __drive_7qG2_right_7qG2_000, __D0align
69	376	263	#line 376 "C:\Users\ken\Desktop\C85\pfilter prob.nxc"
69	377	263		set __D0align, 1
69	376	266	#line 376 "C:\Users\ken\Desktop\C85\pfilter prob.nxc"
69	377	266		mov __drive_7qG2_brake_7qG2_000, __D0align
69	377	269	#line 377 "C:\Users\ken\Desktop\C85\pfilter prob.nxc"
69	378	269		subcall drive, __drive_return
69	377	272	#line 377 "C:\Users\ken\Desktop\C85\pfilter prob.nxc"
69	377	272	#line 377 "C:\Users\ken\Desktop\C85\pfilter prob.nxc"
69	378	272		set __D0align, 25
69	377	275	#line 377 "C:\Users\ken\Desktop\C85\pfilter prob.nxc"
69	378	275		mov __signed_stack_001align, __D0align
69	377	277	#line 377 "C:\Users\ken\Desktop\C85\pfilter prob.nxc"
69	378	277		mov __D0align, __align_7qG2_dist_7qG2_000
69	377	280	#line 377 "C:\Users\ken\Desktop\C85\pfilter prob.nxc"
69	378	280		div __D0align, __signed_stack_001align, __D0align
69	377	284	#line 377 "C:\Users\ken\Desktop\C85\pfilter prob.nxc"
69	378	284		mov __signed_stack_001align, __D0align
69	377	286	#line 377 "C:\Users\ken\Desktop\C85\pfilter prob.nxc"
69	378	286		set __D0align, 25
69	377	289	#line 377 "C:\Users\ken\Desktop\C85\pfilter prob.nxc"
69	378	289		mov __signed_stack_002align, __D0align
69	377	291	#line 377 "C:\Users\ken\Desktop\C85\pfilter prob.nxc"
69	378	291		mov __D0align, __align_7qG2_dist_7qG2_000
69	377	294	#line 377 "C:\Users\ken\Desktop\C85\pfilter prob.nxc"
69	378	294		div __D0align, __signed_stack_002align, __D0align
69	377	298	#line 377 "C:\Users\ken\Desktop\C85\pfilter prob.nxc"
69	378	298		mov __signed_stack_002align, __D0align
69	377	300	#line 377 "C:\Users\ken\Desktop\C85\pfilter prob.nxc"
69	378	300		set __D0align, 25
69	377	303	#line 377 "C:\Users\ken\Desktop\C85\pfilter prob.nxc"
69	378	303		mov __signed_stack_003align, __D0align
69	377	305	#line 377 "C:\Users\ken\Desktop\C85\pfilter prob.nxc"
69	378	305		mov __D0align, __align_7qG2_dist_7qG2_000
69	377	308	#line 377 "C:\Users\ken\Desktop\C85\pfilter prob.nxc"
69	378	308		div __D0align, __signed_stack_003align, __D0align
69	377	312	#line 377 "C:\Users\ken\Desktop\C85\pfilter prob.nxc"
69	378	312		mul __D0align, __signed_stack_002align, __D0align
69	377	316	#line 377 "C:\Users\ken\Desktop\C85\pfilter prob.nxc"
69	378	316		mov __signed_stack_002align, __D0align
69	377	318	#line 377 "C:\Users\ken\Desktop\C85\pfilter prob.nxc"
69	378	318		set __D0align, 25
69	377	321	#line 377 "C:\Users\ken\Desktop\C85\pfilter prob.nxc"
69	378	321		mov __signed_stack_003align, __D0align
69	377	323	#line 377 "C:\Users\ken\Desktop\C85\pfilter prob.nxc"
69	378	323		mov __D0align, __align_7qG2_dist_7qG2_000
69	377	326	#line 377 "C:\Users\ken\Desktop\C85\pfilter prob.nxc"
69	378	326		div __D0align, __signed_stack_003align, __D0align
69	377	330	#line 377 "C:\Users\ken\Desktop\C85\pfilter prob.nxc"
69	378	330		mul __D0align, __signed_stack_002align, __D0align
69	377	334	#line 377 "C:\Users\ken\Desktop\C85\pfilter prob.nxc"
69	378	334		mov __signed_stack_002align, __D0align
69	378	336	#line 378 "C:\Users\ken\Desktop\C85\pfilter prob.nxc"
69	379	336		set __D0align, 6
69	378	339	#line 378 "C:\Users\ken\Desktop\C85\pfilter prob.nxc"
69	379	339		div __D0align, __signed_stack_002align, __D0align
69	378	343	#line 378 "C:\Users\ken\Desktop\C85\pfilter prob.nxc"
69	379	343		add __D0align, __signed_stack_001align, __D0align
69	378	347	#line 378 "C:\Users\ken\Desktop\C85\pfilter prob.nxc"
69	379	347		mov __align_7qG2_theta_7qG2_003, __D0align
69	378	349	#line 378 "C:\Users\ken\Desktop\C85\pfilter prob.nxc"
69	379	349		mov __DF0align, __align_7qG2_theta_7qG2_003
69	378	351	#line 378 "C:\Users\ken\Desktop\C85\pfilter prob.nxc"
69	379	351		mov __float_stack_001align, __DF0align
69	378	353	#line 378 "C:\Users\ken\Desktop\C85\pfilter prob.nxc"
69	379	353		mov __DF0align, __constValf52P3
69	378	355	#line 378 "C:\Users\ken\Desktop\C85\pfilter prob.nxc"
69	379	355		mul __DF0align, __float_stack_001align, __DF0align
69	380	359	#line 380 "C:\Users\ken\Desktop\C85\pfilter prob.nxc"
69	381	359		mov __align_7qG2_angle_7qG2_003, __DF0align
69	380	361	#line 380 "C:\Users\ken\Desktop\C85\pfilter prob.nxc"
69	381	361		set __D0align, 0
69	380	364	#line 380 "C:\Users\ken\Desktop\C85\pfilter prob.nxc"
69	381	364		mov __signed_stack_001align, __D0align
69	380	366	#line 380 "C:\Users\ken\Desktop\C85\pfilter prob.nxc"
69	381	366		mov __DF0align, __align_7qG2_angle_7qG2_003
69	380	368	#line 380 "C:\Users\ken\Desktop\C85\pfilter prob.nxc"
69	381	368		mov __float_stack_002align, __DF0align
69	380	370	#line 380 "C:\Users\ken\Desktop\C85\pfilter prob.nxc"
69	381	370		mov __DF0align, __constVal45
69	380	373	#line 380 "C:\Users\ken\Desktop\C85\pfilter prob.nxc"
69	381	373		add __DF0align, __float_stack_002align, __DF0align
69	380	377	#line 380 "C:\Users\ken\Desktop\C85\pfilter prob.nxc"
69	381	377		mov __float_stack_002align, __DF0align
69	380	379	#line 380 "C:\Users\ken\Desktop\C85\pfilter prob.nxc"
69	381	379		mov __DF0align, __constVal2
69	380	382	#line 380 "C:\Users\ken\Desktop\C85\pfilter prob.nxc"
69	381	382		div __DF0align, __float_stack_002align, __DF0align
69	380	386	#line 380 "C:\Users\ken\Desktop\C85\pfilter prob.nxc"
69	381	386		sub __DF0align, __signed_stack_001align, __DF0align
69	380	390	#line 380 "C:\Users\ken\Desktop\C85\pfilter prob.nxc"
69	381	390		mov __rotate_7qG2_degrees_7qG2_000, __DF0align
69	380	392	#line 380 "C:\Users\ken\Desktop\C85\pfilter prob.nxc"
69	381	392		mov __DF0align, __constVal0
69	380	395	#line 380 "C:\Users\ken\Desktop\C85\pfilter prob.nxc"
69	381	395		mov __rotate_7qG2_mode_7qG2_000, __DF0align
69	383	398	#line 383 "C:\Users\ken\Desktop\C85\pfilter prob.nxc"
69	384	398		subcall rotate, __rotate_return
69	383	401	#line 383 "C:\Users\ken\Desktop\C85\pfilter prob.nxc"
69	384	401	#line 384 "C:\Users\ken\Desktop\C85\pfilter prob.nxc"
69	385	401		jmp __NXC_Label_1019
69	384	403	#line 384 "C:\Users\ken\Desktop\C85\pfilter prob.nxc"
69	385	403		set __D0align, 0
69	384	406	#line 384 "C:\Users\ken\Desktop\C85\pfilter prob.nxc"
69	385	406		mov __signed_stack_001align, __D0align
69	384	408	#line 384 "C:\Users\ken\Desktop\C85\pfilter prob.nxc"
69	385	408		set __D0align, 2
69	384	411	#line 384 "C:\Users\ken\Desktop\C85\pfilter prob.nxc"
69	385	411		sub __D0align, __signed_stack_001align, __D0align
69	384	415	#line 384 "C:\Users\ken\Desktop\C85\pfilter prob.nxc"
69	385	415		mov __move_steps_7qG2_step_7qG2_000, __D0align
69	385	418	#line 385 "C:\Users\ken\Desktop\C85\pfilter prob.nxc"
69	386	418		subcall move_steps, __move_steps_return
69	385	421	#line 385 "C:\Users\ken\Desktop\C85\pfilter prob.nxc"
69	385	421	#line 385 "C:\Users\ken\Desktop\C85\pfilter prob.nxc"
69	386	421		set __D0align, 90
69	385	424	#line 385 "C:\Users\ken\Desktop\C85\pfilter prob.nxc"
69	386	424		mov __rotate_7qG2_degrees_7qG2_000, __D0align
69	385	426	#line 385 "C:\Users\ken\Desktop\C85\pfilter prob.nxc"
69	386	426		set __D0align, 0
69	385	429	#line 385 "C:\Users\ken\Desktop\C85\pfilter prob.nxc"
69	386	429		mov __rotate_7qG2_mode_7qG2_000, __D0align
69	386	432	#line 386 "C:\Users\ken\Desktop\C85\pfilter prob.nxc"
69	387	432		subcall rotate, __rotate_return
69	386	435	#line 386 "C:\Users\ken\Desktop\C85\pfilter prob.nxc"
69	386	435	#line 386 "C:\Users\ken\Desktop\C85\pfilter prob.nxc"
69	387	435		set __D0align, 2
69	386	438	#line 386 "C:\Users\ken\Desktop\C85\pfilter prob.nxc"
69	387	438		mov __move_steps_7qG2_step_7qG2_000, __D0align
69	387	441	#line 387 "C:\Users\ken\Desktop\C85\pfilter prob.nxc"
69	388	441		subcall move_steps, __move_steps_return
69	387	444	#line 387 "C:\Users\ken\Desktop\C85\pfilter prob.nxc"
69	390	444	#line 390 "C:\Users\ken\Desktop\C85\pfilter prob.nxc"
69	391	444		set __D0align, 2
69	390	447	#line 390 "C:\Users\ken\Desktop\C85\pfilter prob.nxc"
69	391	447		mov __align_7qG2_dir_7qG2_000, __D0align
69	390	450	#line 390 "C:\Users\ken\Desktop\C85\pfilter prob.nxc"
69	390	450	#line 390 "C:\Users\ken\Desktop\C85\pfilter prob.nxc"
69	391	450		set __D0align, 25
69	390	453	#line 390 "C:\Users\ken\Desktop\C85\pfilter prob.nxc"
69	391	453		mov __signed_stack_001align, __D0align
69	390	455	#line 390 "C:\Users\ken\Desktop\C85\pfilter prob.nxc"
69	391	455		mov __D0align, __align_7qG2_dist_7qG2_000
69	390	458	#line 390 "C:\Users\ken\Desktop\C85\pfilter prob.nxc"
69	391	458		div __D0align, __signed_stack_001align, __D0align
69	390	462	#line 390 "C:\Users\ken\Desktop\C85\pfilter prob.nxc"
69	391	462		mov __signed_stack_001align, __D0align
69	390	464	#line 390 "C:\Users\ken\Desktop\C85\pfilter prob.nxc"
69	391	464		set __D0align, 25
69	390	467	#line 390 "C:\Users\ken\Desktop\C85\pfilter prob.nxc"
69	391	467		mov __signed_stack_002align, __D0align
69	390	469	#line 390 "C:\Users\ken\Desktop\C85\pfilter prob.nxc"
69	391	469		mov __D0align, __align_7qG2_dist_7qG2_000
69	390	472	#line 390 "C:\Users\ken\Desktop\C85\pfilter prob.nxc"
69	391	472		div __D0align, __signed_stack_002align, __D0align
69	390	476	#line 390 "C:\Users\ken\Desktop\C85\pfilter prob.nxc"
69	391	476		mov __signed_stack_002align, __D0align
69	390	478	#line 390 "C:\Users\ken\Desktop\C85\pfilter prob.nxc"
69	391	478		set __D0align, 25
69	390	481	#line 390 "C:\Users\ken\Desktop\C85\pfilter prob.nxc"
69	391	481		mov __signed_stack_003align, __D0align
69	390	483	#line 390 "C:\Users\ken\Desktop\C85\pfilter prob.nxc"
69	391	483		mov __D0align, __align_7qG2_dist_7qG2_000
69	390	486	#line 390 "C:\Users\ken\Desktop\C85\pfilter prob.nxc"
69	391	486		div __D0align, __signed_stack_003align, __D0align
69	390	490	#line 390 "C:\Users\ken\Desktop\C85\pfilter prob.nxc"
69	391	490		mul __D0align, __signed_stack_002align, __D0align
69	390	494	#line 390 "C:\Users\ken\Desktop\C85\pfilter prob.nxc"
69	391	494		mov __signed_stack_002align, __D0align
69	390	496	#line 390 "C:\Users\ken\Desktop\C85\pfilter prob.nxc"
69	391	496		set __D0align, 25
69	390	499	#line 390 "C:\Users\ken\Desktop\C85\pfilter prob.nxc"
69	391	499		mov __signed_stack_003align, __D0align
69	390	501	#line 390 "C:\Users\ken\Desktop\C85\pfilter prob.nxc"
69	391	501		mov __D0align, __align_7qG2_dist_7qG2_000
69	390	504	#line 390 "C:\Users\ken\Desktop\C85\pfilter prob.nxc"
69	391	504		div __D0align, __signed_stack_003align, __D0align
69	390	508	#line 390 "C:\Users\ken\Desktop\C85\pfilter prob.nxc"
69	391	508		mul __D0align, __signed_stack_002align, __D0align
69	390	512	#line 390 "C:\Users\ken\Desktop\C85\pfilter prob.nxc"
69	391	512		mov __signed_stack_002align, __D0align
69	391	514	#line 391 "C:\Users\ken\Desktop\C85\pfilter prob.nxc"
69	392	514		set __D0align, 6
69	391	517	#line 391 "C:\Users\ken\Desktop\C85\pfilter prob.nxc"
69	392	517		div __D0align, __signed_stack_002align, __D0align
69	391	521	#line 391 "C:\Users\ken\Desktop\C85\pfilter prob.nxc"
69	392	521		add __D0align, __signed_stack_001align, __D0align
69	391	525	#line 391 "C:\Users\ken\Desktop\C85\pfilter prob.nxc"
69	392	525		mov __align_7qG2_theta_7qG2_003, __D0align
69	391	527	#line 391 "C:\Users\ken\Desktop\C85\pfilter prob.nxc"
69	392	527		mov __DF0align, __align_7qG2_theta_7qG2_003
69	391	529	#line 391 "C:\Users\ken\Desktop\C85\pfilter prob.nxc"
69	392	529		mov __float_stack_001align, __DF0align
69	391	531	#line 391 "C:\Users\ken\Desktop\C85\pfilter prob.nxc"
69	392	531		mov __DF0align, __constValf52P3
69	391	533	#line 391 "C:\Users\ken\Desktop\C85\pfilter prob.nxc"
69	392	533		mul __DF0align, __float_stack_001align, __DF0align
69	393	537	#line 393 "C:\Users\ken\Desktop\C85\pfilter prob.nxc"
69	394	537		mov __align_7qG2_angle_7qG2_003, __DF0align
69	393	539	#line 393 "C:\Users\ken\Desktop\C85\pfilter prob.nxc"
69	394	539		mov __DF0align, __align_7qG2_angle_7qG2_003
69	393	541	#line 393 "C:\Users\ken\Desktop\C85\pfilter prob.nxc"
69	394	541		mov __float_stack_001align, __DF0align
69	393	543	#line 393 "C:\Users\ken\Desktop\C85\pfilter prob.nxc"
69	394	543		mov __DF0align, __constVal45
69	393	546	#line 393 "C:\Users\ken\Desktop\C85\pfilter prob.nxc"
69	394	546		add __DF0align, __float_stack_001align, __DF0align
69	393	550	#line 393 "C:\Users\ken\Desktop\C85\pfilter prob.nxc"
69	394	550		mov __float_stack_001align, __DF0align
69	393	552	#line 393 "C:\Users\ken\Desktop\C85\pfilter prob.nxc"
69	394	552		mov __DF0align, __constVal2
69	393	555	#line 393 "C:\Users\ken\Desktop\C85\pfilter prob.nxc"
69	394	555		div __DF0align, __float_stack_001align, __DF0align
69	393	559	#line 393 "C:\Users\ken\Desktop\C85\pfilter prob.nxc"
69	394	559		mov __rotate_7qG2_degrees_7qG2_000, __DF0align
69	393	561	#line 393 "C:\Users\ken\Desktop\C85\pfilter prob.nxc"
69	394	561		mov __DF0align, __constVal0
69	393	564	#line 393 "C:\Users\ken\Desktop\C85\pfilter prob.nxc"
69	394	564		mov __rotate_7qG2_mode_7qG2_000, __DF0align
69	394	567	#line 394 "C:\Users\ken\Desktop\C85\pfilter prob.nxc"
69	395	567		subcall rotate, __rotate_return
69	394	570	#line 394 "C:\Users\ken\Desktop\C85\pfilter prob.nxc"
69	396	570	#line 396 "C:\Users\ken\Desktop\C85\pfilter prob.nxc"
69	396	570	#line 396 "C:\Users\ken\Desktop\C85\pfilter prob.nxc"
69	398	570	#line 398 "C:\Users\ken\Desktop\C85\pfilter prob.nxc"
69	399	570		jmp __NXC_Label_1052
69	398	572	#line 398 "C:\Users\ken\Desktop\C85\pfilter prob.nxc"
69	399	572		mov __DF0align, __constVal25
69	398	575	#line 398 "C:\Users\ken\Desktop\C85\pfilter prob.nxc"
69	399	575		mov __float_stack_001align, __DF0align
69	398	577	#line 398 "C:\Users\ken\Desktop\C85\pfilter prob.nxc"
69	399	577		mov __D0align, __align_7qG2_dist_7qG2_000
69	398	580	#line 398 "C:\Users\ken\Desktop\C85\pfilter prob.nxc"
69	399	580		div __DF0align, __float_stack_001align, __D0align
69	399	584	#line 399 "C:\Users\ken\Desktop\C85\pfilter prob.nxc"
69	400	584		mov __align_7qG2_theta_7qG2_001, __DF0align
69	399	586	#line 399 "C:\Users\ken\Desktop\C85\pfilter prob.nxc"
69	400	586		mov __DF0align, __constVal90
69	399	589	#line 399 "C:\Users\ken\Desktop\C85\pfilter prob.nxc"
69	400	589		mov __float_stack_001align, __DF0align
69	399	591	#line 399 "C:\Users\ken\Desktop\C85\pfilter prob.nxc"
69	400	591		mov __DF0align, __align_7qG2_theta_7qG2_001
69	399	593	#line 399 "C:\Users\ken\Desktop\C85\pfilter prob.nxc"
69	400	593		mov __float_stack_002align, __DF0align
69	399	595	#line 399 "C:\Users\ken\Desktop\C85\pfilter prob.nxc"
69	400	595		mov __DF0align, __constValf52P3
69	399	597	#line 399 "C:\Users\ken\Desktop\C85\pfilter prob.nxc"
69	400	597		mul __DF0align, __float_stack_002align, __DF0align
69	400	601	#line 400 "C:\Users\ken\Desktop\C85\pfilter prob.nxc"
69	401	601		sub __DF0align, __float_stack_001align, __DF0align
69	400	605	#line 400 "C:\Users\ken\Desktop\C85\pfilter prob.nxc"
69	401	605		mov __align_7qG2_angle_7qG2_001, __DF0align
69	400	607	#line 400 "C:\Users\ken\Desktop\C85\pfilter prob.nxc"
69	401	607		set __D0align, 0
69	400	610	#line 400 "C:\Users\ken\Desktop\C85\pfilter prob.nxc"
69	401	610		mov __signed_stack_001align, __D0align
69	400	612	#line 400 "C:\Users\ken\Desktop\C85\pfilter prob.nxc"
69	401	612		mov __DF0align, __align_7qG2_angle_7qG2_001
69	400	614	#line 400 "C:\Users\ken\Desktop\C85\pfilter prob.nxc"
69	401	614		sub __DF0align, __signed_stack_001align, __DF0align
69	400	618	#line 400 "C:\Users\ken\Desktop\C85\pfilter prob.nxc"
69	401	618		mov __rotate_7qG2_degrees_7qG2_000, __DF0align
69	400	620	#line 400 "C:\Users\ken\Desktop\C85\pfilter prob.nxc"
69	401	620		mov __DF0align, __constVal0
69	400	623	#line 400 "C:\Users\ken\Desktop\C85\pfilter prob.nxc"
69	401	623		mov __rotate_7qG2_mode_7qG2_000, __DF0align
69	401	626	#line 401 "C:\Users\ken\Desktop\C85\pfilter prob.nxc"
69	402	626		subcall rotate, __rotate_return
69	401	629	#line 401 "C:\Users\ken\Desktop\C85\pfilter prob.nxc"
69	410	629	#line 410 "C:\Users\ken\Desktop\C85\pfilter prob.nxc"
69	410	629	#line 410 "C:\Users\ken\Desktop\C85\pfilter prob.nxc"
69	411	629		subret __align_return
70	412	0	#line 412 "C:\Users\ken\Desktop\C85\pfilter prob.nxc"
70	413	0		mov __DF0move_robot, __constVal6
70	412	3	#line 412 "C:\Users\ken\Desktop\C85\pfilter prob.nxc"
70	413	3		mov __move_robot_7qG2_old_7qG2_000, __DF0move_robot
70	412	6	#line 412 "C:\Users\ken\Desktop\C85\pfilter prob.nxc"
70	413	6		set __D0move_robot, 1
70	413	9	#line 413 "C:\Users\ken\Desktop\C85\pfilter prob.nxc"
70	414	9		tst 5, __zfmove_robot, __D0move_robot
70	413	12	#line 413 "C:\Users\ken\Desktop\C85\pfilter prob.nxc"
70	414	12		brtst 4, __NXC_Label_1068, __zfmove_robot
70	414	15	#line 414 "C:\Users\ken\Desktop\C85\pfilter prob.nxc"
70	415	15		subcall colour, __colour_return
70	414	18	#line 414 "C:\Users\ken\Desktop\C85\pfilter prob.nxc"
70	415	18		mov __D0move_robot, __D0colour
70	414	20	#line 414 "C:\Users\ken\Desktop\C85\pfilter prob.nxc"
70	415	20		mov __move_robot_7qG2_old_7qG2_000, __D0move_robot
70	414	23	#line 414 "C:\Users\ken\Desktop\C85\pfilter prob.nxc"
70	414	23	#line 414 "C:\Users\ken\Desktop\C85\pfilter prob.nxc"
70	415	23		set __D0move_robot, 0
70	414	26	#line 414 "C:\Users\ken\Desktop\C85\pfilter prob.nxc"
70	415	26		mov __measure_7qG2_mode_7qG2_000, __D0move_robot
70	414	29	#line 414 "C:\Users\ken\Desktop\C85\pfilter prob.nxc"
70	415	29		set __D0move_robot, 0
70	414	32	#line 414 "C:\Users\ken\Desktop\C85\pfilter prob.nxc"
70	415	32		mov __measure_7qG2_backtrack_7qG2_000, __D0move_robot
70	415	35	#line 415 "C:\Users\ken\Desktop\C85\pfilter prob.nxc"
70	416	35		subcall measure, __measure_return
70	415	38	#line 415 "C:\Users\ken\Desktop\C85\pfilter prob.nxc"
70	416	38		mov __D0move_robot, __D0measure
70	415	40	#line 415 "C:\Users\ken\Desktop\C85\pfilter prob.nxc"
70	416	40		mov __move_robot_7qG2_dist_7qG2_001, __D0move_robot
70	417	43	#line 417 "C:\Users\ken\Desktop\C85\pfilter prob.nxc"
70	418	43		subcall colour, __colour_return
70	417	46	#line 417 "C:\Users\ken\Desktop\C85\pfilter prob.nxc"
70	418	46		mov __D0move_robot, __D0colour
70	417	48	#line 417 "C:\Users\ken\Desktop\C85\pfilter prob.nxc"
70	418	48		mov __move_robot_7qG2_col_7qG2_001, __D0move_robot
70	417	51	#line 417 "C:\Users\ken\Desktop\C85\pfilter prob.nxc"
70	418	51		mov __D0move_robot, __move_robot_7qG2_col_7qG2_001
70	417	54	#line 417 "C:\Users\ken\Desktop\C85\pfilter prob.nxc"
70	418	54		mov __signed_stack_001move_robot, __D0move_robot
70	417	57	#line 417 "C:\Users\ken\Desktop\C85\pfilter prob.nxc"
70	418	57		set __D0move_robot, 4
70	417	60	#line 417 "C:\Users\ken\Desktop\C85\pfilter prob.nxc"
70	418	60		cmp 4, __zfmove_robot, __signed_stack_001move_robot, __D0move_robot
70	417	64	#line 417 "C:\Users\ken\Desktop\C85\pfilter prob.nxc"
70	418	64		mov __D0move_robot, __zfmove_robot
70	417	67	#line 417 "C:\Users\ken\Desktop\C85\pfilter prob.nxc"
70	418	67		brtst 4, __NXC_Label_1083, __zfmove_robot
70	418	70	#line 418 "C:\Users\ken\Desktop\C85\pfilter prob.nxc"
70	419	70		subret __move_robot_return
70	418	72	#line 418 "C:\Users\ken\Desktop\C85\pfilter prob.nxc"
70	418	72	#line 418 "C:\Users\ken\Desktop\C85\pfilter prob.nxc"
70	419	72		jmp __NXC_Label_1084
70	418	74	#line 418 "C:\Users\ken\Desktop\C85\pfilter prob.nxc"
70	419	74		mov __D0move_robot, __move_robot_7qG2_col_7qG2_001
70	418	77	#line 418 "C:\Users\ken\Desktop\C85\pfilter prob.nxc"
70	419	77		mov __signed_stack_001move_robot, __D0move_robot
70	418	80	#line 418 "C:\Users\ken\Desktop\C85\pfilter prob.nxc"
70	419	80		set __D0move_robot, 5
70	418	83	#line 418 "C:\Users\ken\Desktop\C85\pfilter prob.nxc"
70	419	83		cmp 4, __zfmove_robot, __signed_stack_001move_robot, __D0move_robot
70	418	87	#line 418 "C:\Users\ken\Desktop\C85\pfilter prob.nxc"
70	419	87		mov __D0move_robot, __zfmove_robot
70	418	90	#line 418 "C:\Users\ken\Desktop\C85\pfilter prob.nxc"
70	419	90		brtst 4, __NXC_Label_1087, __zfmove_robot
70	418	93	#line 418 "C:\Users\ken\Desktop\C85\pfilter prob.nxc"
70	419	93		set __D0move_robot, 180
70	418	96	#line 418 "C:\Users\ken\Desktop\C85\pfilter prob.nxc"
70	419	96		mov __rotate_7qG2_degrees_7qG2_000, __D0move_robot
70	418	98	#line 418 "C:\Users\ken\Desktop\C85\pfilter prob.nxc"
70	419	98		set __D0move_robot, 0
70	418	101	#line 418 "C:\Users\ken\Desktop\C85\pfilter prob.nxc"
70	419	101		mov __rotate_7qG2_mode_7qG2_000, __D0move_robot
70	420	104	#line 420 "C:\Users\ken\Desktop\C85\pfilter prob.nxc"
70	421	104		subcall rotate, __rotate_return
70	420	107	#line 420 "C:\Users\ken\Desktop\C85\pfilter prob.nxc"
70	420	107	#line 420 "C:\Users\ken\Desktop\C85\pfilter prob.nxc"
70	421	107		jmp __NXC_Label_1092
70	420	109	#line 420 "C:\Users\ken\Desktop\C85\pfilter prob.nxc"
70	421	109		mov __D0move_robot, __move_robot_7qG2_old_7qG2_000
70	420	112	#line 420 "C:\Users\ken\Desktop\C85\pfilter prob.nxc"
70	421	112		mov __signed_stack_001move_robot, __D0move_robot
70	420	115	#line 420 "C:\Users\ken\Desktop\C85\pfilter prob.nxc"
70	421	115		set __D0move_robot, 1
70	420	118	#line 420 "C:\Users\ken\Desktop\C85\pfilter prob.nxc"
70	421	118		cmp 4, __zfmove_robot, __signed_stack_001move_robot, __D0move_robot
70	420	122	#line 420 "C:\Users\ken\Desktop\C85\pfilter prob.nxc"
70	421	122		mov __D0move_robot, __zfmove_robot
70	422	125	#line 422 "C:\Users\ken\Desktop\C85\pfilter prob.nxc"
70	423	125		brtst 4, __NXC_Label_1095, __zfmove_robot
70	422	128	#line 422 "C:\Users\ken\Desktop\C85\pfilter prob.nxc"
70	423	128		mov __D0move_robot, __move_robot_7qG2_dist_7qG2_001
70	422	131	#line 422 "C:\Users\ken\Desktop\C85\pfilter prob.nxc"
70	423	131		mov __align_7qG2_dist_7qG2_000, __D0move_robot
70	423	134	#line 423 "C:\Users\ken\Desktop\C85\pfilter prob.nxc"
70	424	134		subcall align, __align_return
70	423	137	#line 423 "C:\Users\ken\Desktop\C85\pfilter prob.nxc"
70	426	137	#line 426 "C:\Users\ken\Desktop\C85\pfilter prob.nxc"
70	426	137	#line 426 "C:\Users\ken\Desktop\C85\pfilter prob.nxc"
70	426	137	#line 426 "C:\Users\ken\Desktop\C85\pfilter prob.nxc"
70	439	137	#line 439 "C:\Users\ken\Desktop\C85\pfilter prob.nxc"
70	440	137		jmp __NXC_Label_1067
70	439	139	#line 439 "C:\Users\ken\Desktop\C85\pfilter prob.nxc"
70	439	139	#line 439 "C:\Users\ken\Desktop\C85\pfilter prob.nxc"
70	440	139		subret __move_robot_return
71	443	0	#line 443 "C:\Users\ken\Desktop\C85\pfilter prob.nxc"
71	444	0		mov __D0move_to, __move_to_7qG2_x2_7qG2_000
71	443	2	#line 443 "C:\Users\ken\Desktop\C85\pfilter prob.nxc"
71	444	2		mov __signed_stack_001move_to, __D0move_to
71	446	5	#line 446 "C:\Users\ken\Desktop\C85\pfilter prob.nxc"
71	447	5		mov __D0move_to, __move_to_7qG2_x1_7qG2_000
71	446	8	#line 446 "C:\Users\ken\Desktop\C85\pfilter prob.nxc"
71	447	8		sub __D0move_to, __signed_stack_001move_to, __D0move_to
71	446	12	#line 446 "C:\Users\ken\Desktop\C85\pfilter prob.nxc"
71	447	12		mov __move_to_7qG2_dx_7qG2_000, __D0move_to
71	446	14	#line 446 "C:\Users\ken\Desktop\C85\pfilter prob.nxc"
71	447	14		mov __D0move_to, __move_to_7qG2_dx_7qG2_000
71	446	16	#line 446 "C:\Users\ken\Desktop\C85\pfilter prob.nxc"
71	447	16		mov __signed_stack_001move_to, __D0move_to
71	446	19	#line 446 "C:\Users\ken\Desktop\C85\pfilter prob.nxc"
71	447	19		set __D0move_to, 0
71	446	22	#line 446 "C:\Users\ken\Desktop\C85\pfilter prob.nxc"
71	447	22		cmp 0, __zfmove_to, __signed_stack_001move_to, __D0move_to
71	446	26	#line 446 "C:\Users\ken\Desktop\C85\pfilter prob.nxc"
71	447	26		mov __D0move_to, __zfmove_to
71	447	29	#line 447 "C:\Users\ken\Desktop\C85\pfilter prob.nxc"
71	448	29		brtst 4, __NXC_Label_1102, __zfmove_to
71	447	32	#line 447 "C:\Users\ken\Desktop\C85\pfilter prob.nxc"
71	448	32		mov __D0move_to, __move_to_7qG2_h_7qG2_000
71	447	34	#line 447 "C:\Users\ken\Desktop\C85\pfilter prob.nxc"
71	448	34		mov __change_direction_7qG2_orig_7qG2_000, __D0move_to
71	447	37	#line 447 "C:\Users\ken\Desktop\C85\pfilter prob.nxc"
71	448	37		set __D0move_to, 3
71	447	40	#line 447 "C:\Users\ken\Desktop\C85\pfilter prob.nxc"
71	448	40		mov __change_direction_7qG2_new_7qG2_000, __D0move_to
71	448	43	#line 448 "C:\Users\ken\Desktop\C85\pfilter prob.nxc"
71	449	43		subcall change_direction, __change_direction_return
71	448	46	#line 448 "C:\Users\ken\Desktop\C85\pfilter prob.nxc"
71	449	46	#line 449 "C:\Users\ken\Desktop\C85\pfilter prob.nxc"
71	450	46		set __D0move_to, 3
71	449	49	#line 449 "C:\Users\ken\Desktop\C85\pfilter prob.nxc"
71	450	49		mov __move_to_7qG2_h_7qG2_000, __D0move_to
71	449	51	#line 449 "C:\Users\ken\Desktop\C85\pfilter prob.nxc"
71	449	51	#line 449 "C:\Users\ken\Desktop\C85\pfilter prob.nxc"
71	450	51		jmp __NXC_Label_1109
71	449	53	#line 449 "C:\Users\ken\Desktop\C85\pfilter prob.nxc"
71	450	53		mov __D0move_to, __move_to_7qG2_dx_7qG2_000
71	449	55	#line 449 "C:\Users\ken\Desktop\C85\pfilter prob.nxc"
71	450	55		mov __signed_stack_001move_to, __D0move_to
71	449	58	#line 449 "C:\Users\ken\Desktop\C85\pfilter prob.nxc"
71	450	58		set __D0move_to, 0
71	449	61	#line 449 "C:\Users\ken\Desktop\C85\pfilter prob.nxc"
71	450	61		cmp 1, __zfmove_to, __signed_stack_001move_to, __D0move_to
71	449	65	#line 449 "C:\Users\ken\Desktop\C85\pfilter prob.nxc"
71	450	65		mov __D0move_to, __zfmove_to
71	450	68	#line 450 "C:\Users\ken\Desktop\C85\pfilter prob.nxc"
71	451	68		brtst 4, __NXC_Label_1112, __zfmove_to
71	450	71	#line 450 "C:\Users\ken\Desktop\C85\pfilter prob.nxc"
71	451	71		mov __D0move_to, __move_to_7qG2_h_7qG2_000
71	450	73	#line 450 "C:\Users\ken\Desktop\C85\pfilter prob.nxc"
71	451	73		mov __change_direction_7qG2_orig_7qG2_000, __D0move_to
71	450	76	#line 450 "C:\Users\ken\Desktop\C85\pfilter prob.nxc"
71	451	76		set __D0move_to, 1
71	450	79	#line 450 "C:\Users\ken\Desktop\C85\pfilter prob.nxc"
71	451	79		mov __change_direction_7qG2_new_7qG2_000, __D0move_to
71	451	82	#line 451 "C:\Users\ken\Desktop\C85\pfilter prob.nxc"
71	452	82		subcall change_direction, __change_direction_return
71	451	85	#line 451 "C:\Users\ken\Desktop\C85\pfilter prob.nxc"
71	452	85	#line 452 "C:\Users\ken\Desktop\C85\pfilter prob.nxc"
71	453	85		set __D0move_to, 1
71	452	88	#line 452 "C:\Users\ken\Desktop\C85\pfilter prob.nxc"
71	453	88		mov __move_to_7qG2_h_7qG2_000, __D0move_to
71	452	90	#line 452 "C:\Users\ken\Desktop\C85\pfilter prob.nxc"
71	455	90	#line 455 "C:\Users\ken\Desktop\C85\pfilter prob.nxc"
71	455	90	#line 455 "C:\Users\ken\Desktop\C85\pfilter prob.nxc"
71	455	90	#line 455 "C:\Users\ken\Desktop\C85\pfilter prob.nxc"
71	456	90		set __D0move_to, 0
71	455	93	#line 455 "C:\Users\ken\Desktop\C85\pfilter prob.nxc"
71	456	93		mov __move_to_7qG2_i_7qG2_000, __D0move_to
71	455	95	#line 455 "C:\Users\ken\Desktop\C85\pfilter prob.nxc"
71	456	95		mov __D0move_to, __move_to_7qG2_i_7qG2_000
71	455	97	#line 455 "C:\Users\ken\Desktop\C85\pfilter prob.nxc"
71	456	97		mov __signed_stack_001move_to, __D0move_to
71	455	100	#line 455 "C:\Users\ken\Desktop\C85\pfilter prob.nxc"
71	456	100		mov __D0move_to, __move_to_7qG2_dx_7qG2_000
71	455	102	#line 455 "C:\Users\ken\Desktop\C85\pfilter prob.nxc"
71	456	102		mov __signed_stack_002move_to, __D0move_to
71	455	105	#line 455 "C:\Users\ken\Desktop\C85\pfilter prob.nxc"
71	456	105		set __D0move_to, 0
71	455	108	#line 455 "C:\Users\ken\Desktop\C85\pfilter prob.nxc"
71	456	108		cmp 0, __zfmove_to, __signed_stack_002move_to, __D0move_to
71	455	112	#line 455 "C:\Users\ken\Desktop\C85\pfilter prob.nxc"
71	456	112		mov __D0move_to, __zfmove_to
71	455	115	#line 455 "C:\Users\ken\Desktop\C85\pfilter prob.nxc"
71	456	115		brtst 4, __NXC_Label_1129, __zfmove_to
71	455	118	#line 455 "C:\Users\ken\Desktop\C85\pfilter prob.nxc"
71	456	118		set __D0move_to, 0
71	455	121	#line 455 "C:\Users\ken\Desktop\C85\pfilter prob.nxc"
71	456	121		mov __signed_stack_002move_to, __D0move_to
71	455	124	#line 455 "C:\Users\ken\Desktop\C85\pfilter prob.nxc"
71	456	124		mov __D0move_to, __move_to_7qG2_dx_7qG2_000
71	455	126	#line 455 "C:\Users\ken\Desktop\C85\pfilter prob.nxc"
71	456	126		sub __D0move_to, __signed_stack_002move_to, __D0move_to
71	455	130	#line 455 "C:\Users\ken\Desktop\C85\pfilter prob.nxc"
71	456	130		jmp __NXC_Label_1130
71	455	132	#line 455 "C:\Users\ken\Desktop\C85\pfilter prob.nxc"
71	456	132		mov __D0move_to, __move_to_7qG2_dx_7qG2_000
71	455	134	#line 455 "C:\Users\ken\Desktop\C85\pfilter prob.nxc"
71	456	134		cmp 0, __zfmove_to, __signed_stack_001move_to, __D0move_to
71	455	138	#line 455 "C:\Users\ken\Desktop\C85\pfilter prob.nxc"
71	456	138		mov __D0move_to, __zfmove_to
71	455	141	#line 455 "C:\Users\ken\Desktop\C85\pfilter prob.nxc"
71	456	141		brtst 4, __NXC_Label_1120, __zfmove_to
71	455	144	#line 455 "C:\Users\ken\Desktop\C85\pfilter prob.nxc"
71	456	144		jmp __NXC_Label_1121
71	455	146	#line 455 "C:\Users\ken\Desktop\C85\pfilter prob.nxc"
71	456	146		add __move_to_7qG2_i_7qG2_000, __move_to_7qG2_i_7qG2_000, __constVal1
71	456	150	#line 456 "C:\Users\ken\Desktop\C85\pfilter prob.nxc"
71	457	150		jmp __NXC_Label_1119
71	457	152	#line 457 "C:\Users\ken\Desktop\C85\pfilter prob.nxc"
71	458	152		subcall move_robot, __move_robot_return
71	457	155	#line 457 "C:\Users\ken\Desktop\C85\pfilter prob.nxc"
71	460	155	#line 460 "C:\Users\ken\Desktop\C85\pfilter prob.nxc"
71	461	155		jmp __NXC_Label_1122
71	460	157	#line 460 "C:\Users\ken\Desktop\C85\pfilter prob.nxc"
71	460	157	#line 460 "C:\Users\ken\Desktop\C85\pfilter prob.nxc"
71	461	157		mov __D0move_to, __move_to_7qG2_y2_7qG2_000
71	460	159	#line 460 "C:\Users\ken\Desktop\C85\pfilter prob.nxc"
71	461	159		mov __signed_stack_001move_to, __D0move_to
71	463	162	#line 463 "C:\Users\ken\Desktop\C85\pfilter prob.nxc"
71	464	162		mov __D0move_to, __move_to_7qG2_y1_7qG2_000
71	463	165	#line 463 "C:\Users\ken\Desktop\C85\pfilter prob.nxc"
71	464	165		sub __D0move_to, __signed_stack_001move_to, __D0move_to
71	463	169	#line 463 "C:\Users\ken\Desktop\C85\pfilter prob.nxc"
71	464	169		mov __move_to_7qG2_dy_7qG2_000, __D0move_to
71	463	171	#line 463 "C:\Users\ken\Desktop\C85\pfilter prob.nxc"
71	464	171		mov __D0move_to, __move_to_7qG2_dy_7qG2_000
71	463	173	#line 463 "C:\Users\ken\Desktop\C85\pfilter prob.nxc"
71	464	173		mov __signed_stack_001move_to, __D0move_to
71	463	176	#line 463 "C:\Users\ken\Desktop\C85\pfilter prob.nxc"
71	464	176		set __D0move_to, 0
71	463	179	#line 463 "C:\Users\ken\Desktop\C85\pfilter prob.nxc"
71	464	179		cmp 1, __zfmove_to, __signed_stack_001move_to, __D0move_to
71	463	183	#line 463 "C:\Users\ken\Desktop\C85\pfilter prob.nxc"
71	464	183		mov __D0move_to, __zfmove_to
71	464	186	#line 464 "C:\Users\ken\Desktop\C85\pfilter prob.nxc"
71	465	186		brtst 4, __NXC_Label_1139, __zfmove_to
71	464	189	#line 464 "C:\Users\ken\Desktop\C85\pfilter prob.nxc"
71	465	189		mov __D0move_to, __move_to_7qG2_h_7qG2_000
71	464	191	#line 464 "C:\Users\ken\Desktop\C85\pfilter prob.nxc"
71	465	191		mov __change_direction_7qG2_orig_7qG2_000, __D0move_to
71	464	194	#line 464 "C:\Users\ken\Desktop\C85\pfilter prob.nxc"
71	465	194		set __D0move_to, 2
71	464	197	#line 464 "C:\Users\ken\Desktop\C85\pfilter prob.nxc"
71	465	197		mov __change_direction_7qG2_new_7qG2_000, __D0move_to
71	465	200	#line 465 "C:\Users\ken\Desktop\C85\pfilter prob.nxc"
71	466	200		subcall change_direction, __change_direction_return
71	465	203	#line 465 "C:\Users\ken\Desktop\C85\pfilter prob.nxc"
71	466	203	#line 466 "C:\Users\ken\Desktop\C85\pfilter prob.nxc"
71	467	203		set __D0move_to, 2
71	466	206	#line 466 "C:\Users\ken\Desktop\C85\pfilter prob.nxc"
71	467	206		mov __move_to_7qG2_h_7qG2_000, __D0move_to
71	466	208	#line 466 "C:\Users\ken\Desktop\C85\pfilter prob.nxc"
71	466	208	#line 466 "C:\Users\ken\Desktop\C85\pfilter prob.nxc"
71	467	208		jmp __NXC_Label_1146
71	466	210	#line 466 "C:\Users\ken\Desktop\C85\pfilter prob.nxc"
71	467	210		mov __D0move_to, __move_to_7qG2_dy_7qG2_000
71	466	212	#line 466 "C:\Users\ken\Desktop\C85\pfilter prob.nxc"
71	467	212		mov __signed_stack_001move_to, __D0move_to
71	466	215	#line 466 "C:\Users\ken\Desktop\C85\pfilter prob.nxc"
71	467	215		set __D0move_to, 0
71	466	218	#line 466 "C:\Users\ken\Desktop\C85\pfilter prob.nxc"
71	467	218		cmp 0, __zfmove_to, __signed_stack_001move_to, __D0move_to
71	466	222	#line 466 "C:\Users\ken\Desktop\C85\pfilter prob.nxc"
71	467	222		mov __D0move_to, __zfmove_to
71	467	225	#line 467 "C:\Users\ken\Desktop\C85\pfilter prob.nxc"
71	468	225		brtst 4, __NXC_Label_1149, __zfmove_to
71	467	228	#line 467 "C:\Users\ken\Desktop\C85\pfilter prob.nxc"
71	468	228		mov __D0move_to, __move_to_7qG2_h_7qG2_000
71	467	230	#line 467 "C:\Users\ken\Desktop\C85\pfilter prob.nxc"
71	468	230		mov __change_direction_7qG2_orig_7qG2_000, __D0move_to
71	467	233	#line 467 "C:\Users\ken\Desktop\C85\pfilter prob.nxc"
71	468	233		set __D0move_to, 0
71	467	236	#line 467 "C:\Users\ken\Desktop\C85\pfilter prob.nxc"
71	468	236		mov __change_direction_7qG2_new_7qG2_000, __D0move_to
71	468	239	#line 468 "C:\Users\ken\Desktop\C85\pfilter prob.nxc"
71	469	239		subcall change_direction, __change_direction_return
71	468	242	#line 468 "C:\Users\ken\Desktop\C85\pfilter prob.nxc"
71	469	242	#line 469 "C:\Users\ken\Desktop\C85\pfilter prob.nxc"
71	470	242		set __D0move_to, 0
71	469	245	#line 469 "C:\Users\ken\Desktop\C85\pfilter prob.nxc"
71	470	245		mov __move_to_7qG2_h_7qG2_000, __D0move_to
71	469	247	#line 469 "C:\Users\ken\Desktop\C85\pfilter prob.nxc"
71	472	247	#line 472 "C:\Users\ken\Desktop\C85\pfilter prob.nxc"
71	472	247	#line 472 "C:\Users\ken\Desktop\C85\pfilter prob.nxc"
71	472	247	#line 472 "C:\Users\ken\Desktop\C85\pfilter prob.nxc"
71	473	247		set __D0move_to, 0
71	472	250	#line 472 "C:\Users\ken\Desktop\C85\pfilter prob.nxc"
71	473	250		mov __move_to_7qG2_i_7qG2_000, __D0move_to
71	472	252	#line 472 "C:\Users\ken\Desktop\C85\pfilter prob.nxc"
71	473	252		mov __D0move_to, __move_to_7qG2_i_7qG2_000
71	472	254	#line 472 "C:\Users\ken\Desktop\C85\pfilter prob.nxc"
71	473	254		mov __signed_stack_001move_to, __D0move_to
71	472	257	#line 472 "C:\Users\ken\Desktop\C85\pfilter prob.nxc"
71	473	257		mov __D0move_to, __move_to_7qG2_dy_7qG2_000
71	472	259	#line 472 "C:\Users\ken\Desktop\C85\pfilter prob.nxc"
71	473	259		mov __signed_stack_002move_to, __D0move_to
71	472	262	#line 472 "C:\Users\ken\Desktop\C85\pfilter prob.nxc"
71	473	262		set __D0move_to, 0
71	472	265	#line 472 "C:\Users\ken\Desktop\C85\pfilter prob.nxc"
71	473	265		cmp 0, __zfmove_to, __signed_stack_002move_to, __D0move_to
71	472	269	#line 472 "C:\Users\ken\Desktop\C85\pfilter prob.nxc"
71	473	269		mov __D0move_to, __zfmove_to
71	472	272	#line 472 "C:\Users\ken\Desktop\C85\pfilter prob.nxc"
71	473	272		brtst 4, __NXC_Label_1166, __zfmove_to
71	472	275	#line 472 "C:\Users\ken\Desktop\C85\pfilter prob.nxc"
71	473	275		set __D0move_to, 0
71	472	278	#line 472 "C:\Users\ken\Desktop\C85\pfilter prob.nxc"
71	473	278		mov __signed_stack_002move_to, __D0move_to
71	472	281	#line 472 "C:\Users\ken\Desktop\C85\pfilter prob.nxc"
71	473	281		mov __D0move_to, __move_to_7qG2_dy_7qG2_000
71	472	283	#line 472 "C:\Users\ken\Desktop\C85\pfilter prob.nxc"
71	473	283		sub __D0move_to, __signed_stack_002move_to, __D0move_to
71	472	287	#line 472 "C:\Users\ken\Desktop\C85\pfilter prob.nxc"
71	473	287		jmp __NXC_Label_1167
71	472	289	#line 472 "C:\Users\ken\Desktop\C85\pfilter prob.nxc"
71	473	289		mov __D0move_to, __move_to_7qG2_dy_7qG2_000
71	472	291	#line 472 "C:\Users\ken\Desktop\C85\pfilter prob.nxc"
71	473	291		cmp 0, __zfmove_to, __signed_stack_001move_to, __D0move_to
71	472	295	#line 472 "C:\Users\ken\Desktop\C85\pfilter prob.nxc"
71	473	295		mov __D0move_to, __zfmove_to
71	472	298	#line 472 "C:\Users\ken\Desktop\C85\pfilter prob.nxc"
71	473	298		brtst 4, __NXC_Label_1157, __zfmove_to
71	472	301	#line 472 "C:\Users\ken\Desktop\C85\pfilter prob.nxc"
71	473	301		jmp __NXC_Label_1158
71	472	303	#line 472 "C:\Users\ken\Desktop\C85\pfilter prob.nxc"
71	473	303		add __move_to_7qG2_i_7qG2_000, __move_to_7qG2_i_7qG2_000, __constVal1
71	473	307	#line 473 "C:\Users\ken\Desktop\C85\pfilter prob.nxc"
71	474	307		jmp __NXC_Label_1156
71	474	309	#line 474 "C:\Users\ken\Desktop\C85\pfilter prob.nxc"
71	475	309		subcall move_robot, __move_robot_return
71	474	312	#line 474 "C:\Users\ken\Desktop\C85\pfilter prob.nxc"
71	476	312	#line 476 "C:\Users\ken\Desktop\C85\pfilter prob.nxc"
71	477	312		jmp __NXC_Label_1159
71	476	314	#line 476 "C:\Users\ken\Desktop\C85\pfilter prob.nxc"
71	477	314	#line 477 "C:\Users\ken\Desktop\C85\pfilter prob.nxc"
71	478	314		mov __D0move_to, __move_to_7qG2_h_7qG2_000
71	477	316	#line 477 "C:\Users\ken\Desktop\C85\pfilter prob.nxc"
71	478	316		subret __move_to_return
71	477	318	#line 477 "C:\Users\ken\Desktop\C85\pfilter prob.nxc"
71	479	318	#line 479 "C:\Users\ken\Desktop\C85\pfilter prob.nxc"
71	480	318		subret __move_to_return
72	482	0	#line 482 "C:\Users\ken\Desktop\C85\pfilter prob.nxc"
72	483	0		mov __D0_pmove, ___pmove_7qG2_p_7qG2_000.theta
72	486	3		brcmp 4, __NXC_Label_1177, __constVal0, __D0_pmove
72	487	7		brcmp 4, __NXC_Label_1180, __constVal1, __D0_pmove
72	488	11		brcmp 4, __NXC_Label_1183, __constVal2, __D0_pmove
72	489	15		brcmp 4, __NXC_Label_1186, __constVal3, __D0_pmove
72	490	19		jmp __NXC_Label_1176
72	484	21	#line 484 "C:\Users\ken\Desktop\C85\pfilter prob.nxc"
72	485	21	#line 485 "C:\Users\ken\Desktop\C85\pfilter prob.nxc"
72	486	21		set __D0_pmove, 1
72	485	24	#line 485 "C:\Users\ken\Desktop\C85\pfilter prob.nxc"
72	486	24		sub ___pmove_7qG2_p_7qG2_000.y, ___pmove_7qG2_p_7qG2_000.y, __D0_pmove
72	485	28	#line 485 "C:\Users\ken\Desktop\C85\pfilter prob.nxc"
72	486	28	#line 486 "C:\Users\ken\Desktop\C85\pfilter prob.nxc"
72	487	28		jmp __NXC_Label_1176
72	486	30	#line 486 "C:\Users\ken\Desktop\C85\pfilter prob.nxc"
72	487	30	#line 487 "C:\Users\ken\Desktop\C85\pfilter prob.nxc"
72	488	30	#line 488 "C:\Users\ken\Desktop\C85\pfilter prob.nxc"
72	489	30		set __D0_pmove, 1
72	488	33	#line 488 "C:\Users\ken\Desktop\C85\pfilter prob.nxc"
72	489	33		add ___pmove_7qG2_p_7qG2_000.x, ___pmove_7qG2_p_7qG2_000.x, __D0_pmove
72	488	37	#line 488 "C:\Users\ken\Desktop\C85\pfilter prob.nxc"
72	489	37	#line 489 "C:\Users\ken\Desktop\C85\pfilter prob.nxc"
72	490	37		jmp __NXC_Label_1176
72	489	39	#line 489 "C:\Users\ken\Desktop\C85\pfilter prob.nxc"
72	490	39	#line 490 "C:\Users\ken\Desktop\C85\pfilter prob.nxc"
72	491	39	#line 491 "C:\Users\ken\Desktop\C85\pfilter prob.nxc"
72	492	39		set __D0_pmove, 1
72	491	42	#line 491 "C:\Users\ken\Desktop\C85\pfilter prob.nxc"
72	492	42		add ___pmove_7qG2_p_7qG2_000.y, ___pmove_7qG2_p_7qG2_000.y, __D0_pmove
72	491	46	#line 491 "C:\Users\ken\Desktop\C85\pfilter prob.nxc"
72	492	46	#line 492 "C:\Users\ken\Desktop\C85\pfilter prob.nxc"
72	493	46		jmp __NXC_Label_1176
72	492	48	#line 492 "C:\Users\ken\Desktop\C85\pfilter prob.nxc"
72	493	48	#line 493 "C:\Users\ken\Desktop\C85\pfilter prob.nxc"
72	494	48	#line 494 "C:\Users\ken\Desktop\C85\pfilter prob.nxc"
72	495	48		set __D0_pmove, 1
72	494	51	#line 494 "C:\Users\ken\Desktop\C85\pfilter prob.nxc"
72	495	51		sub ___pmove_7qG2_p_7qG2_000.x, ___pmove_7qG2_p_7qG2_000.x, __D0_pmove
72	494	55	#line 494 "C:\Users\ken\Desktop\C85\pfilter prob.nxc"
72	495	55	#line 495 "C:\Users\ken\Desktop\C85\pfilter prob.nxc"
72	496	55		jmp __NXC_Label_1176
72	495	57	#line 495 "C:\Users\ken\Desktop\C85\pfilter prob.nxc"
72	497	57	#line 497 "C:\Users\ken\Desktop\C85\pfilter prob.nxc"
72	498	57	#line 498 "C:\Users\ken\Desktop\C85\pfilter prob.nxc"
72	499	57		mov __result__pmove, ___pmove_7qG2_p_7qG2_000
72	498	60	#line 498 "C:\Users\ken\Desktop\C85\pfilter prob.nxc"
72	499	60		subret ___pmove_return
72	498	62	#line 498 "C:\Users\ken\Desktop\C85\pfilter prob.nxc"
72	505	62	#line 505 "C:\Users\ken\Desktop\C85\pfilter prob.nxc"
72	506	62		subret ___pmove_return
73	506	0	#line 506 "C:\Users\ken\Desktop\C85\pfilter prob.nxc"
73	507	0		mov __D0protate, __protate_7qG2_degrees_7qG2_000
73	506	2	#line 506 "C:\Users\ken\Desktop\C85\pfilter prob.nxc"
73	507	2		mov __signed_stack_001protate, __D0protate
73	507	4	#line 507 "C:\Users\ken\Desktop\C85\pfilter prob.nxc"
73	508	4		set __D0protate, 90
73	507	7	#line 507 "C:\Users\ken\Desktop\C85\pfilter prob.nxc"
73	508	7		div __D0protate, __signed_stack_001protate, __D0protate
73	507	11	#line 507 "C:\Users\ken\Desktop\C85\pfilter prob.nxc"
73	508	11		mov __protate_7qG2_degrees_7qG2_000, __D0protate
73	507	13	#line 507 "C:\Users\ken\Desktop\C85\pfilter prob.nxc"
73	507	13	#line 507 "C:\Users\ken\Desktop\C85\pfilter prob.nxc"
73	508	13		mov __D0protate, __protate_7qG2_p_7qG2_000.theta
73	507	16	#line 507 "C:\Users\ken\Desktop\C85\pfilter prob.nxc"
73	508	16		mov __signed_stack_001protate, __D0protate
73	507	18	#line 507 "C:\Users\ken\Desktop\C85\pfilter prob.nxc"
73	508	18		mov __D0protate, __protate_7qG2_degrees_7qG2_000
73	507	20	#line 507 "C:\Users\ken\Desktop\C85\pfilter prob.nxc"
73	508	20		add __D0protate, __signed_stack_001protate, __D0protate
73	507	24	#line 507 "C:\Users\ken\Desktop\C85\pfilter prob.nxc"
73	508	24		mov __signed_stack_001protate, __D0protate
73	509	26	#line 509 "C:\Users\ken\Desktop\C85\pfilter prob.nxc"
73	510	26		set __D0protate, 4
73	509	29	#line 509 "C:\Users\ken\Desktop\C85\pfilter prob.nxc"
73	510	29		mod __D0protate, __signed_stack_001protate, __D0protate
73	509	33	#line 509 "C:\Users\ken\Desktop\C85\pfilter prob.nxc"
73	510	33		mov __protate_7qG2_p_7qG2_000.theta, __D0protate
73	509	36	#line 509 "C:\Users\ken\Desktop\C85\pfilter prob.nxc"
73	510	36	#line 510 "C:\Users\ken\Desktop\C85\pfilter prob.nxc"
73	511	36		mov __result_protate, __protate_7qG2_p_7qG2_000
73	510	39	#line 510 "C:\Users\ken\Desktop\C85\pfilter prob.nxc"
73	511	39		subret __protate_return
73	510	41	#line 510 "C:\Users\ken\Desktop\C85\pfilter prob.nxc"
73	519	41	#line 519 "C:\Users\ken\Desktop\C85\pfilter prob.nxc"
73	520	41		subret __protate_return
74	520	0	#line 520 "C:\Users\ken\Desktop\C85\pfilter prob.nxc"
74	521	0		mov __D0pmove, __pmove_7qG2_i_7qG2_000
74	520	2	#line 520 "C:\Users\ken\Desktop\C85\pfilter prob.nxc"
74	521	2		mov __signed_stack_001pmove, __D0pmove
74	520	4	#line 520 "C:\Users\ken\Desktop\C85\pfilter prob.nxc"
74	521	4		mov __D0pmove, __pmove_7qG2_i_7qG2_000
74	520	6	#line 520 "C:\Users\ken\Desktop\C85\pfilter prob.nxc"
74	521	6		mov __signed_stack_002pmove, __D0pmove
74	520	8	#line 520 "C:\Users\ken\Desktop\C85\pfilter prob.nxc"
74	521	8		index __ArrHelper__pmoveparticle_219_0, list, __signed_stack_002pmove
74	520	12	#line 520 "C:\Users\ken\Desktop\C85\pfilter prob.nxc"
74	521	12		mov ___pmove_7qG2_p_7qG2_000, __ArrHelper__pmoveparticle_219_0
74	523	15	#line 523 "C:\Users\ken\Desktop\C85\pfilter prob.nxc"
74	524	15		subcall _pmove, ___pmove_return
74	523	18	#line 523 "C:\Users\ken\Desktop\C85\pfilter prob.nxc"
74	524	18		replace list, list, __signed_stack_001pmove, __result__pmove
74	523	23	#line 523 "C:\Users\ken\Desktop\C85\pfilter prob.nxc"
74	523	23	#line 523 "C:\Users\ken\Desktop\C85\pfilter prob.nxc"
74	524	23		mov __D0pmove, __pmove_7qG2_i_7qG2_000
74	523	25	#line 523 "C:\Users\ken\Desktop\C85\pfilter prob.nxc"
74	524	25		mov __signed_stack_001pmove, __D0pmove
74	523	27	#line 523 "C:\Users\ken\Desktop\C85\pfilter prob.nxc"
74	524	27		index __ArrHelper__pmoveparticle_219_0, list, __signed_stack_001pmove
74	523	31	#line 523 "C:\Users\ken\Desktop\C85\pfilter prob.nxc"
74	524	31		mov __D0pmove, __ArrHelper__pmoveparticle_219_0.x
74	523	34	#line 523 "C:\Users\ken\Desktop\C85\pfilter prob.nxc"
74	524	34		mov __signed_stack_001pmove, __D0pmove
74	523	36	#line 523 "C:\Users\ken\Desktop\C85\pfilter prob.nxc"
74	524	36		set __D0pmove, 3
74	523	39	#line 523 "C:\Users\ken\Desktop\C85\pfilter prob.nxc"
74	524	39		mov __signed_stack_002pmove, __D0pmove
74	523	41	#line 523 "C:\Users\ken\Desktop\C85\pfilter prob.nxc"
74	524	41		set __D0pmove, 1
74	523	44	#line 523 "C:\Users\ken\Desktop\C85\pfilter prob.nxc"
74	524	44		sub __D0pmove, __signed_stack_002pmove, __D0pmove
74	523	48	#line 523 "C:\Users\ken\Desktop\C85\pfilter prob.nxc"
74	524	48		cmp 3, __zfpmove, __signed_stack_001pmove, __D0pmove
74	523	52	#line 523 "C:\Users\ken\Desktop\C85\pfilter prob.nxc"
74	524	52		mov __D0pmove, __zfpmove
74	523	55	#line 523 "C:\Users\ken\Desktop\C85\pfilter prob.nxc"
74	524	55		brtst 5, __NXC_Label_1201, __zfpmove
74	523	58	#line 523 "C:\Users\ken\Desktop\C85\pfilter prob.nxc"
74	524	58		mov __signed_stack_001pmove, __D0pmove
74	523	60	#line 523 "C:\Users\ken\Desktop\C85\pfilter prob.nxc"
74	524	60		mov __D0pmove, __pmove_7qG2_i_7qG2_000
74	523	62	#line 523 "C:\Users\ken\Desktop\C85\pfilter prob.nxc"
74	524	62		mov __signed_stack_002pmove, __D0pmove
74	523	64	#line 523 "C:\Users\ken\Desktop\C85\pfilter prob.nxc"
74	524	64		index __ArrHelper__pmoveparticle_219_0, list, __signed_stack_002pmove
74	523	68	#line 523 "C:\Users\ken\Desktop\C85\pfilter prob.nxc"
74	524	68		mov __D0pmove, __ArrHelper__pmoveparticle_219_0.x
74	523	71	#line 523 "C:\Users\ken\Desktop\C85\pfilter prob.nxc"
74	524	71		mov __signed_stack_002pmove, __D0pmove
74	523	73	#line 523 "C:\Users\ken\Desktop\C85\pfilter prob.nxc"
74	524	73		set __D0pmove, 0
74	523	76	#line 523 "C:\Users\ken\Desktop\C85\pfilter prob.nxc"
74	524	76		cmp 0, __zfpmove, __signed_stack_002pmove, __D0pmove
74	523	80	#line 523 "C:\Users\ken\Desktop\C85\pfilter prob.nxc"
74	524	80		mov __D0pmove, __zfpmove
74	523	83	#line 523 "C:\Users\ken\Desktop\C85\pfilter prob.nxc"
74	524	83		or __D0pmove, __signed_stack_001pmove, __D0pmove
74	523	87	#line 523 "C:\Users\ken\Desktop\C85\pfilter prob.nxc"
74	524	87		tst 5, __zfpmove, __D0pmove
74	523	90	#line 523 "C:\Users\ken\Desktop\C85\pfilter prob.nxc"
74	524	90		mov __D0pmove, __zfpmove
74	523	93	#line 523 "C:\Users\ken\Desktop\C85\pfilter prob.nxc"
74	524	93		brtst 5, __NXC_Label_1201, __zfpmove
74	523	96	#line 523 "C:\Users\ken\Desktop\C85\pfilter prob.nxc"
74	524	96		mov __signed_stack_001pmove, __D0pmove
74	523	98	#line 523 "C:\Users\ken\Desktop\C85\pfilter prob.nxc"
74	524	98		mov __D0pmove, __pmove_7qG2_i_7qG2_000
74	523	100	#line 523 "C:\Users\ken\Desktop\C85\pfilter prob.nxc"
74	524	100		mov __signed_stack_002pmove, __D0pmove
74	523	102	#line 523 "C:\Users\ken\Desktop\C85\pfilter prob.nxc"
74	524	102		index __ArrHelper__pmoveparticle_219_0, list, __signed_stack_002pmove
74	523	106	#line 523 "C:\Users\ken\Desktop\C85\pfilter prob.nxc"
74	524	106		mov __D0pmove, __ArrHelper__pmoveparticle_219_0.y
74	523	109	#line 523 "C:\Users\ken\Desktop\C85\pfilter prob.nxc"
74	524	109		mov __signed_stack_002pmove, __D0pmove
74	523	111	#line 523 "C:\Users\ken\Desktop\C85\pfilter prob.nxc"
74	524	111		set __D0pmove, 5
74	523	114	#line 523 "C:\Users\ken\Desktop\C85\pfilter prob.nxc"
74	524	114		mov __signed_stack_003pmove, __D0pmove
74	523	116	#line 523 "C:\Users\ken\Desktop\C85\pfilter prob.nxc"
74	524	116		set __D0pmove, 1
74	523	119	#line 523 "C:\Users\ken\Desktop\C85\pfilter prob.nxc"
74	524	119		sub __D0pmove, __signed_stack_003pmove, __D0pmove
74	523	123	#line 523 "C:\Users\ken\Desktop\C85\pfilter prob.nxc"
74	524	123		cmp 3, __zfpmove, __signed_stack_002pmove, __D0pmove
74	523	127	#line 523 "C:\Users\ken\Desktop\C85\pfilter prob.nxc"
74	524	127		mov __D0pmove, __zfpmove
74	523	130	#line 523 "C:\Users\ken\Desktop\C85\pfilter prob.nxc"
74	524	130		or __D0pmove, __signed_stack_001pmove, __D0pmove
74	523	134	#line 523 "C:\Users\ken\Desktop\C85\pfilter prob.nxc"
74	524	134		tst 5, __zfpmove, __D0pmove
74	523	137	#line 523 "C:\Users\ken\Desktop\C85\pfilter prob.nxc"
74	524	137		mov __D0pmove, __zfpmove
74	523	140	#line 523 "C:\Users\ken\Desktop\C85\pfilter prob.nxc"
74	524	140		brtst 5, __NXC_Label_1201, __zfpmove
74	523	143	#line 523 "C:\Users\ken\Desktop\C85\pfilter prob.nxc"
74	524	143		mov __signed_stack_001pmove, __D0pmove
74	523	145	#line 523 "C:\Users\ken\Desktop\C85\pfilter prob.nxc"
74	524	145		mov __D0pmove, __pmove_7qG2_i_7qG2_000
74	523	147	#line 523 "C:\Users\ken\Desktop\C85\pfilter prob.nxc"
74	524	147		mov __signed_stack_002pmove, __D0pmove
74	523	149	#line 523 "C:\Users\ken\Desktop\C85\pfilter prob.nxc"
74	524	149		index __ArrHelper__pmoveparticle_219_0, list, __signed_stack_002pmove
74	523	153	#line 523 "C:\Users\ken\Desktop\C85\pfilter prob.nxc"
74	524	153		mov __D0pmove, __ArrHelper__pmoveparticle_219_0.y
74	523	156	#line 523 "C:\Users\ken\Desktop\C85\pfilter prob.nxc"
74	524	156		mov __signed_stack_002pmove, __D0pmove
74	523	158	#line 523 "C:\Users\ken\Desktop\C85\pfilter prob.nxc"
74	524	158		set __D0pmove, 0
74	523	161	#line 523 "C:\Users\ken\Desktop\C85\pfilter prob.nxc"
74	524	161		cmp 0, __zfpmove, __signed_stack_002pmove, __D0pmove
74	523	165	#line 523 "C:\Users\ken\Desktop\C85\pfilter prob.nxc"
74	524	165		mov __D0pmove, __zfpmove
74	523	168	#line 523 "C:\Users\ken\Desktop\C85\pfilter prob.nxc"
74	524	168		or __D0pmove, __signed_stack_001pmove, __D0pmove
74	526	172	#line 526 "C:\Users\ken\Desktop\C85\pfilter prob.nxc"
74	527	172		tst 5, __zfpmove, __D0pmove
74	526	175	#line 526 "C:\Users\ken\Desktop\C85\pfilter prob.nxc"
74	527	175		brtst 4, __NXC_Label_1222, __zfpmove
74	526	178	#line 526 "C:\Users\ken\Desktop\C85\pfilter prob.nxc"
74	527	178		mov __D0pmove, __pmove_7qG2_i_7qG2_000
74	526	180	#line 526 "C:\Users\ken\Desktop\C85\pfilter prob.nxc"
74	527	180		mov __signed_stack_001pmove, __D0pmove
74	526	182	#line 526 "C:\Users\ken\Desktop\C85\pfilter prob.nxc"
74	527	182		mov __D0pmove, __pmove_7qG2_i_7qG2_000
74	526	184	#line 526 "C:\Users\ken\Desktop\C85\pfilter prob.nxc"
74	527	184		mov __signed_stack_002pmove, __D0pmove
74	526	186	#line 526 "C:\Users\ken\Desktop\C85\pfilter prob.nxc"
74	527	186		index __ArrHelper__pmoveparticle_219_0, list, __signed_stack_002pmove
74	526	190	#line 526 "C:\Users\ken\Desktop\C85\pfilter prob.nxc"
74	527	190		mov __protate_7qG2_p_7qG2_000, __ArrHelper__pmoveparticle_219_0
74	526	192	#line 526 "C:\Users\ken\Desktop\C85\pfilter prob.nxc"
74	527	192		set __D0pmove, 180
74	526	195	#line 526 "C:\Users\ken\Desktop\C85\pfilter prob.nxc"
74	527	195		mov __protate_7qG2_degrees_7qG2_000, __D0pmove
74	529	197	#line 529 "C:\Users\ken\Desktop\C85\pfilter prob.nxc"
74	530	197		subcall protate, __protate_return
74	529	200	#line 529 "C:\Users\ken\Desktop\C85\pfilter prob.nxc"
74	530	200		replace list, list, __signed_stack_001pmove, __result_protate
74	529	205	#line 529 "C:\Users\ken\Desktop\C85\pfilter prob.nxc"
74	529	205	#line 529 "C:\Users\ken\Desktop\C85\pfilter prob.nxc"
74	530	205		mov __D0pmove, __pmove_7qG2_i_7qG2_000
74	529	207	#line 529 "C:\Users\ken\Desktop\C85\pfilter prob.nxc"
74	530	207		mov __signed_stack_001pmove, __D0pmove
74	529	209	#line 529 "C:\Users\ken\Desktop\C85\pfilter prob.nxc"
74	530	209		mov __D0pmove, __pmove_7qG2_i_7qG2_000
74	529	211	#line 529 "C:\Users\ken\Desktop\C85\pfilter prob.nxc"
74	530	211		mov __signed_stack_002pmove, __D0pmove
74	529	213	#line 529 "C:\Users\ken\Desktop\C85\pfilter prob.nxc"
74	530	213		index __ArrHelper__pmoveparticle_219_0, list, __signed_stack_002pmove
74	529	217	#line 529 "C:\Users\ken\Desktop\C85\pfilter prob.nxc"
74	530	217		mov ___pmove_7qG2_p_7qG2_000, __ArrHelper__pmoveparticle_219_0
74	530	220	#line 530 "C:\Users\ken\Desktop\C85\pfilter prob.nxc"
74	531	220		subcall _pmove, ___pmove_return
74	530	223	#line 530 "C:\Users\ken\Desktop\C85\pfilter prob.nxc"
74	531	223		replace list, list, __signed_stack_001pmove, __result__pmove
74	530	228	#line 530 "C:\Users\ken\Desktop\C85\pfilter prob.nxc"
74	539	228	#line 539 "C:\Users\ken\Desktop\C85\pfilter prob.nxc"
74	539	228	#line 539 "C:\Users\ken\Desktop\C85\pfilter prob.nxc"
74	540	228		subret __pmove_return
75	541	0	#line 541 "C:\Users\ken\Desktop\C85\pfilter prob.nxc"
75	542	0		set __D0protate_all, 0
75	541	3	#line 541 "C:\Users\ken\Desktop\C85\pfilter prob.nxc"
75	542	3		mov __protate_all_7qG2_i_7qG2_000, __D0protate_all
75	541	5	#line 541 "C:\Users\ken\Desktop\C85\pfilter prob.nxc"
75	542	5		mov __D0protate_all, __protate_all_7qG2_i_7qG2_000
75	541	7	#line 541 "C:\Users\ken\Desktop\C85\pfilter prob.nxc"
75	542	7		mov __signed_stack_001protate_all, __D0protate_all
75	541	9	#line 541 "C:\Users\ken\Desktop\C85\pfilter prob.nxc"
75	542	9		set __D0protate_all, 3
75	541	12	#line 541 "C:\Users\ken\Desktop\C85\pfilter prob.nxc"
75	542	12		mov __signed_stack_002protate_all, __D0protate_all
75	541	14	#line 541 "C:\Users\ken\Desktop\C85\pfilter prob.nxc"
75	542	14		set __D0protate_all, 5
75	541	17	#line 541 "C:\Users\ken\Desktop\C85\pfilter prob.nxc"
75	542	17		mul __D0protate_all, __signed_stack_002protate_all, __D0protate_all
75	541	21	#line 541 "C:\Users\ken\Desktop\C85\pfilter prob.nxc"
75	542	21		mov __signed_stack_002protate_all, __D0protate_all
75	541	23	#line 541 "C:\Users\ken\Desktop\C85\pfilter prob.nxc"
75	542	23		set __D0protate_all, 4
75	541	26	#line 541 "C:\Users\ken\Desktop\C85\pfilter prob.nxc"
75	542	26		mul __D0protate_all, __signed_stack_002protate_all, __D0protate_all
75	541	30	#line 541 "C:\Users\ken\Desktop\C85\pfilter prob.nxc"
75	542	30		cmp 0, __zfprotate_all, __signed_stack_001protate_all, __D0protate_all
75	541	34	#line 541 "C:\Users\ken\Desktop\C85\pfilter prob.nxc"
75	542	34		mov __D0protate_all, __zfprotate_all
75	541	37	#line 541 "C:\Users\ken\Desktop\C85\pfilter prob.nxc"
75	542	37		brtst 4, __NXC_Label_1238, __zfprotate_all
75	541	40	#line 541 "C:\Users\ken\Desktop\C85\pfilter prob.nxc"
75	542	40		jmp __NXC_Label_1239
75	541	42	#line 541 "C:\Users\ken\Desktop\C85\pfilter prob.nxc"
75	542	42		add __protate_all_7qG2_i_7qG2_000, __protate_all_7qG2_i_7qG2_000, __constVal1
75	542	46	#line 542 "C:\Users\ken\Desktop\C85\pfilter prob.nxc"
75	543	46		jmp __NXC_Label_1237
75	542	48	#line 542 "C:\Users\ken\Desktop\C85\pfilter prob.nxc"
75	543	48		mov __D0protate_all, __protate_all_7qG2_i_7qG2_000
75	542	50	#line 542 "C:\Users\ken\Desktop\C85\pfilter prob.nxc"
75	543	50		mov __signed_stack_001protate_all, __D0protate_all
75	542	52	#line 542 "C:\Users\ken\Desktop\C85\pfilter prob.nxc"
75	543	52		mov __D0protate_all, __protate_all_7qG2_i_7qG2_000
75	542	54	#line 542 "C:\Users\ken\Desktop\C85\pfilter prob.nxc"
75	543	54		mov __signed_stack_002protate_all, __D0protate_all
75	542	56	#line 542 "C:\Users\ken\Desktop\C85\pfilter prob.nxc"
75	543	56		index __ArrHelper__protate_allparticle_219_0, __protate_all_7qG2_p_7qG2_000, __signed_stack_002protate_all
75	542	60	#line 542 "C:\Users\ken\Desktop\C85\pfilter prob.nxc"
75	543	60		mov __protate_7qG2_p_7qG2_000, __ArrHelper__protate_allparticle_219_0
75	542	62	#line 542 "C:\Users\ken\Desktop\C85\pfilter prob.nxc"
75	543	62		mov __D0protate_all, __protate_all_7qG2_degrees_7qG2_000
75	542	64	#line 542 "C:\Users\ken\Desktop\C85\pfilter prob.nxc"
75	543	64		mov __protate_7qG2_degrees_7qG2_000, __D0protate_all
75	543	66	#line 543 "C:\Users\ken\Desktop\C85\pfilter prob.nxc"
75	544	66		subcall protate, __protate_return
75	543	69	#line 543 "C:\Users\ken\Desktop\C85\pfilter prob.nxc"
75	544	69		replace __protate_all_7qG2_p_7qG2_000, __protate_all_7qG2_p_7qG2_000, __signed_stack_001protate_all, __result_protate
75	543	74	#line 543 "C:\Users\ken\Desktop\C85\pfilter prob.nxc"
75	545	74	#line 545 "C:\Users\ken\Desktop\C85\pfilter prob.nxc"
75	546	74		jmp __NXC_Label_1240
75	545	76	#line 545 "C:\Users\ken\Desktop\C85\pfilter prob.nxc"
75	546	76	#line 546 "C:\Users\ken\Desktop\C85\pfilter prob.nxc"
75	547	76		mov __result_protate_all, __protate_all_7qG2_p_7qG2_000
75	546	79	#line 546 "C:\Users\ken\Desktop\C85\pfilter prob.nxc"
75	547	79		subret __protate_all_return
75	546	81	#line 546 "C:\Users\ken\Desktop\C85\pfilter prob.nxc"
75	552	81	#line 552 "C:\Users\ken\Desktop\C85\pfilter prob.nxc"
75	553	81		subret __protate_all_return
76	554	0	#line 554 "C:\Users\ken\Desktop\C85\pfilter prob.nxc"
76	555	0		set __D0pmove_all, 0
76	554	3	#line 554 "C:\Users\ken\Desktop\C85\pfilter prob.nxc"
76	555	3		mov __pmove_all_7qG2_i_7qG2_000, __D0pmove_all
76	554	5	#line 554 "C:\Users\ken\Desktop\C85\pfilter prob.nxc"
76	555	5		mov __D0pmove_all, __pmove_all_7qG2_i_7qG2_000
76	554	7	#line 554 "C:\Users\ken\Desktop\C85\pfilter prob.nxc"
76	555	7		mov __signed_stack_001pmove_all, __D0pmove_all
76	554	9	#line 554 "C:\Users\ken\Desktop\C85\pfilter prob.nxc"
76	555	9		set __D0pmove_all, 3
76	554	12	#line 554 "C:\Users\ken\Desktop\C85\pfilter prob.nxc"
76	555	12		mov __signed_stack_002pmove_all, __D0pmove_all
76	554	14	#line 554 "C:\Users\ken\Desktop\C85\pfilter prob.nxc"
76	555	14		set __D0pmove_all, 5
76	554	17	#line 554 "C:\Users\ken\Desktop\C85\pfilter prob.nxc"
76	555	17		mul __D0pmove_all, __signed_stack_002pmove_all, __D0pmove_all
76	554	21	#line 554 "C:\Users\ken\Desktop\C85\pfilter prob.nxc"
76	555	21		mov __signed_stack_002pmove_all, __D0pmove_all
76	554	23	#line 554 "C:\Users\ken\Desktop\C85\pfilter prob.nxc"
76	555	23		set __D0pmove_all, 4
76	554	26	#line 554 "C:\Users\ken\Desktop\C85\pfilter prob.nxc"
76	555	26		mul __D0pmove_all, __signed_stack_002pmove_all, __D0pmove_all
76	554	30	#line 554 "C:\Users\ken\Desktop\C85\pfilter prob.nxc"
76	555	30		cmp 0, __zfpmove_all, __signed_stack_001pmove_all, __D0pmove_all
76	554	34	#line 554 "C:\Users\ken\Desktop\C85\pfilter prob.nxc"
76	555	34		mov __D0pmove_all, __zfpmove_all
76	554	37	#line 554 "C:\Users\ken\Desktop\C85\pfilter prob.nxc"
76	555	37		brtst 4, __NXC_Label_1254, __zfpmove_all
76	554	40	#line 554 "C:\Users\ken\Desktop\C85\pfilter prob.nxc"
76	555	40		jmp __NXC_Label_1255
76	554	42	#line 554 "C:\Users\ken\Desktop\C85\pfilter prob.nxc"
76	555	42		add __pmove_all_7qG2_i_7qG2_000, __pmove_all_7qG2_i_7qG2_000, __constVal1
76	555	46	#line 555 "C:\Users\ken\Desktop\C85\pfilter prob.nxc"
76	556	46		jmp __NXC_Label_1253
76	555	48	#line 555 "C:\Users\ken\Desktop\C85\pfilter prob.nxc"
76	556	48		mov __D0pmove_all, __pmove_all_7qG2_i_7qG2_000
76	555	50	#line 555 "C:\Users\ken\Desktop\C85\pfilter prob.nxc"
76	556	50		mov __pmove_7qG2_i_7qG2_000, __D0pmove_all
76	556	52	#line 556 "C:\Users\ken\Desktop\C85\pfilter prob.nxc"
76	557	52		subcall pmove, __pmove_return
76	556	55	#line 556 "C:\Users\ken\Desktop\C85\pfilter prob.nxc"
76	565	55	#line 565 "C:\Users\ken\Desktop\C85\pfilter prob.nxc"
76	566	55		jmp __NXC_Label_1256
76	565	57	#line 565 "C:\Users\ken\Desktop\C85\pfilter prob.nxc"
76	565	57	#line 565 "C:\Users\ken\Desktop\C85\pfilter prob.nxc"
76	566	57		subret __pmove_all_return
77	569	0	#line 569 "C:\Users\ken\Desktop\C85\pfilter prob.nxc"
77	570	0		mov __DF0total, __constVal0
77	569	3	#line 569 "C:\Users\ken\Desktop\C85\pfilter prob.nxc"
77	570	3		mov __total_7qG2_sum_7qG2_000, __DF0total
77	569	5	#line 569 "C:\Users\ken\Desktop\C85\pfilter prob.nxc"
77	570	5		set __D0total, 0
77	569	8	#line 569 "C:\Users\ken\Desktop\C85\pfilter prob.nxc"
77	570	8		mov __total_7qG2_i_7qG2_000, __D0total
77	569	10	#line 569 "C:\Users\ken\Desktop\C85\pfilter prob.nxc"
77	570	10		mov __D0total, __total_7qG2_i_7qG2_000
77	569	12	#line 569 "C:\Users\ken\Desktop\C85\pfilter prob.nxc"
77	570	12		mov __signed_stack_001total, __D0total
77	569	14	#line 569 "C:\Users\ken\Desktop\C85\pfilter prob.nxc"
77	570	14		set __D0total, 3
77	569	17	#line 569 "C:\Users\ken\Desktop\C85\pfilter prob.nxc"
77	570	17		mov __signed_stack_002total, __D0total
77	569	19	#line 569 "C:\Users\ken\Desktop\C85\pfilter prob.nxc"
77	570	19		set __D0total, 5
77	569	22	#line 569 "C:\Users\ken\Desktop\C85\pfilter prob.nxc"
77	570	22		mul __D0total, __signed_stack_002total, __D0total
77	569	26	#line 569 "C:\Users\ken\Desktop\C85\pfilter prob.nxc"
77	570	26		mov __signed_stack_002total, __D0total
77	569	28	#line 569 "C:\Users\ken\Desktop\C85\pfilter prob.nxc"
77	570	28		set __D0total, 4
77	569	31	#line 569 "C:\Users\ken\Desktop\C85\pfilter prob.nxc"
77	570	31		mul __D0total, __signed_stack_002total, __D0total
77	569	35	#line 569 "C:\Users\ken\Desktop\C85\pfilter prob.nxc"
77	570	35		cmp 0, __zftotal, __signed_stack_001total, __D0total
77	569	39	#line 569 "C:\Users\ken\Desktop\C85\pfilter prob.nxc"
77	570	39		mov __D0total, __zftotal
77	569	42	#line 569 "C:\Users\ken\Desktop\C85\pfilter prob.nxc"
77	570	42		brtst 4, __NXC_Label_1266, __zftotal
77	569	45	#line 569 "C:\Users\ken\Desktop\C85\pfilter prob.nxc"
77	570	45		jmp __NXC_Label_1267
77	569	47	#line 569 "C:\Users\ken\Desktop\C85\pfilter prob.nxc"
77	570	47		add __total_7qG2_i_7qG2_000, __total_7qG2_i_7qG2_000, __constVal1
77	570	51	#line 570 "C:\Users\ken\Desktop\C85\pfilter prob.nxc"
77	571	51		jmp __NXC_Label_1265
77	570	53	#line 570 "C:\Users\ken\Desktop\C85\pfilter prob.nxc"
77	571	53		mov __D0total, __total_7qG2_i_7qG2_000
77	570	55	#line 570 "C:\Users\ken\Desktop\C85\pfilter prob.nxc"
77	571	55		mov __signed_stack_001total, __D0total
77	570	57	#line 570 "C:\Users\ken\Desktop\C85\pfilter prob.nxc"
77	571	57		index __ArrHelper__totalparticle_219_0, list, __signed_stack_001total
77	570	61	#line 570 "C:\Users\ken\Desktop\C85\pfilter prob.nxc"
77	571	61		mov __DF0total, __ArrHelper__totalparticle_219_0.prob
77	571	64	#line 571 "C:\Users\ken\Desktop\C85\pfilter prob.nxc"
77	572	64		add __total_7qG2_sum_7qG2_000, __total_7qG2_sum_7qG2_000, __DF0total
77	571	68	#line 571 "C:\Users\ken\Desktop\C85\pfilter prob.nxc"
77	572	68	#line 572 "C:\Users\ken\Desktop\C85\pfilter prob.nxc"
77	573	68		jmp __NXC_Label_1268
77	572	70	#line 572 "C:\Users\ken\Desktop\C85\pfilter prob.nxc"
77	574	70	#line 574 "C:\Users\ken\Desktop\C85\pfilter prob.nxc"
77	575	70		mov __DF0total, __total_7qG2_sum_7qG2_000
77	574	72	#line 574 "C:\Users\ken\Desktop\C85\pfilter prob.nxc"
77	575	72		subret __total_return
77	574	74	#line 574 "C:\Users\ken\Desktop\C85\pfilter prob.nxc"
77	575	74	#line 575 "C:\Users\ken\Desktop\C85\pfilter prob.nxc"
77	576	74		subret __total_return
78	581	0	#line 581 "C:\Users\ken\Desktop\C85\pfilter prob.nxc"
78	582	0		subcall total, __total_return
78	581	3	#line 581 "C:\Users\ken\Desktop\C85\pfilter prob.nxc"
78	582	3		mov __DF0normalize, __DF0total
78	581	5	#line 581 "C:\Users\ken\Desktop\C85\pfilter prob.nxc"
78	582	5		mov __normalize_7qG2_total_s_7qG2_000, __DF0normalize
78	581	7	#line 581 "C:\Users\ken\Desktop\C85\pfilter prob.nxc"
78	582	7		set __D0normalize, 0
78	581	10	#line 581 "C:\Users\ken\Desktop\C85\pfilter prob.nxc"
78	582	10		mov __normalize_7qG2_i_7qG2_000, __D0normalize
78	581	12	#line 581 "C:\Users\ken\Desktop\C85\pfilter prob.nxc"
78	582	12		mov __D0normalize, __normalize_7qG2_i_7qG2_000
78	581	14	#line 581 "C:\Users\ken\Desktop\C85\pfilter prob.nxc"
78	582	14		mov __signed_stack_001normalize, __D0normalize
78	581	17	#line 581 "C:\Users\ken\Desktop\C85\pfilter prob.nxc"
78	582	17		set __D0normalize, 3
78	581	20	#line 581 "C:\Users\ken\Desktop\C85\pfilter prob.nxc"
78	582	20		mov __signed_stack_002normalize, __D0normalize
78	581	23	#line 581 "C:\Users\ken\Desktop\C85\pfilter prob.nxc"
78	582	23		set __D0normalize, 5
78	581	26	#line 581 "C:\Users\ken\Desktop\C85\pfilter prob.nxc"
78	582	26		mul __D0normalize, __signed_stack_002normalize, __D0normalize
78	581	30	#line 581 "C:\Users\ken\Desktop\C85\pfilter prob.nxc"
78	582	30		mov __signed_stack_002normalize, __D0normalize
78	581	33	#line 581 "C:\Users\ken\Desktop\C85\pfilter prob.nxc"
78	582	33		set __D0normalize, 4
78	581	36	#line 581 "C:\Users\ken\Desktop\C85\pfilter prob.nxc"
78	582	36		mul __D0normalize, __signed_stack_002normalize, __D0normalize
78	581	40	#line 581 "C:\Users\ken\Desktop\C85\pfilter prob.nxc"
78	582	40		cmp 0, __zfnormalize, __signed_stack_001normalize, __D0normalize
78	581	44	#line 581 "C:\Users\ken\Desktop\C85\pfilter prob.nxc"
78	582	44		mov __D0normalize, __zfnormalize
78	581	47	#line 581 "C:\Users\ken\Desktop\C85\pfilter prob.nxc"
78	582	47		brtst 4, __NXC_Label_1282, __zfnormalize
78	581	50	#line 581 "C:\Users\ken\Desktop\C85\pfilter prob.nxc"
78	582	50		jmp __NXC_Label_1283
78	581	52	#line 581 "C:\Users\ken\Desktop\C85\pfilter prob.nxc"
78	582	52		add __normalize_7qG2_i_7qG2_000, __normalize_7qG2_i_7qG2_000, __constVal1
78	583	56	#line 583 "C:\Users\ken\Desktop\C85\pfilter prob.nxc"
78	584	56		jmp __NXC_Label_1281
78	583	58	#line 583 "C:\Users\ken\Desktop\C85\pfilter prob.nxc"
78	584	58		mov __D0normalize, __normalize_7qG2_i_7qG2_000
78	583	60	#line 583 "C:\Users\ken\Desktop\C85\pfilter prob.nxc"
78	584	60		mov __signed_stack_001normalize, __D0normalize
78	583	63	#line 583 "C:\Users\ken\Desktop\C85\pfilter prob.nxc"
78	584	63		index __ArrHelper__normalizeparticle_219_0, list, __signed_stack_001normalize
78	583	67	#line 583 "C:\Users\ken\Desktop\C85\pfilter prob.nxc"
78	584	67		mov __D0normalize, __normalize_7qG2_i_7qG2_000
78	583	69	#line 583 "C:\Users\ken\Desktop\C85\pfilter prob.nxc"
78	584	69		mov __signed_stack_002normalize, __D0normalize
78	583	72	#line 583 "C:\Users\ken\Desktop\C85\pfilter prob.nxc"
78	584	72		index __ArrHelper__normalizeparticle_219_1, list, __signed_stack_002normalize
78	583	76	#line 583 "C:\Users\ken\Desktop\C85\pfilter prob.nxc"
78	584	76		mov __DF0normalize, __ArrHelper__normalizeparticle_219_1.prob
78	583	79	#line 583 "C:\Users\ken\Desktop\C85\pfilter prob.nxc"
78	584	79		mov __float_stack_002normalize, __DF0normalize
78	585	82	#line 585 "C:\Users\ken\Desktop\C85\pfilter prob.nxc"
78	586	82		mov __DF0normalize, __normalize_7qG2_total_s_7qG2_000
78	585	84	#line 585 "C:\Users\ken\Desktop\C85\pfilter prob.nxc"
78	586	84		div __DF0normalize, __float_stack_002normalize, __DF0normalize
78	585	88	#line 585 "C:\Users\ken\Desktop\C85\pfilter prob.nxc"
78	586	88		mov __ArrHelper__normalizeparticle_219_0.prob, __DF0normalize
78	585	91	#line 585 "C:\Users\ken\Desktop\C85\pfilter prob.nxc"
78	586	91		replace list, list, __signed_stack_001normalize, __ArrHelper__normalizeparticle_219_0
78	585	96	#line 585 "C:\Users\ken\Desktop\C85\pfilter prob.nxc"
78	589	96	#line 589 "C:\Users\ken\Desktop\C85\pfilter prob.nxc"
78	590	96		jmp __NXC_Label_1284
78	589	98	#line 589 "C:\Users\ken\Desktop\C85\pfilter prob.nxc"
78	590	98	#line 590 "C:\Users\ken\Desktop\C85\pfilter prob.nxc"
78	591	98		mov __DF0normalize, __constVal1
78	590	101	#line 590 "C:\Users\ken\Desktop\C85\pfilter prob.nxc"
78	591	101		mov ptotal, __DF0normalize
78	590	103	#line 590 "C:\Users\ken\Desktop\C85\pfilter prob.nxc"
78	594	103	#line 594 "C:\Users\ken\Desktop\C85\pfilter prob.nxc"
78	595	103		subret __normalize_return
79	597	0	#line 597 "C:\Users\ken\Desktop\C85\pfilter prob.nxc"
79	598	0		mov __DF0find_max_p, __constVal0
79	597	3	#line 597 "C:\Users\ken\Desktop\C85\pfilter prob.nxc"
79	598	3		mov __find_max_p_7qG2_i_7qG2_000, __DF0find_max_p
79	597	5	#line 597 "C:\Users\ken\Desktop\C85\pfilter prob.nxc"
79	598	5		set __D0find_max_p, 0
79	597	8	#line 597 "C:\Users\ken\Desktop\C85\pfilter prob.nxc"
79	598	8		mov __find_max_p_7qG2_i_7qG2_000, __D0find_max_p
79	597	10	#line 597 "C:\Users\ken\Desktop\C85\pfilter prob.nxc"
79	598	10		mov __D0find_max_p, __find_max_p_7qG2_i_7qG2_000
79	597	12	#line 597 "C:\Users\ken\Desktop\C85\pfilter prob.nxc"
79	598	12		mov __signed_stack_001find_max_p, __D0find_max_p
79	597	14	#line 597 "C:\Users\ken\Desktop\C85\pfilter prob.nxc"
79	598	14		set __D0find_max_p, 3
79	597	17	#line 597 "C:\Users\ken\Desktop\C85\pfilter prob.nxc"
79	598	17		mov __signed_stack_002find_max_p, __D0find_max_p
79	597	19	#line 597 "C:\Users\ken\Desktop\C85\pfilter prob.nxc"
79	598	19		set __D0find_max_p, 5
79	597	22	#line 597 "C:\Users\ken\Desktop\C85\pfilter prob.nxc"
79	598	22		mul __D0find_max_p, __signed_stack_002find_max_p, __D0find_max_p
79	597	26	#line 597 "C:\Users\ken\Desktop\C85\pfilter prob.nxc"
79	598	26		mov __signed_stack_002find_max_p, __D0find_max_p
79	597	28	#line 597 "C:\Users\ken\Desktop\C85\pfilter prob.nxc"
79	598	28		set __D0find_max_p, 4
79	597	31	#line 597 "C:\Users\ken\Desktop\C85\pfilter prob.nxc"
79	598	31		mul __D0find_max_p, __signed_stack_002find_max_p, __D0find_max_p
79	597	35	#line 597 "C:\Users\ken\Desktop\C85\pfilter prob.nxc"
79	598	35		cmp 0, __zffind_max_p, __signed_stack_001find_max_p, __D0find_max_p
79	597	39	#line 597 "C:\Users\ken\Desktop\C85\pfilter prob.nxc"
79	598	39		mov __D0find_max_p, __zffind_max_p
79	597	42	#line 597 "C:\Users\ken\Desktop\C85\pfilter prob.nxc"
79	598	42		brtst 4, __NXC_Label_1300, __zffind_max_p
79	597	45	#line 597 "C:\Users\ken\Desktop\C85\pfilter prob.nxc"
79	598	45		jmp __NXC_Label_1301
79	597	47	#line 597 "C:\Users\ken\Desktop\C85\pfilter prob.nxc"
79	598	47		add __find_max_p_7qG2_i_7qG2_000, __find_max_p_7qG2_i_7qG2_000, __constVal1
79	598	51	#line 598 "C:\Users\ken\Desktop\C85\pfilter prob.nxc"
79	599	51		jmp __NXC_Label_1299
79	598	53	#line 598 "C:\Users\ken\Desktop\C85\pfilter prob.nxc"
79	599	53		mov __DF0find_max_p, p_max.prob
79	598	56	#line 598 "C:\Users\ken\Desktop\C85\pfilter prob.nxc"
79	599	56		mov __float_stack_001find_max_p, __DF0find_max_p
79	598	58	#line 598 "C:\Users\ken\Desktop\C85\pfilter prob.nxc"
79	599	58		mov __D0find_max_p, __find_max_p_7qG2_i_7qG2_000
79	598	60	#line 598 "C:\Users\ken\Desktop\C85\pfilter prob.nxc"
79	599	60		mov __signed_stack_002find_max_p, __D0find_max_p
79	598	62	#line 598 "C:\Users\ken\Desktop\C85\pfilter prob.nxc"
79	599	62		index __ArrHelper__find_max_pparticle_219_0, list, __signed_stack_002find_max_p
79	598	66	#line 598 "C:\Users\ken\Desktop\C85\pfilter prob.nxc"
79	599	66		mov __DF0find_max_p, __ArrHelper__find_max_pparticle_219_0.prob
79	598	69	#line 598 "C:\Users\ken\Desktop\C85\pfilter prob.nxc"
79	599	69		cmp 0, __zffind_max_p, __float_stack_001find_max_p, __DF0find_max_p
79	598	73	#line 598 "C:\Users\ken\Desktop\C85\pfilter prob.nxc"
79	599	73		mov __D0find_max_p, __zffind_max_p
79	599	76	#line 599 "C:\Users\ken\Desktop\C85\pfilter prob.nxc"
79	600	76		brtst 4, __NXC_Label_1311, __zffind_max_p
79	599	79	#line 599 "C:\Users\ken\Desktop\C85\pfilter prob.nxc"
79	600	79		mov __D0find_max_p, __find_max_p_7qG2_i_7qG2_000
79	599	81	#line 599 "C:\Users\ken\Desktop\C85\pfilter prob.nxc"
79	600	81		mov __signed_stack_001find_max_p, __D0find_max_p
79	599	83	#line 599 "C:\Users\ken\Desktop\C85\pfilter prob.nxc"
79	600	83		index __ArrHelper__find_max_pparticle_219_0, list, __signed_stack_001find_max_p
79	599	87	#line 599 "C:\Users\ken\Desktop\C85\pfilter prob.nxc"
79	600	87		mov __D0find_max_p, __ArrHelper__find_max_pparticle_219_0.x
79	600	90	#line 600 "C:\Users\ken\Desktop\C85\pfilter prob.nxc"
79	601	90		mov p_max.x, __D0find_max_p
79	600	93	#line 600 "C:\Users\ken\Desktop\C85\pfilter prob.nxc"
79	600	93	#line 600 "C:\Users\ken\Desktop\C85\pfilter prob.nxc"
79	601	93		mov __D0find_max_p, __find_max_p_7qG2_i_7qG2_000
79	600	95	#line 600 "C:\Users\ken\Desktop\C85\pfilter prob.nxc"
79	601	95		mov __signed_stack_001find_max_p, __D0find_max_p
79	600	97	#line 600 "C:\Users\ken\Desktop\C85\pfilter prob.nxc"
79	601	97		index __ArrHelper__find_max_pparticle_219_0, list, __signed_stack_001find_max_p
79	600	101	#line 600 "C:\Users\ken\Desktop\C85\pfilter prob.nxc"
79	601	101		mov __D0find_max_p, __ArrHelper__find_max_pparticle_219_0.y
79	601	104	#line 601 "C:\Users\ken\Desktop\C85\pfilter prob.nxc"
79	602	104		mov p_max.y, __D0find_max_p
79	601	107	#line 601 "C:\Users\ken\Desktop\C85\pfilter prob.nxc"
79	601	107	#line 601 "C:\Users\ken\Desktop\C85\pfilter prob.nxc"
79	602	107		mov __D0find_max_p, __find_max_p_7qG2_i_7qG2_000
79	601	109	#line 601 "C:\Users\ken\Desktop\C85\pfilter prob.nxc"
79	602	109		mov __signed_stack_001find_max_p, __D0find_max_p
79	601	111	#line 601 "C:\Users\ken\Desktop\C85\pfilter prob.nxc"
79	602	111		index __ArrHelper__find_max_pparticle_219_0, list, __signed_stack_001find_max_p
79	601	115	#line 601 "C:\Users\ken\Desktop\C85\pfilter prob.nxc"
79	602	115		mov __D0find_max_p, __ArrHelper__find_max_pparticle_219_0.theta
79	602	118	#line 602 "C:\Users\ken\Desktop\C85\pfilter prob.nxc"
79	603	118		mov p_max.theta, __D0find_max_p
79	602	121	#line 602 "C:\Users\ken\Desktop\C85\pfilter prob.nxc"
79	602	121	#line 602 "C:\Users\ken\Desktop\C85\pfilter prob.nxc"
79	603	121		mov __D0find_max_p, __find_max_p_7qG2_i_7qG2_000
79	602	123	#line 602 "C:\Users\ken\Desktop\C85\pfilter prob.nxc"
79	603	123		mov __signed_stack_001find_max_p, __D0find_max_p
79	602	125	#line 602 "C:\Users\ken\Desktop\C85\pfilter prob.nxc"
79	603	125		index __ArrHelper__find_max_pparticle_219_0, list, __signed_stack_001find_max_p
79	602	129	#line 602 "C:\Users\ken\Desktop\C85\pfilter prob.nxc"
79	603	129		mov __DF0find_max_p, __ArrHelper__find_max_pparticle_219_0.prob
79	603	132	#line 603 "C:\Users\ken\Desktop\C85\pfilter prob.nxc"
79	604	132		mov p_max.prob, __DF0find_max_p
79	603	135	#line 603 "C:\Users\ken\Desktop\C85\pfilter prob.nxc"
79	606	135	#line 606 "C:\Users\ken\Desktop\C85\pfilter prob.nxc"
79	615	135	#line 615 "C:\Users\ken\Desktop\C85\pfilter prob.nxc"
79	616	135		jmp __NXC_Label_1302
79	615	137	#line 615 "C:\Users\ken\Desktop\C85\pfilter prob.nxc"
79	615	137	#line 615 "C:\Users\ken\Desktop\C85\pfilter prob.nxc"
79	616	137		subret __find_max_p_return
80	617	0	#line 617 "C:\Users\ken\Desktop\C85\pfilter prob.nxc"
80	618	0		mov __DF0sort, __constVal1
80	617	3	#line 617 "C:\Users\ken\Desktop\C85\pfilter prob.nxc"
80	618	3		mov __sort_7qG2_unsorted_7qG2_000, __DF0sort
80	619	6	#line 619 "C:\Users\ken\Desktop\C85\pfilter prob.nxc"
80	620	6		mov __DU0sort, __sort_7qG2_unsorted_7qG2_000
80	622	9	#line 622 "C:\Users\ken\Desktop\C85\pfilter prob.nxc"
80	623	9		tst 5, __zfsort, __DU0sort
80	622	12	#line 622 "C:\Users\ken\Desktop\C85\pfilter prob.nxc"
80	623	12		brtst 4, __NXC_Label_1331, __zfsort
80	622	15	#line 622 "C:\Users\ken\Desktop\C85\pfilter prob.nxc"
80	623	15		mov __D0sort, __sort_7qG2_position_7qG2_000
80	622	17	#line 622 "C:\Users\ken\Desktop\C85\pfilter prob.nxc"
80	623	17		mov __signed_stack_001sort, __D0sort
80	622	19	#line 622 "C:\Users\ken\Desktop\C85\pfilter prob.nxc"
80	623	19		set __D0sort, 0
80	622	22	#line 622 "C:\Users\ken\Desktop\C85\pfilter prob.nxc"
80	623	22		cmp 1, __zfsort, __signed_stack_001sort, __D0sort
80	622	26	#line 622 "C:\Users\ken\Desktop\C85\pfilter prob.nxc"
80	623	26		mov __D0sort, __zfsort
80	622	29	#line 622 "C:\Users\ken\Desktop\C85\pfilter prob.nxc"
80	623	29		brtst 4, __NXC_Label_1335, __zfsort
80	622	32	#line 622 "C:\Users\ken\Desktop\C85\pfilter prob.nxc"
80	623	32		mov __signed_stack_001sort, __D0sort
80	622	34	#line 622 "C:\Users\ken\Desktop\C85\pfilter prob.nxc"
80	623	34		mov __D0sort, __sort_7qG2_position_7qG2_000
80	622	36	#line 622 "C:\Users\ken\Desktop\C85\pfilter prob.nxc"
80	623	36		mov __signed_stack_002sort, __D0sort
80	622	38	#line 622 "C:\Users\ken\Desktop\C85\pfilter prob.nxc"
80	623	38		index __ArrHelper__sortparticle_219_0, __sort_7qG2_p_7qG2_000, __signed_stack_002sort
80	622	42	#line 622 "C:\Users\ken\Desktop\C85\pfilter prob.nxc"
80	623	42		mov __DF0sort, __ArrHelper__sortparticle_219_0.prob
80	622	45	#line 622 "C:\Users\ken\Desktop\C85\pfilter prob.nxc"
80	623	45		mov __float_stack_002sort, __DF0sort
80	622	47	#line 622 "C:\Users\ken\Desktop\C85\pfilter prob.nxc"
80	623	47		mov __D0sort, __sort_7qG2_position_7qG2_000
80	622	49	#line 622 "C:\Users\ken\Desktop\C85\pfilter prob.nxc"
80	623	49		mov __signed_stack_003sort, __D0sort
80	622	51	#line 622 "C:\Users\ken\Desktop\C85\pfilter prob.nxc"
80	623	51		set __D0sort, 1
80	622	54	#line 622 "C:\Users\ken\Desktop\C85\pfilter prob.nxc"
80	623	54		sub __D0sort, __signed_stack_003sort, __D0sort
80	622	58	#line 622 "C:\Users\ken\Desktop\C85\pfilter prob.nxc"
80	623	58		mov __signed_stack_003sort, __D0sort
80	622	60	#line 622 "C:\Users\ken\Desktop\C85\pfilter prob.nxc"
80	623	60		index __ArrHelper__sortparticle_219_0, __sort_7qG2_p_7qG2_000, __signed_stack_003sort
80	622	64	#line 622 "C:\Users\ken\Desktop\C85\pfilter prob.nxc"
80	623	64		mov __DF0sort, __ArrHelper__sortparticle_219_0.prob
80	622	67	#line 622 "C:\Users\ken\Desktop\C85\pfilter prob.nxc"
80	623	67		cmp 1, __zfsort, __float_stack_002sort, __DF0sort
80	622	71	#line 622 "C:\Users\ken\Desktop\C85\pfilter prob.nxc"
80	623	71		mov __D0sort, __zfsort
80	622	74	#line 622 "C:\Users\ken\Desktop\C85\pfilter prob.nxc"
80	623	74		and __D0sort, __signed_stack_001sort, __D0sort
80	623	78	#line 623 "C:\Users\ken\Desktop\C85\pfilter prob.nxc"
80	624	78		tst 5, __zfsort, __D0sort
80	623	81	#line 623 "C:\Users\ken\Desktop\C85\pfilter prob.nxc"
80	624	81		brtst 4, __NXC_Label_1344, __zfsort
80	623	84	#line 623 "C:\Users\ken\Desktop\C85\pfilter prob.nxc"
80	624	84		mov __D0sort, __sort_7qG2_position_7qG2_000
80	623	86	#line 623 "C:\Users\ken\Desktop\C85\pfilter prob.nxc"
80	624	86		mov __signed_stack_001sort, __D0sort
80	623	88	#line 623 "C:\Users\ken\Desktop\C85\pfilter prob.nxc"
80	624	88		index __ArrHelper__sortparticle_219_0, __sort_7qG2_p_7qG2_000, __signed_stack_001sort
80	623	92	#line 623 "C:\Users\ken\Desktop\C85\pfilter prob.nxc"
80	624	92		mov __sort_7qG2_current_7qG2_000, __ArrHelper__sortparticle_219_0
80	624	95	#line 624 "C:\Users\ken\Desktop\C85\pfilter prob.nxc"
80	624	95	#line 624 "C:\Users\ken\Desktop\C85\pfilter prob.nxc"
80	625	95		mov __D0sort, __sort_7qG2_position_7qG2_000
80	624	97	#line 624 "C:\Users\ken\Desktop\C85\pfilter prob.nxc"
80	625	97		mov __signed_stack_001sort, __D0sort
80	624	99	#line 624 "C:\Users\ken\Desktop\C85\pfilter prob.nxc"
80	625	99		mov __D0sort, __sort_7qG2_position_7qG2_000
80	624	101	#line 624 "C:\Users\ken\Desktop\C85\pfilter prob.nxc"
80	625	101		mov __signed_stack_002sort, __D0sort
80	624	103	#line 624 "C:\Users\ken\Desktop\C85\pfilter prob.nxc"
80	625	103		set __D0sort, 1
80	624	106	#line 624 "C:\Users\ken\Desktop\C85\pfilter prob.nxc"
80	625	106		sub __D0sort, __signed_stack_002sort, __D0sort
80	624	110	#line 624 "C:\Users\ken\Desktop\C85\pfilter prob.nxc"
80	625	110		mov __signed_stack_002sort, __D0sort
80	624	112	#line 624 "C:\Users\ken\Desktop\C85\pfilter prob.nxc"
80	625	112		index __ArrHelper__sortparticle_219_0, __sort_7qG2_p_7qG2_000, __signed_stack_002sort
80	625	116	#line 625 "C:\Users\ken\Desktop\C85\pfilter prob.nxc"
80	626	116		replace __sort_7qG2_p_7qG2_000, __sort_7qG2_p_7qG2_000, __signed_stack_001sort, __ArrHelper__sortparticle_219_0
80	625	121	#line 625 "C:\Users\ken\Desktop\C85\pfilter prob.nxc"
80	625	121	#line 625 "C:\Users\ken\Desktop\C85\pfilter prob.nxc"
80	626	121		mov __D0sort, __sort_7qG2_position_7qG2_000
80	625	123	#line 625 "C:\Users\ken\Desktop\C85\pfilter prob.nxc"
80	626	123		mov __signed_stack_001sort, __D0sort
80	625	125	#line 625 "C:\Users\ken\Desktop\C85\pfilter prob.nxc"
80	626	125		replace __sort_7qG2_p_7qG2_000, __sort_7qG2_p_7qG2_000, __signed_stack_001sort, __sort_7qG2_current_7qG2_000
80	626	130	#line 626 "C:\Users\ken\Desktop\C85\pfilter prob.nxc"
80	629	130	#line 629 "C:\Users\ken\Desktop\C85\pfilter prob.nxc"
80	630	130		set __D0sort, 1
80	629	133	#line 629 "C:\Users\ken\Desktop\C85\pfilter prob.nxc"
80	630	133		sub __sort_7qG2_position_7qG2_000, __sort_7qG2_position_7qG2_000, __D0sort
80	629	137	#line 629 "C:\Users\ken\Desktop\C85\pfilter prob.nxc"
80	629	137	#line 629 "C:\Users\ken\Desktop\C85\pfilter prob.nxc"
80	630	137		jmp __NXC_Label_1357
80	629	139	#line 629 "C:\Users\ken\Desktop\C85\pfilter prob.nxc"
80	630	139		mov __D0sort, __sort_7qG2_position_7qG2_000
80	629	141	#line 629 "C:\Users\ken\Desktop\C85\pfilter prob.nxc"
80	630	141		mov __signed_stack_001sort, __D0sort
80	629	143	#line 629 "C:\Users\ken\Desktop\C85\pfilter prob.nxc"
80	630	143		set __D0sort, 3
80	629	146	#line 629 "C:\Users\ken\Desktop\C85\pfilter prob.nxc"
80	630	146		mov __signed_stack_002sort, __D0sort
80	629	148	#line 629 "C:\Users\ken\Desktop\C85\pfilter prob.nxc"
80	630	148		set __D0sort, 5
80	629	151	#line 629 "C:\Users\ken\Desktop\C85\pfilter prob.nxc"
80	630	151		mul __D0sort, __signed_stack_002sort, __D0sort
80	629	155	#line 629 "C:\Users\ken\Desktop\C85\pfilter prob.nxc"
80	630	155		mov __signed_stack_002sort, __D0sort
80	629	157	#line 629 "C:\Users\ken\Desktop\C85\pfilter prob.nxc"
80	630	157		set __D0sort, 4
80	629	160	#line 629 "C:\Users\ken\Desktop\C85\pfilter prob.nxc"
80	630	160		mul __D0sort, __signed_stack_002sort, __D0sort
80	629	164	#line 629 "C:\Users\ken\Desktop\C85\pfilter prob.nxc"
80	630	164		cmp 0, __zfsort, __signed_stack_001sort, __D0sort
80	629	168	#line 629 "C:\Users\ken\Desktop\C85\pfilter prob.nxc"
80	630	168		mov __D0sort, __zfsort
80	629	171	#line 629 "C:\Users\ken\Desktop\C85\pfilter prob.nxc"
80	630	171		brtst 4, __NXC_Label_1359, __zfsort
80	629	174	#line 629 "C:\Users\ken\Desktop\C85\pfilter prob.nxc"
80	630	174		mov __signed_stack_001sort, __D0sort
80	629	176	#line 629 "C:\Users\ken\Desktop\C85\pfilter prob.nxc"
80	630	176		mov __D0sort, __sort_7qG2_position_7qG2_000
80	629	178	#line 629 "C:\Users\ken\Desktop\C85\pfilter prob.nxc"
80	630	178		mov __signed_stack_002sort, __D0sort
80	629	180	#line 629 "C:\Users\ken\Desktop\C85\pfilter prob.nxc"
80	630	180		index __ArrHelper__sortparticle_219_0, __sort_7qG2_p_7qG2_000, __signed_stack_002sort
80	629	184	#line 629 "C:\Users\ken\Desktop\C85\pfilter prob.nxc"
80	630	184		mov __DF0sort, __ArrHelper__sortparticle_219_0.prob
80	629	187	#line 629 "C:\Users\ken\Desktop\C85\pfilter prob.nxc"
80	630	187		mov __float_stack_002sort, __DF0sort
80	629	189	#line 629 "C:\Users\ken\Desktop\C85\pfilter prob.nxc"
80	630	189		mov __D0sort, __sort_7qG2_position_7qG2_000
80	629	191	#line 629 "C:\Users\ken\Desktop\C85\pfilter prob.nxc"
80	630	191		mov __signed_stack_003sort, __D0sort
80	629	193	#line 629 "C:\Users\ken\Desktop\C85\pfilter prob.nxc"
80	630	193		set __D0sort, 1
80	629	196	#line 629 "C:\Users\ken\Desktop\C85\pfilter prob.nxc"
80	630	196		add __D0sort, __signed_stack_003sort, __D0sort
80	629	200	#line 629 "C:\Users\ken\Desktop\C85\pfilter prob.nxc"
80	630	200		mov __signed_stack_003sort, __D0sort
80	629	202	#line 629 "C:\Users\ken\Desktop\C85\pfilter prob.nxc"
80	630	202		index __ArrHelper__sortparticle_219_0, __sort_7qG2_p_7qG2_000, __signed_stack_003sort
80	629	206	#line 629 "C:\Users\ken\Desktop\C85\pfilter prob.nxc"
80	630	206		mov __DF0sort, __ArrHelper__sortparticle_219_0.prob
80	629	209	#line 629 "C:\Users\ken\Desktop\C85\pfilter prob.nxc"
80	630	209		cmp 0, __zfsort, __float_stack_002sort, __DF0sort
80	629	213	#line 629 "C:\Users\ken\Desktop\C85\pfilter prob.nxc"
80	630	213		mov __D0sort, __zfsort
80	629	216	#line 629 "C:\Users\ken\Desktop\C85\pfilter prob.nxc"
80	630	216		and __D0sort, __signed_stack_001sort, __D0sort
80	630	220	#line 630 "C:\Users\ken\Desktop\C85\pfilter prob.nxc"
80	631	220		tst 5, __zfsort, __D0sort
80	630	223	#line 630 "C:\Users\ken\Desktop\C85\pfilter prob.nxc"
80	631	223		brtst 4, __NXC_Label_1368, __zfsort
80	630	226	#line 630 "C:\Users\ken\Desktop\C85\pfilter prob.nxc"
80	631	226		mov __D0sort, __sort_7qG2_position_7qG2_000
80	630	228	#line 630 "C:\Users\ken\Desktop\C85\pfilter prob.nxc"
80	631	228		mov __signed_stack_001sort, __D0sort
80	630	230	#line 630 "C:\Users\ken\Desktop\C85\pfilter prob.nxc"
80	631	230		index __ArrHelper__sortparticle_219_0, __sort_7qG2_p_7qG2_000, __signed_stack_001sort
80	630	234	#line 630 "C:\Users\ken\Desktop\C85\pfilter prob.nxc"
80	631	234		mov __sort_7qG2_current_7qG2_000, __ArrHelper__sortparticle_219_0
80	631	237	#line 631 "C:\Users\ken\Desktop\C85\pfilter prob.nxc"
80	631	237	#line 631 "C:\Users\ken\Desktop\C85\pfilter prob.nxc"
80	632	237		mov __D0sort, __sort_7qG2_position_7qG2_000
80	631	239	#line 631 "C:\Users\ken\Desktop\C85\pfilter prob.nxc"
80	632	239		mov __signed_stack_001sort, __D0sort
80	631	241	#line 631 "C:\Users\ken\Desktop\C85\pfilter prob.nxc"
80	632	241		mov __D0sort, __sort_7qG2_position_7qG2_000
80	631	243	#line 631 "C:\Users\ken\Desktop\C85\pfilter prob.nxc"
80	632	243		mov __signed_stack_002sort, __D0sort
80	631	245	#line 631 "C:\Users\ken\Desktop\C85\pfilter prob.nxc"
80	632	245		set __D0sort, 1
80	631	248	#line 631 "C:\Users\ken\Desktop\C85\pfilter prob.nxc"
80	632	248		add __D0sort, __signed_stack_002sort, __D0sort
80	631	252	#line 631 "C:\Users\ken\Desktop\C85\pfilter prob.nxc"
80	632	252		mov __signed_stack_002sort, __D0sort
80	631	254	#line 631 "C:\Users\ken\Desktop\C85\pfilter prob.nxc"
80	632	254		index __ArrHelper__sortparticle_219_0, __sort_7qG2_p_7qG2_000, __signed_stack_002sort
80	632	258	#line 632 "C:\Users\ken\Desktop\C85\pfilter prob.nxc"
80	633	258		replace __sort_7qG2_p_7qG2_000, __sort_7qG2_p_7qG2_000, __signed_stack_001sort, __ArrHelper__sortparticle_219_0
80	632	263	#line 632 "C:\Users\ken\Desktop\C85\pfilter prob.nxc"
80	632	263	#line 632 "C:\Users\ken\Desktop\C85\pfilter prob.nxc"
80	633	263		mov __D0sort, __sort_7qG2_position_7qG2_000
80	632	265	#line 632 "C:\Users\ken\Desktop\C85\pfilter prob.nxc"
80	633	265		mov __signed_stack_001sort, __D0sort
80	632	267	#line 632 "C:\Users\ken\Desktop\C85\pfilter prob.nxc"
80	633	267		replace __sort_7qG2_p_7qG2_000, __sort_7qG2_p_7qG2_000, __signed_stack_001sort, __sort_7qG2_current_7qG2_000
80	633	272	#line 633 "C:\Users\ken\Desktop\C85\pfilter prob.nxc"
80	636	272	#line 636 "C:\Users\ken\Desktop\C85\pfilter prob.nxc"
80	637	272		set __D0sort, 1
80	636	275	#line 636 "C:\Users\ken\Desktop\C85\pfilter prob.nxc"
80	637	275		add __sort_7qG2_position_7qG2_000, __sort_7qG2_position_7qG2_000, __D0sort
80	636	279	#line 636 "C:\Users\ken\Desktop\C85\pfilter prob.nxc"
80	637	279	#line 637 "C:\Users\ken\Desktop\C85\pfilter prob.nxc"
80	638	279		jmp __NXC_Label_1381
80	638	281	#line 638 "C:\Users\ken\Desktop\C85\pfilter prob.nxc"
80	639	281		set __D0sort, 0
80	638	284	#line 638 "C:\Users\ken\Desktop\C85\pfilter prob.nxc"
80	639	284		mov __sort_7qG2_unsorted_7qG2_000, __D0sort
80	638	287	#line 638 "C:\Users\ken\Desktop\C85\pfilter prob.nxc"
80	641	287	#line 641 "C:\Users\ken\Desktop\C85\pfilter prob.nxc"
80	641	287	#line 641 "C:\Users\ken\Desktop\C85\pfilter prob.nxc"
80	641	287	#line 641 "C:\Users\ken\Desktop\C85\pfilter prob.nxc"
80	642	287		jmp __NXC_Label_1330
80	641	289	#line 641 "C:\Users\ken\Desktop\C85\pfilter prob.nxc"
80	642	289	#line 642 "C:\Users\ken\Desktop\C85\pfilter prob.nxc"
80	643	289		mov __result_sort, __sort_7qG2_p_7qG2_000
80	642	292	#line 642 "C:\Users\ken\Desktop\C85\pfilter prob.nxc"
80	643	292		subret __sort_return
80	642	294	#line 642 "C:\Users\ken\Desktop\C85\pfilter prob.nxc"
80	651	294	#line 651 "C:\Users\ken\Desktop\C85\pfilter prob.nxc"
80	652	294		subret __sort_return
81	657	0	#line 657 "C:\Users\ken\Desktop\C85\pfilter prob.nxc"
81	658	0		mov __DF0update_probability, __update_probability_7qG2_p_7qG2_000.prob
81	657	3	#line 657 "C:\Users\ken\Desktop\C85\pfilter prob.nxc"
81	658	3		sub ptotal, ptotal, __DF0update_probability
81	657	7	#line 657 "C:\Users\ken\Desktop\C85\pfilter prob.nxc"
81	658	7	#line 658 "C:\Users\ken\Desktop\C85\pfilter prob.nxc"
81	659	7		mov __DF0update_probability, __update_probability_7qG2_probability_7qG2_000
81	658	9	#line 658 "C:\Users\ken\Desktop\C85\pfilter prob.nxc"
81	659	9		add ptotal, ptotal, __DF0update_probability
81	658	13	#line 658 "C:\Users\ken\Desktop\C85\pfilter prob.nxc"
81	660	13	#line 660 "C:\Users\ken\Desktop\C85\pfilter prob.nxc"
81	661	13		mov __DF0update_probability, __update_probability_7qG2_probability_7qG2_000
81	660	15	#line 660 "C:\Users\ken\Desktop\C85\pfilter prob.nxc"
81	661	15		mov __update_probability_7qG2_p_7qG2_000.prob, __DF0update_probability
81	660	18	#line 660 "C:\Users\ken\Desktop\C85\pfilter prob.nxc"
81	661	18	#line 661 "C:\Users\ken\Desktop\C85\pfilter prob.nxc"
81	662	18		mov __result_update_probability, __update_probability_7qG2_p_7qG2_000
81	661	20	#line 661 "C:\Users\ken\Desktop\C85\pfilter prob.nxc"
81	662	20		subret __update_probability_return
81	661	22	#line 661 "C:\Users\ken\Desktop\C85\pfilter prob.nxc"
81	672	22	#line 672 "C:\Users\ken\Desktop\C85\pfilter prob.nxc"
81	673	22		subret __update_probability_return
82	674	0	#line 674 "C:\Users\ken\Desktop\C85\pfilter prob.nxc"
82	675	0		set __D0update_intersection_probability, 0
82	674	3	#line 674 "C:\Users\ken\Desktop\C85\pfilter prob.nxc"
82	675	3		mov __update_intersection_probability_7qG2_i_7qG2_000, __D0update_intersection_probability
82	674	6	#line 674 "C:\Users\ken\Desktop\C85\pfilter prob.nxc"
82	675	6		mov __D0update_intersection_probability, __update_intersection_probability_7qG2_i_7qG2_000
82	674	9	#line 674 "C:\Users\ken\Desktop\C85\pfilter prob.nxc"
82	675	9		mov __signed_stack_001update_intersection_probability, __D0update_intersection_probability
82	674	11	#line 674 "C:\Users\ken\Desktop\C85\pfilter prob.nxc"
82	675	11		set __D0update_intersection_probability, 3
82	674	14	#line 674 "C:\Users\ken\Desktop\C85\pfilter prob.nxc"
82	675	14		mov __signed_stack_002update_intersection_probability, __D0update_intersection_probability
82	674	16	#line 674 "C:\Users\ken\Desktop\C85\pfilter prob.nxc"
82	675	16		set __D0update_intersection_probability, 5
82	674	19	#line 674 "C:\Users\ken\Desktop\C85\pfilter prob.nxc"
82	675	19		mul __D0update_intersection_probability, __signed_stack_002update_intersection_probability, __D0update_intersection_probability
82	674	23	#line 674 "C:\Users\ken\Desktop\C85\pfilter prob.nxc"
82	675	23		mov __signed_stack_002update_intersection_probability, __D0update_intersection_probability
82	674	25	#line 674 "C:\Users\ken\Desktop\C85\pfilter prob.nxc"
82	675	25		set __D0update_intersection_probability, 4
82	674	28	#line 674 "C:\Users\ken\Desktop\C85\pfilter prob.nxc"
82	675	28		mul __D0update_intersection_probability, __signed_stack_002update_intersection_probability, __D0update_intersection_probability
82	674	32	#line 674 "C:\Users\ken\Desktop\C85\pfilter prob.nxc"
82	675	32		cmp 0, __zfupdate_intersection_probability, __signed_stack_001update_intersection_probability, __D0update_intersection_probability
82	674	36	#line 674 "C:\Users\ken\Desktop\C85\pfilter prob.nxc"
82	675	36		mov __D0update_intersection_probability, __zfupdate_intersection_probability
82	674	39	#line 674 "C:\Users\ken\Desktop\C85\pfilter prob.nxc"
82	675	39		brtst 4, __NXC_Label_1391, __zfupdate_intersection_probability
82	674	42	#line 674 "C:\Users\ken\Desktop\C85\pfilter prob.nxc"
82	675	42		jmp __NXC_Label_1392
82	674	44	#line 674 "C:\Users\ken\Desktop\C85\pfilter prob.nxc"
82	675	44		add __update_intersection_probability_7qG2_i_7qG2_000, __update_intersection_probability_7qG2_i_7qG2_000, __constVal1
82	676	48	#line 676 "C:\Users\ken\Desktop\C85\pfilter prob.nxc"
82	677	48		jmp __NXC_Label_1390
82	676	50	#line 676 "C:\Users\ken\Desktop\C85\pfilter prob.nxc"
82	677	50		mov __D0update_intersection_probability, __update_intersection_probability_7qG2_i_7qG2_000
82	676	53	#line 676 "C:\Users\ken\Desktop\C85\pfilter prob.nxc"
82	677	53		mov __signed_stack_001update_intersection_probability, __D0update_intersection_probability
82	676	55	#line 676 "C:\Users\ken\Desktop\C85\pfilter prob.nxc"
82	677	55		index __ArrHelper__update_intersection_probabilityparticle_219_0, list, __signed_stack_001update_intersection_probability
82	676	59	#line 676 "C:\Users\ken\Desktop\C85\pfilter prob.nxc"
82	677	59		mov __D0update_intersection_probability, __ArrHelper__update_intersection_probabilityparticle_219_0.x
82	676	62	#line 676 "C:\Users\ken\Desktop\C85\pfilter prob.nxc"
82	677	62		mov __signed_stack_001update_intersection_probability, __D0update_intersection_probability
82	676	64	#line 676 "C:\Users\ken\Desktop\C85\pfilter prob.nxc"
82	677	64		mov __D0update_intersection_probability, __update_intersection_probability_7qG2_x_7qG2_000
82	676	67	#line 676 "C:\Users\ken\Desktop\C85\pfilter prob.nxc"
82	677	67		cmp 4, __zfupdate_intersection_probability, __signed_stack_001update_intersection_probability, __D0update_intersection_probability
82	676	71	#line 676 "C:\Users\ken\Desktop\C85\pfilter prob.nxc"
82	677	71		mov __D0update_intersection_probability, __zfupdate_intersection_probability
82	676	74	#line 676 "C:\Users\ken\Desktop\C85\pfilter prob.nxc"
82	677	74		brtst 4, __NXC_Label_1399, __zfupdate_intersection_probability
82	676	77	#line 676 "C:\Users\ken\Desktop\C85\pfilter prob.nxc"
82	677	77		mov __signed_stack_001update_intersection_probability, __D0update_intersection_probability
82	676	79	#line 676 "C:\Users\ken\Desktop\C85\pfilter prob.nxc"
82	677	79		mov __D0update_intersection_probability, __update_intersection_probability_7qG2_i_7qG2_000
82	676	82	#line 676 "C:\Users\ken\Desktop\C85\pfilter prob.nxc"
82	677	82		mov __signed_stack_002update_intersection_probability, __D0update_intersection_probability
82	676	84	#line 676 "C:\Users\ken\Desktop\C85\pfilter prob.nxc"
82	677	84		index __ArrHelper__update_intersection_probabilityparticle_219_0, list, __signed_stack_002update_intersection_probability
82	676	88	#line 676 "C:\Users\ken\Desktop\C85\pfilter prob.nxc"
82	677	88		mov __D0update_intersection_probability, __ArrHelper__update_intersection_probabilityparticle_219_0.y
82	676	91	#line 676 "C:\Users\ken\Desktop\C85\pfilter prob.nxc"
82	677	91		mov __signed_stack_002update_intersection_probability, __D0update_intersection_probability
82	676	93	#line 676 "C:\Users\ken\Desktop\C85\pfilter prob.nxc"
82	677	93		mov __D0update_intersection_probability, __update_intersection_probability_7qG2_y_7qG2_000
82	676	96	#line 676 "C:\Users\ken\Desktop\C85\pfilter prob.nxc"
82	677	96		cmp 4, __zfupdate_intersection_probability, __signed_stack_002update_intersection_probability, __D0update_intersection_probability
82	676	100	#line 676 "C:\Users\ken\Desktop\C85\pfilter prob.nxc"
82	677	100		mov __D0update_intersection_probability, __zfupdate_intersection_probability
82	676	103	#line 676 "C:\Users\ken\Desktop\C85\pfilter prob.nxc"
82	677	103		and __D0update_intersection_probability, __signed_stack_001update_intersection_probability, __D0update_intersection_probability
82	676	107	#line 676 "C:\Users\ken\Desktop\C85\pfilter prob.nxc"
82	677	107		tst 5, __zfupdate_intersection_probability, __D0update_intersection_probability
82	676	110	#line 676 "C:\Users\ken\Desktop\C85\pfilter prob.nxc"
82	677	110		mov __D0update_intersection_probability, __zfupdate_intersection_probability
82	676	113	#line 676 "C:\Users\ken\Desktop\C85\pfilter prob.nxc"
82	677	113		brtst 4, __NXC_Label_1399, __zfupdate_intersection_probability
82	676	116	#line 676 "C:\Users\ken\Desktop\C85\pfilter prob.nxc"
82	677	116		mov __signed_stack_001update_intersection_probability, __D0update_intersection_probability
82	676	118	#line 676 "C:\Users\ken\Desktop\C85\pfilter prob.nxc"
82	677	118		mov __D0update_intersection_probability, __update_intersection_probability_7qG2_i_7qG2_000
82	676	121	#line 676 "C:\Users\ken\Desktop\C85\pfilter prob.nxc"
82	677	121		mov __signed_stack_002update_intersection_probability, __D0update_intersection_probability
82	676	123	#line 676 "C:\Users\ken\Desktop\C85\pfilter prob.nxc"
82	677	123		index __ArrHelper__update_intersection_probabilityparticle_219_0, list, __signed_stack_002update_intersection_probability
82	676	127	#line 676 "C:\Users\ken\Desktop\C85\pfilter prob.nxc"
82	677	127		mov __D0update_intersection_probability, __ArrHelper__update_intersection_probabilityparticle_219_0.theta
82	676	130	#line 676 "C:\Users\ken\Desktop\C85\pfilter prob.nxc"
82	677	130		mov __signed_stack_002update_intersection_probability, __D0update_intersection_probability
82	676	132	#line 676 "C:\Users\ken\Desktop\C85\pfilter prob.nxc"
82	677	132		mov __D0update_intersection_probability, __update_intersection_probability_7qG2_heading_7qG2_000
82	676	135	#line 676 "C:\Users\ken\Desktop\C85\pfilter prob.nxc"
82	677	135		cmp 4, __zfupdate_intersection_probability, __signed_stack_002update_intersection_probability, __D0update_intersection_probability
82	676	139	#line 676 "C:\Users\ken\Desktop\C85\pfilter prob.nxc"
82	677	139		mov __D0update_intersection_probability, __zfupdate_intersection_probability
82	676	142	#line 676 "C:\Users\ken\Desktop\C85\pfilter prob.nxc"
82	677	142		and __D0update_intersection_probability, __signed_stack_001update_intersection_probability, __D0update_intersection_probability
82	677	146	#line 677 "C:\Users\ken\Desktop\C85\pfilter prob.nxc"
82	678	146		tst 5, __zfupdate_intersection_probability, __D0update_intersection_probability
82	677	149	#line 677 "C:\Users\ken\Desktop\C85\pfilter prob.nxc"
82	678	149		brtst 4, __NXC_Label_1412, __zfupdate_intersection_probability
82	677	152	#line 677 "C:\Users\ken\Desktop\C85\pfilter prob.nxc"
82	678	152		mov __D0update_intersection_probability, __update_intersection_probability_7qG2_i_7qG2_000
82	677	155	#line 677 "C:\Users\ken\Desktop\C85\pfilter prob.nxc"
82	678	155		mov __signed_stack_001update_intersection_probability, __D0update_intersection_probability
82	677	157	#line 677 "C:\Users\ken\Desktop\C85\pfilter prob.nxc"
82	678	157		mov __D0update_intersection_probability, __update_intersection_probability_7qG2_i_7qG2_000
82	677	160	#line 677 "C:\Users\ken\Desktop\C85\pfilter prob.nxc"
82	678	160		mov __signed_stack_002update_intersection_probability, __D0update_intersection_probability
82	677	162	#line 677 "C:\Users\ken\Desktop\C85\pfilter prob.nxc"
82	678	162		index __ArrHelper__update_intersection_probabilityparticle_219_0, list, __signed_stack_002update_intersection_probability
82	677	166	#line 677 "C:\Users\ken\Desktop\C85\pfilter prob.nxc"
82	678	166		mov __update_probability_7qG2_p_7qG2_000, __ArrHelper__update_intersection_probabilityparticle_219_0
82	677	168	#line 677 "C:\Users\ken\Desktop\C85\pfilter prob.nxc"
82	678	168		mov __DF0update_intersection_probability, __update_intersection_probability_7qG2_probability_7qG2_000
82	677	170	#line 677 "C:\Users\ken\Desktop\C85\pfilter prob.nxc"
82	678	170		mov __update_probability_7qG2_probability_7qG2_000, __DF0update_intersection_probability
82	678	172	#line 678 "C:\Users\ken\Desktop\C85\pfilter prob.nxc"
82	679	172		subcall update_probability, __update_probability_return
82	678	175	#line 678 "C:\Users\ken\Desktop\C85\pfilter prob.nxc"
82	679	175		replace list, list, __signed_stack_001update_intersection_probability, __result_update_probability
82	678	180	#line 678 "C:\Users\ken\Desktop\C85\pfilter prob.nxc"
82	680	180	#line 680 "C:\Users\ken\Desktop\C85\pfilter prob.nxc"
82	689	180	#line 689 "C:\Users\ken\Desktop\C85\pfilter prob.nxc"
82	690	180		jmp __NXC_Label_1393
82	689	182	#line 689 "C:\Users\ken\Desktop\C85\pfilter prob.nxc"
82	689	182	#line 689 "C:\Users\ken\Desktop\C85\pfilter prob.nxc"
82	690	182		subret __update_intersection_probability_return
83	690	0	#line 690 "C:\Users\ken\Desktop\C85\pfilter prob.nxc"
83	691	0		arrinit __orient_7qG2_new_intersection_7qG2_000, __constVal0, __constVal4
83	691	4	#line 691 "C:\Users\ken\Desktop\C85\pfilter prob.nxc"
83	692	4		set __D0orient, 0
83	691	7	#line 691 "C:\Users\ken\Desktop\C85\pfilter prob.nxc"
83	692	7		mov __orient_7qG2_i_7qG2_000, __D0orient
83	691	9	#line 691 "C:\Users\ken\Desktop\C85\pfilter prob.nxc"
83	692	9		mov __D0orient, __orient_7qG2_i_7qG2_000
83	691	11	#line 691 "C:\Users\ken\Desktop\C85\pfilter prob.nxc"
83	692	11		mov __signed_stack_001orient, __D0orient
83	691	14	#line 691 "C:\Users\ken\Desktop\C85\pfilter prob.nxc"
83	692	14		set __D0orient, 4
83	691	17	#line 691 "C:\Users\ken\Desktop\C85\pfilter prob.nxc"
83	692	17		cmp 0, __zforient, __signed_stack_001orient, __D0orient
83	691	21	#line 691 "C:\Users\ken\Desktop\C85\pfilter prob.nxc"
83	692	21		mov __D0orient, __zforient
83	691	24	#line 691 "C:\Users\ken\Desktop\C85\pfilter prob.nxc"
83	692	24		brtst 4, __NXC_Label_1422, __zforient
83	691	27	#line 691 "C:\Users\ken\Desktop\C85\pfilter prob.nxc"
83	692	27		jmp __NXC_Label_1423
83	691	29	#line 691 "C:\Users\ken\Desktop\C85\pfilter prob.nxc"
83	692	29		add __orient_7qG2_i_7qG2_000, __orient_7qG2_i_7qG2_000, __constVal1
83	693	33	#line 693 "C:\Users\ken\Desktop\C85\pfilter prob.nxc"
83	694	33		jmp __NXC_Label_1421
83	693	35	#line 693 "C:\Users\ken\Desktop\C85\pfilter prob.nxc"
83	694	35		mov __D0orient, __orient_7qG2_i_7qG2_000
83	693	37	#line 693 "C:\Users\ken\Desktop\C85\pfilter prob.nxc"
83	694	37		mov __signed_stack_001orient, __D0orient
83	693	40	#line 693 "C:\Users\ken\Desktop\C85\pfilter prob.nxc"
83	694	40		mov __D0orient, __orient_7qG2_heading_7qG2_000
83	693	42	#line 693 "C:\Users\ken\Desktop\C85\pfilter prob.nxc"
83	694	42		add __D0orient, __signed_stack_001orient, __D0orient
83	693	46	#line 693 "C:\Users\ken\Desktop\C85\pfilter prob.nxc"
83	694	46		abs __D0orient, __D0orient
83	693	49	#line 693 "C:\Users\ken\Desktop\C85\pfilter prob.nxc"
83	694	49		mov __signed_stack_001orient, __D0orient
83	693	52	#line 693 "C:\Users\ken\Desktop\C85\pfilter prob.nxc"
83	694	52		set __D0orient, 4
83	693	55	#line 693 "C:\Users\ken\Desktop\C85\pfilter prob.nxc"
83	694	55		mod __D0orient, __signed_stack_001orient, __D0orient
83	693	59	#line 693 "C:\Users\ken\Desktop\C85\pfilter prob.nxc"
83	694	59		mov __signed_stack_001orient, __D0orient
83	693	62	#line 693 "C:\Users\ken\Desktop\C85\pfilter prob.nxc"
83	694	62		mov __D0orient, __orient_7qG2_i_7qG2_000
83	693	64	#line 693 "C:\Users\ken\Desktop\C85\pfilter prob.nxc"
83	694	64		mov __signed_stack_002orient, __D0orient
83	693	67	#line 693 "C:\Users\ken\Desktop\C85\pfilter prob.nxc"
83	694	67		index __ArrHelper__orient_73_0, colours, __signed_stack_002orient
83	693	71	#line 693 "C:\Users\ken\Desktop\C85\pfilter prob.nxc"
83	694	71		mov __D0orient, __ArrHelper__orient_73_0
83	694	74	#line 694 "C:\Users\ken\Desktop\C85\pfilter prob.nxc"
83	695	74		replace __orient_7qG2_new_intersection_7qG2_000, __orient_7qG2_new_intersection_7qG2_000, __signed_stack_001orient, __D0orient
83	694	79	#line 694 "C:\Users\ken\Desktop\C85\pfilter prob.nxc"
83	695	79	#line 695 "C:\Users\ken\Desktop\C85\pfilter prob.nxc"
83	696	79		jmp __NXC_Label_1424
83	695	81	#line 695 "C:\Users\ken\Desktop\C85\pfilter prob.nxc"
83	695	81	#line 695 "C:\Users\ken\Desktop\C85\pfilter prob.nxc"
83	696	81		set __D0orient, 0
83	695	84	#line 695 "C:\Users\ken\Desktop\C85\pfilter prob.nxc"
83	696	84		mov __signed_stack_001orient, __D0orient
83	695	87	#line 695 "C:\Users\ken\Desktop\C85\pfilter prob.nxc"
83	696	87		set __D0orient, 0
83	695	90	#line 695 "C:\Users\ken\Desktop\C85\pfilter prob.nxc"
83	696	90		mov __signed_stack_002orient, __D0orient
83	695	93	#line 695 "C:\Users\ken\Desktop\C85\pfilter prob.nxc"
83	696	93		index __ArrHelper__orient_73_0, __orient_7qG2_new_intersection_7qG2_000, __signed_stack_002orient
83	695	97	#line 695 "C:\Users\ken\Desktop\C85\pfilter prob.nxc"
83	696	97		mov __D0orient, __ArrHelper__orient_73_0
83	696	100	#line 696 "C:\Users\ken\Desktop\C85\pfilter prob.nxc"
83	697	100		replace colours, colours, __signed_stack_001orient, __D0orient
83	696	105	#line 696 "C:\Users\ken\Desktop\C85\pfilter prob.nxc"
83	696	105	#line 696 "C:\Users\ken\Desktop\C85\pfilter prob.nxc"
83	697	105		set __D0orient, 1
83	696	108	#line 696 "C:\Users\ken\Desktop\C85\pfilter prob.nxc"
83	697	108		mov __signed_stack_001orient, __D0orient
83	696	111	#line 696 "C:\Users\ken\Desktop\C85\pfilter prob.nxc"
83	697	111		set __D0orient, 1
83	696	114	#line 696 "C:\Users\ken\Desktop\C85\pfilter prob.nxc"
83	697	114		mov __signed_stack_002orient, __D0orient
83	696	117	#line 696 "C:\Users\ken\Desktop\C85\pfilter prob.nxc"
83	697	117		index __ArrHelper__orient_73_0, __orient_7qG2_new_intersection_7qG2_000, __signed_stack_002orient
83	696	121	#line 696 "C:\Users\ken\Desktop\C85\pfilter prob.nxc"
83	697	121		mov __D0orient, __ArrHelper__orient_73_0
83	697	124	#line 697 "C:\Users\ken\Desktop\C85\pfilter prob.nxc"
83	698	124		replace colours, colours, __signed_stack_001orient, __D0orient
83	697	129	#line 697 "C:\Users\ken\Desktop\C85\pfilter prob.nxc"
83	697	129	#line 697 "C:\Users\ken\Desktop\C85\pfilter prob.nxc"
83	698	129		set __D0orient, 2
83	697	132	#line 697 "C:\Users\ken\Desktop\C85\pfilter prob.nxc"
83	698	132		mov __signed_stack_001orient, __D0orient
83	697	135	#line 697 "C:\Users\ken\Desktop\C85\pfilter prob.nxc"
83	698	135		set __D0orient, 2
83	697	138	#line 697 "C:\Users\ken\Desktop\C85\pfilter prob.nxc"
83	698	138		mov __signed_stack_002orient, __D0orient
83	697	141	#line 697 "C:\Users\ken\Desktop\C85\pfilter prob.nxc"
83	698	141		index __ArrHelper__orient_73_0, __orient_7qG2_new_intersection_7qG2_000, __signed_stack_002orient
83	697	145	#line 697 "C:\Users\ken\Desktop\C85\pfilter prob.nxc"
83	698	145		mov __D0orient, __ArrHelper__orient_73_0
83	698	148	#line 698 "C:\Users\ken\Desktop\C85\pfilter prob.nxc"
83	699	148		replace colours, colours, __signed_stack_001orient, __D0orient
83	698	153	#line 698 "C:\Users\ken\Desktop\C85\pfilter prob.nxc"
83	698	153	#line 698 "C:\Users\ken\Desktop\C85\pfilter prob.nxc"
83	699	153		set __D0orient, 3
83	698	156	#line 698 "C:\Users\ken\Desktop\C85\pfilter prob.nxc"
83	699	156		mov __signed_stack_001orient, __D0orient
83	698	159	#line 698 "C:\Users\ken\Desktop\C85\pfilter prob.nxc"
83	699	159		set __D0orient, 3
83	698	162	#line 698 "C:\Users\ken\Desktop\C85\pfilter prob.nxc"
83	699	162		mov __signed_stack_002orient, __D0orient
83	698	165	#line 698 "C:\Users\ken\Desktop\C85\pfilter prob.nxc"
83	699	165		index __ArrHelper__orient_73_0, __orient_7qG2_new_intersection_7qG2_000, __signed_stack_002orient
83	698	169	#line 698 "C:\Users\ken\Desktop\C85\pfilter prob.nxc"
83	699	169		mov __D0orient, __ArrHelper__orient_73_0
83	699	172	#line 699 "C:\Users\ken\Desktop\C85\pfilter prob.nxc"
83	700	172		replace colours, colours, __signed_stack_001orient, __D0orient
83	699	177	#line 699 "C:\Users\ken\Desktop\C85\pfilter prob.nxc"
83	703	177	#line 703 "C:\Users\ken\Desktop\C85\pfilter prob.nxc"
83	704	177		subret __orient_return
84	704	0	#line 704 "C:\Users\ken\Desktop\C85\pfilter prob.nxc"
84	705	0		mov __D0to_x, __to_x_7qG2_inter_7qG2_000
84	704	3	#line 704 "C:\Users\ken\Desktop\C85\pfilter prob.nxc"
84	705	3		mov __signed_stack_001to_x, __D0to_x
84	705	5	#line 705 "C:\Users\ken\Desktop\C85\pfilter prob.nxc"
84	706	5		set __D0to_x, 5
84	705	8	#line 705 "C:\Users\ken\Desktop\C85\pfilter prob.nxc"
84	706	8		div __D0to_x, __signed_stack_001to_x, __D0to_x
84	705	12	#line 705 "C:\Users\ken\Desktop\C85\pfilter prob.nxc"
84	706	12		subret __to_x_return
84	705	14	#line 705 "C:\Users\ken\Desktop\C85\pfilter prob.nxc"
84	708	14	#line 708 "C:\Users\ken\Desktop\C85\pfilter prob.nxc"
84	709	14		subret __to_x_return
85	709	0	#line 709 "C:\Users\ken\Desktop\C85\pfilter prob.nxc"
85	710	0		mov __D0to_y, __to_y_7qG2_inter_7qG2_000
85	709	3	#line 709 "C:\Users\ken\Desktop\C85\pfilter prob.nxc"
85	710	3		mov __signed_stack_001to_y, __D0to_y
85	710	5	#line 710 "C:\Users\ken\Desktop\C85\pfilter prob.nxc"
85	711	5		set __D0to_y, 5
85	710	8	#line 710 "C:\Users\ken\Desktop\C85\pfilter prob.nxc"
85	711	8		mod __D0to_y, __signed_stack_001to_y, __D0to_y
85	710	12	#line 710 "C:\Users\ken\Desktop\C85\pfilter prob.nxc"
85	711	12		subret __to_y_return
85	710	14	#line 710 "C:\Users\ken\Desktop\C85\pfilter prob.nxc"
85	719	14	#line 719 "C:\Users\ken\Desktop\C85\pfilter prob.nxc"
85	720	14		subret __to_y_return
86	874	0	#line 874 "C:\Users\ken\Desktop\C85\pfilter prob.nxc"
86	875	0		arrinit colours, __constVal0, __constVal4
86	874	4	#line 874 "C:\Users\ken\Desktop\C85\pfilter prob.nxc"
86	874	4	#line 874 "C:\Users\ken\Desktop\C85\pfilter prob.nxc"
86	875	4		arrinit list, __list_0, __constVal60
86	874	8	#line 874 "C:\Users\ken\Desktop\C85\pfilter prob.nxc"
86	875	8		subret ____initialize_global_data_return
#CLUMPS
Clump	Name	Offset	File
0	main	0	C:\Users\ken\Desktop\C85\pfilter prob.nxc
1	__RotateMotor0	2626	NXTDefs.h
2	__RotateMotor1	2795	NXTDefs.h
3	__RotateMotor2	2964	NXTDefs.h
4	__RotateMotor3	3134	NXTDefs.h
5	__RotateMotor4	3304	NXTDefs.h
6	__RotateMotor5	3473	NXTDefs.h
7	__RotateMotor6	3642	NXTDefs.h
8	__RotateMotorVar	3811	NXTDefs.h
9	__ResetSensorSubroutine	3859	NXTDefs.h
10	__ReadLSBytes0	3872	NXTDefs.h
11	__ReadLSBytes1	3971	NXTDefs.h
12	__ReadLSBytes2	4064	NXTDefs.h
13	__ReadLSBytes3	4157	NXTDefs.h
14	__ReadLSBytesVar	4250	NXTDefs.h
15	__fileResizeSub	4367	NXTDefs.h
16	__readStringLine	4472	NXTDefs.h
17	__sinSub	4522	NXTDefs.h
18	__asinSub	4601	NXTDefs.h
19	__sqrtSub	4635	NXTDefs.h
20	__PFApplyToggle	4799	NXTDefs.h
21	__PFUpdateToggle	4811	NXTDefs.h
22	__RCApplyToggle	4822	NXTDefs.h
23	__RCUpdateToggle	4834	NXTDefs.h
24	__PFCalcChecksum	4845	NXTDefs.h
25	__PFComboDirectSub	4905	NXTDefs.h
26	__PFSinglePinSub	4936	NXTDefs.h
27	__PFSingleOutputSub	4984	NXTDefs.h
28	__PFComboPWMSub	5020	NXTDefs.h
29	__PFTrainSub	5047	NXTDefs.h
30	__RCTrainSub	5070	NXTDefs.h
31	__PFRawOutputSub	5093	NXTDefs.h
32	__HTPowerFunctionCalcBits	5116	NXTDefs.h
33	__HTRCXCommandSub	5294	NXTDefs.h
34	__RFIDReadContinuousSub	5596	NXTDefs.h
35	__MSWriteBytesSub	5693	NXTDefs.h
36	__MSReadLEValueSub	5730	NXTDefs.h
37	__MSPowerFunctionCalcBytes	5869	NXTDefs.h
38	__MSRCXCommandSub	5911	NXTDefs.h
39	__GL_glRangeCheck	6306	NXTDefs.h
40	__GL_glInit	6321	NXTDefs.h
41	__GL_glSet	6398	NXTDefs.h
42	__GL_glAddVertex	6436	NXTDefs.h
43	__GL_glEnd	6519	NXTDefs.h
44	__GL_glAddLines	6537	NXTDefs.h
45	__GL_glEndObject	6682	NXTDefs.h
46	__GL_glObjectAction	6700	NXTDefs.h
47	__GL_glRotateObject	6799	NXTDefs.h
48	__GL_glRotateVertexList	7080	NXTDefs.h
49	__GL_glResetObjects	7289	NXTDefs.h
50	__GL_glCallObject	7331	NXTDefs.h
51	__GL_glDrawObject	7355	NXTDefs.h
52	__GL_glRenderObjects	7634	NXTDefs.h
53	__GL_glBox	7691	NXTDefs.h
54	__GL_glPyramid	8089	NXTDefs.h
55	__PosSubroutine	8375	NXTDefs.h
56	PlaySound	8426	NXCDefs.h
57	PlayTones	9015	NXCDefs.h
58	SensorNXTSumoEyes	9104	NXCDefs.h
59	fopen	9273	NXCDefs.h
60	colour	9397	C:\Users\ken\Desktop\C85\pfilter prob.nxc
61	drive	9663	C:\Users\ken\Desktop\C85\pfilter prob.nxc
62	rotate	10468	C:\Users\ken\Desktop\C85\pfilter prob.nxc
63	measure	11040	C:\Users\ken\Desktop\C85\pfilter prob.nxc
64	from_north_oriented	11189	C:\Users\ken\Desktop\C85\pfilter prob.nxc
65	sense	11214	C:\Users\ken\Desktop\C85\pfilter prob.nxc
66	scan_surroundings	11513	C:\Users\ken\Desktop\C85\pfilter prob.nxc
67	change_direction	11735	C:\Users\ken\Desktop\C85\pfilter prob.nxc
68	move_steps	11834	C:\Users\ken\Desktop\C85\pfilter prob.nxc
69	align	11872	C:\Users\ken\Desktop\C85\pfilter prob.nxc
70	move_robot	12503	C:\Users\ken\Desktop\C85\pfilter prob.nxc
71	move_to	12644	C:\Users\ken\Desktop\C85\pfilter prob.nxc
72	_pmove	12964	C:\Users\ken\Desktop\C85\pfilter prob.nxc
73	protate	13028	C:\Users\ken\Desktop\C85\pfilter prob.nxc
74	pmove	13071	C:\Users\ken\Desktop\C85\pfilter prob.nxc
75	protate_all	13301	C:\Users\ken\Desktop\C85\pfilter prob.nxc
76	pmove_all	13384	C:\Users\ken\Desktop\C85\pfilter prob.nxc
77	total	13443	C:\Users\ken\Desktop\C85\pfilter prob.nxc
78	normalize	13519	C:\Users\ken\Desktop\C85\pfilter prob.nxc
79	find_max_p	13624	C:\Users\ken\Desktop\C85\pfilter prob.nxc
80	sort	13763	C:\Users\ken\Desktop\C85\pfilter prob.nxc
81	update_probability	14059	C:\Users\ken\Desktop\C85\pfilter prob.nxc
82	update_intersection_probability	14083	C:\Users\ken\Desktop\C85\pfilter prob.nxc
83	orient	14267	C:\Users\ken\Desktop\C85\pfilter prob.nxc
84	to_x	14446	C:\Users\ken\Desktop\C85\pfilter prob.nxc
85	to_y	14462	C:\Users\ken\Desktop\C85\pfilter prob.nxc
86	__initialize_global_data	14478	C:\Users\ken\Desktop\C85\pfilter prob.nxc
